

Microchip MPLAB XC8 Assembler V2.20 build 20200408173844 
                                                                                               Sun Sep 20 18:44:50 2020

Microchip MPLAB XC8 C Compiler v2.20 (Free license) build 20200408173844 Og1 
     1                           	processor	18F4550
     2                           	fnconf	rparam,??,?,0
     3                           	pagewidth 120
     4                           	opt	flic
     5                           	psect	idataBANK0,global,class=CODE,delta=1,noexec
     6                           	psect	cinit,global,reloc=2,class=CODE,delta=1
     7                           	psect	bssBANK0,global,class=BANK0,space=1,delta=1,lowdata,noexec
     8                           	psect	dataBANK0,global,class=BANK0,space=1,delta=1,lowdata,noexec
     9                           	psect	cstackBANK0,global,class=BANK0,space=1,delta=1,lowdata,noexec
    10                           	psect	cstackCOMRAM,global,class=COMRAM,space=1,delta=1,lowdata,noexec
    11                           	psect	text0,global,reloc=2,class=CODE,delta=1
    12                           	psect	text1,global,reloc=2,class=CODE,delta=1
    13                           	psect	text2,global,reloc=2,class=CODE,delta=1
    14                           	psect	text3,global,reloc=2,class=CODE,delta=1
    15                           	psect	text4,global,reloc=2,class=CODE,delta=1,group=1
    16                           	psect	text5,global,reloc=2,class=CODE,delta=1,group=1
    17                           	psect	text6,global,reloc=2,class=CODE,delta=1,group=1
    18                           	psect	text7,global,reloc=2,class=CODE,delta=1,group=1
    19                           	psect	text8,global,reloc=2,class=CODE,delta=1,group=1
    20                           	psect	text9,global,reloc=2,class=CODE,delta=1
    21                           	psect	intcodelo,global,reloc=2,class=CODE,delta=1
    22                           	psect	intcode,global,reloc=2,class=CODE,delta=1
    23                           	psect	intcode_body,global,reloc=2,class=CODE,delta=1
    24                           	psect	text12,global,reloc=2,class=CODE,delta=1
    25                           	psect	text13,global,reloc=2,class=CODE,delta=1
    26                           	psect	text14,global,reloc=2,class=CODE,delta=1
    27                           	psect	text15,global,reloc=2,class=CODE,delta=1
    28                           	psect	text16,global,reloc=2,class=CODE,delta=1
    29                           	psect	text17,global,reloc=2,class=CODE,delta=1
    30                           	psect	text18,global,reloc=2,class=CODE,delta=1
    31                           	psect	text19,global,reloc=2,class=CODE,delta=1
    32                           	psect	intsave_regs,global,class=BIGRAM,space=1,delta=1,noexec
    33                           	psect	rparam,global,class=COMRAM,space=1,delta=1,noexec
    34                           	psect	temp,global,ovrld,common,class=COMRAM,space=1,delta=1
    35                           	psect	idloc,global,abs,ovrld,class=IDLOC,space=5,delta=1,noexec
    36                           	psect	config,global,abs,ovrld,class=CONFIG,space=4,delta=1,noexec
    37  0000                     
    38                           ; Version 2.20
    39                           ; Generated 12/02/2020 GMT
    40                           ; 
    41                           ; Copyright © 2020, Microchip Technology Inc. and its subsidiaries ("Microchip")
    42                           ; All rights reserved.
    43                           ; 
    44                           ; This software is developed by Microchip Technology Inc. and its subsidiaries ("Microch
      +                          ip").
    45                           ; 
    46                           ; Redistribution and use in source and binary forms, with or without modification, are
    47                           ; permitted provided that the following conditions are met:
    48                           ; 
    49                           ;     1. Redistributions of source code must retain the above copyright notice, this lis
      +                          t of
    50                           ;        conditions and the following disclaimer.
    51                           ; 
    52                           ;     2. Redistributions in binary form must reproduce the above copyright notice, this 
      +                          list
    53                           ;        of conditions and the following disclaimer in the documentation and/or other
    54                           ;        materials provided with the distribution.
    55                           ; 
    56                           ;     3. Microchip's name may not be used to endorse or promote products derived from th
      +                          is
    57                           ;        software without specific prior written permission.
    58                           ; 
    59                           ; THIS SOFTWARE IS PROVIDED BY MICROCHIP "AS IS" AND ANY EXPRESS OR IMPLIED WARRANTIES,
    60                           ; INCLUDING, BUT NOT LIMITED TO, THE IMPLIED WARRANTIES OF MERCHANTABILITY AND FITNESS F
      +                          OR
    61                           ; PURPOSE ARE DISCLAIMED.  IN NO EVENT SHALL MICROCHIP BE LIABLE FOR ANY DIRECT, INDIREC
      +                          T,
    62                           ; INCIDENTAL, SPECIAL, EXEMPLARY, OR CONSEQUENTIAL DAMAGES (INCLUDING BUT NOT LIMITED TO
    63                           ; PROCUREMENT OF SUBSTITUTE GOODS OR SERVICES; LOSS OF USE, DATA OR PROFITS; OR BUSINESS
    64                           ; INTERRUPTION) HOWSOEVER CAUSED AND ON ANY THEORY OF LIABILITY, WHETHER IN CONTRACT, ST
      +                          RICT
    65                           ; LIABILITY, OR TORT (INCLUDING NEGLIGENCE OR OTHERWISE) ARISING IN ANY WAY OUT OF THE U
      +                          SE OF
    66                           ; THIS SOFTWARE, EVEN IF ADVISED OF THE POSSIBILITY OF SUCH DAMAGE.
    67                           ; 
    68                           ; 
    69                           ; Code-generator required, PIC18F4550 Definitions
    70                           ; 
    71                           ; SFR Addresses
    72  0000                     
    73                           	psect	idataBANK0
    74  002BA8                     __pidataBANK0:
    75                           	callstack 0
    76                           
    77                           ;initializer for _opc
    78  002BA8  41                 	db	65
    79  0000                     _PORTCbits	set	3970
    80  0000                     _PORTBbits	set	3969
    81  0000                     _PORTEbits	set	3972
    82  0000                     _PORTAbits	set	3968
    83  0000                     _ADRESH	set	4036
    84  0000                     _ADRESL	set	4035
    85  0000                     _ADCON0bits	set	4034
    86  0000                     _RCONbits	set	4048
    87  0000                     _INTCON2bits	set	4081
    88  0000                     _INTCON3bits	set	4080
    89  0000                     _INTCONbits	set	4082
    90  0000                     _ADCON2	set	4032
    91  0000                     _ADCON1	set	4033
    92  0000                     _ADCON0	set	4034
    93  0000                     _PORTDbits	set	3971
    94  0000                     _PORTE	set	3972
    95  0000                     _PORTD	set	3971
    96  0000                     _PORTC	set	3970
    97  0000                     _PORTB	set	3969
    98  0000                     _PORTA	set	3968
    99  0000                     _TRISE	set	3990
   100  0000                     _TRISD	set	3989
   101  0000                     _TRISC	set	3988
   102  0000                     _TRISB	set	3987
   103  0000                     _TRISA	set	3986
   104                           
   105                           ; #config settings
   106                           
   107                           	psect	cinit
   108  002B7C                     __pcinit:
   109                           	callstack 0
   110  002B7C                     start_initialization:
   111                           	callstack 0
   112  002B7C                     __initialization:
   113                           	callstack 0
   114                           
   115                           ; Initialize objects allocated to BANK0 (1 bytes)
   116                           ; load TBLPTR registers with __pidataBANK0
   117  002B7C  0EA8               	movlw	low __pidataBANK0
   118  002B7E  6EF6               	movwf	tblptrl,c
   119  002B80  0E2B               	movlw	high __pidataBANK0
   120  002B82  6EF7               	movwf	tblptrh,c
   121  002B84  0E00               	movlw	low (__pidataBANK0 shr (0+16))
   122  002B86  6EF8               	movwf	tblptru,c
   123  002B88  0009               	tblrd		*+	;fetch initializer
   124  002B8A  CFF5 F0C7          	movff	tablat,__pdataBANK0
   125                           
   126                           ; Clear objects allocated to BANK0 (14 bytes)
   127  002B8E  EE00  F0B9         	lfsr	0,__pbssBANK0
   128  002B92  0E0E               	movlw	14
   129  002B94                     clear_0:
   130  002B94  6AEE               	clrf	postinc0,c
   131  002B96  06E8               	decf	wreg,f,c
   132  002B98  E1FD               	bnz	clear_0
   133  002B9A                     end_of_initialization:
   134                           	callstack 0
   135  002B9A                     __end_of__initialization:
   136                           	callstack 0
   137  002B9A  9057               	bcf	int$flags,0,c	;clear compiler interrupt flag (level 1)
   138  002B9C  9257               	bcf	int$flags,1,c	;clear compiler interrupt flag (level 2)
   139  002B9E  0E00               	movlw	low (__Lmediumconst shr (0+16))
   140  002BA0  6EF8               	movwf	tblptru,c
   141  002BA2  0100               	movlb	0
   142  002BA4  EF79  F00D         	goto	_main	;jump to C main() function
   143                           
   144                           	psect	bssBANK0
   145  0000B9                     __pbssBANK0:
   146                           	callstack 0
   147  0000B9                     _cont1:
   148                           	callstack 0
   149  0000B9                     	ds	2
   150  0000BB                     _cont:
   151                           	callstack 0
   152  0000BB                     	ds	2
   153  0000BD                     _y:
   154                           	callstack 0
   155  0000BD                     	ds	2
   156  0000BF                     _x:
   157                           	callstack 0
   158  0000BF                     	ds	2
   159  0000C1                     _Nact:
   160                           	callstack 0
   161  0000C1                     	ds	2
   162  0000C3                     _Nant:
   163                           	callstack 0
   164  0000C3                     	ds	2
   165  0000C5                     _num:
   166                           	callstack 0
   167  0000C5                     	ds	2
   168                           
   169                           	psect	dataBANK0
   170  0000C7                     __pdataBANK0:
   171                           	callstack 0
   172  0000C7                     _opc:
   173                           	callstack 0
   174  0000C7                     	ds	1
   175                           
   176                           	psect	cstackBANK0
   177  000060                     __pcstackBANK0:
   178                           	callstack 0
   179  000060                     ??_ISR_RB:
   180                           
   181                           ; 1 bytes @ 0x0
   182  000060                     	ds	3
   183  000063                     ?___fladd:
   184                           	callstack 0
   185  000063                     ?___xxtofl:
   186                           	callstack 0
   187  000063                     und@x:
   188                           	callstack 0
   189  000063                     dec@y:
   190                           	callstack 0
   191  000063                     ___flge@ff1:
   192                           	callstack 0
   193  000063                     ___fladd@b:
   194                           	callstack 0
   195  000063                     ___xxtofl@val:
   196                           	callstack 0
   197                           
   198                           ; 4 bytes @ 0x3
   199  000063                     	ds	2
   200  000065                     
   201                           ; 1 bytes @ 0x5
   202  000065                     	ds	2
   203  000067                     ??___xxtofl:
   204  000067                     ___flge@ff2:
   205                           	callstack 0
   206  000067                     ___fladd@a:
   207                           	callstack 0
   208                           
   209                           ; 4 bytes @ 0x7
   210  000067                     	ds	4
   211  00006B                     ??___fladd:
   212  00006B                     ??___flge:
   213  00006B                     ___xxtofl@sign:
   214                           	callstack 0
   215                           
   216                           ; 1 bytes @ 0xB
   217  00006B                     	ds	1
   218  00006C                     ___xxtofl@exp:
   219                           	callstack 0
   220                           
   221                           ; 1 bytes @ 0xC
   222  00006C                     	ds	1
   223  00006D                     ___xxtofl@arg:
   224                           	callstack 0
   225                           
   226                           ; 4 bytes @ 0xD
   227  00006D                     	ds	2
   228  00006F                     ___fladd@signs:
   229                           	callstack 0
   230                           
   231                           ; 1 bytes @ 0xF
   232  00006F                     	ds	1
   233  000070                     ___fladd@aexp:
   234                           	callstack 0
   235                           
   236                           ; 1 bytes @ 0x10
   237  000070                     	ds	1
   238  000071                     ___fladd@bexp:
   239                           	callstack 0
   240                           
   241                           ; 1 bytes @ 0x11
   242  000071                     	ds	1
   243  000072                     ___fladd@grs:
   244                           	callstack 0
   245                           
   246                           ; 1 bytes @ 0x12
   247  000072                     	ds	1
   248  000073                     ?___flmul:
   249                           	callstack 0
   250  000073                     ___flmul@b:
   251                           	callstack 0
   252                           
   253                           ; 4 bytes @ 0x13
   254  000073                     	ds	4
   255  000077                     ___flmul@a:
   256                           	callstack 0
   257                           
   258                           ; 4 bytes @ 0x17
   259  000077                     	ds	4
   260  00007B                     ??___flmul:
   261                           
   262                           ; 1 bytes @ 0x1B
   263  00007B                     	ds	4
   264  00007F                     ___flmul@sign:
   265                           	callstack 0
   266                           
   267                           ; 1 bytes @ 0x1F
   268  00007F                     	ds	1
   269  000080                     ___flmul@grs:
   270                           	callstack 0
   271                           
   272                           ; 4 bytes @ 0x20
   273  000080                     	ds	4
   274  000084                     ___flmul@aexp:
   275                           	callstack 0
   276                           
   277                           ; 1 bytes @ 0x24
   278  000084                     	ds	1
   279  000085                     ___flmul@bexp:
   280                           	callstack 0
   281                           
   282                           ; 1 bytes @ 0x25
   283  000085                     	ds	1
   284  000086                     ___flmul@prod:
   285                           	callstack 0
   286                           
   287                           ; 4 bytes @ 0x26
   288  000086                     	ds	4
   289  00008A                     ___flmul@temp:
   290                           	callstack 0
   291                           
   292                           ; 2 bytes @ 0x2A
   293  00008A                     	ds	2
   294  00008C                     ?___fldiv:
   295                           	callstack 0
   296  00008C                     ___fldiv@b:
   297                           	callstack 0
   298                           
   299                           ; 4 bytes @ 0x2C
   300  00008C                     	ds	4
   301  000090                     ___fldiv@a:
   302                           	callstack 0
   303                           
   304                           ; 4 bytes @ 0x30
   305  000090                     	ds	4
   306  000094                     ??___fldiv:
   307                           
   308                           ; 1 bytes @ 0x34
   309  000094                     	ds	4
   310  000098                     ___fldiv@rem:
   311                           	callstack 0
   312                           
   313                           ; 4 bytes @ 0x38
   314  000098                     	ds	4
   315  00009C                     ___fldiv@sign:
   316                           	callstack 0
   317                           
   318                           ; 1 bytes @ 0x3C
   319  00009C                     	ds	1
   320  00009D                     ___fldiv@new_exp:
   321                           	callstack 0
   322                           
   323                           ; 2 bytes @ 0x3D
   324  00009D                     	ds	2
   325  00009F                     ___fldiv@grs:
   326                           	callstack 0
   327                           
   328                           ; 4 bytes @ 0x3F
   329  00009F                     	ds	4
   330  0000A3                     ___fldiv@bexp:
   331                           	callstack 0
   332                           
   333                           ; 1 bytes @ 0x43
   334  0000A3                     	ds	1
   335  0000A4                     ___fldiv@aexp:
   336                           	callstack 0
   337                           
   338                           ; 1 bytes @ 0x44
   339  0000A4                     	ds	1
   340  0000A5                     ??_Temp:
   341                           
   342                           ; 1 bytes @ 0x45
   343  0000A5                     	ds	4
   344  0000A9                     Temp@tempt:
   345                           	callstack 0
   346                           
   347                           ; 4 bytes @ 0x49
   348  0000A9                     	ds	4
   349  0000AD                     Temp@temp:
   350                           	callstack 0
   351                           
   352                           ; 4 bytes @ 0x4D
   353  0000AD                     	ds	4
   354  0000B1                     ??_main:
   355                           
   356                           ; 1 bytes @ 0x51
   357  0000B1                     	ds	2
   358  0000B3                     main@j:
   359                           	callstack 0
   360                           
   361                           ; 2 bytes @ 0x53
   362  0000B3                     	ds	2
   363  0000B5                     main@i:
   364                           	callstack 0
   365                           
   366                           ; 2 bytes @ 0x55
   367  0000B5                     	ds	2
   368  0000B7                     main@i_647:
   369                           	callstack 0
   370                           
   371                           ; 2 bytes @ 0x57
   372  0000B7                     	ds	2
   373                           
   374                           	psect	cstackCOMRAM
   375  000001                     __pcstackCOMRAM:
   376                           	callstack 0
   377  000001                     ?i2___fladd:
   378                           	callstack 0
   379  000001                     ?i2___xxtofl:
   380                           	callstack 0
   381  000001                     i2und@x:
   382                           	callstack 0
   383  000001                     i2dec@y:
   384                           	callstack 0
   385  000001                     i2___flge@ff1:
   386                           	callstack 0
   387  000001                     i2___fladd@b:
   388                           	callstack 0
   389  000001                     i2___xxtofl@val:
   390                           	callstack 0
   391                           
   392                           ; 4 bytes @ 0x0
   393  000001                     	ds	2
   394  000003                     
   395                           ; 1 bytes @ 0x2
   396  000003                     	ds	2
   397  000005                     ??i2___xxtofl:
   398  000005                     i2___flge@ff2:
   399                           	callstack 0
   400  000005                     i2___fladd@a:
   401                           	callstack 0
   402                           
   403                           ; 4 bytes @ 0x4
   404  000005                     	ds	4
   405  000009                     ??i2___flge:
   406  000009                     ??i2___fladd:
   407  000009                     i2___xxtofl@sign:
   408                           	callstack 0
   409                           
   410                           ; 1 bytes @ 0x8
   411  000009                     	ds	1
   412  00000A                     i2___xxtofl@exp:
   413                           	callstack 0
   414                           
   415                           ; 1 bytes @ 0x9
   416  00000A                     	ds	1
   417  00000B                     i2___xxtofl@arg:
   418                           	callstack 0
   419                           
   420                           ; 4 bytes @ 0xA
   421  00000B                     	ds	2
   422  00000D                     i2___fladd@signs:
   423                           	callstack 0
   424                           
   425                           ; 1 bytes @ 0xC
   426  00000D                     	ds	1
   427  00000E                     i2___fladd@aexp:
   428                           	callstack 0
   429                           
   430                           ; 1 bytes @ 0xD
   431  00000E                     	ds	1
   432  00000F                     i2___fladd@bexp:
   433                           	callstack 0
   434                           
   435                           ; 1 bytes @ 0xE
   436  00000F                     	ds	1
   437  000010                     i2___fladd@grs:
   438                           	callstack 0
   439                           
   440                           ; 1 bytes @ 0xF
   441  000010                     	ds	1
   442  000011                     ?i2___flmul:
   443                           	callstack 0
   444  000011                     i2___flmul@b:
   445                           	callstack 0
   446                           
   447                           ; 4 bytes @ 0x10
   448  000011                     	ds	4
   449  000015                     i2___flmul@a:
   450                           	callstack 0
   451                           
   452                           ; 4 bytes @ 0x14
   453  000015                     	ds	4
   454  000019                     ??i2___flmul:
   455                           
   456                           ; 1 bytes @ 0x18
   457  000019                     	ds	4
   458  00001D                     i2___flmul@sign:
   459                           	callstack 0
   460                           
   461                           ; 1 bytes @ 0x1C
   462  00001D                     	ds	1
   463  00001E                     i2___flmul@grs:
   464                           	callstack 0
   465                           
   466                           ; 4 bytes @ 0x1D
   467  00001E                     	ds	4
   468  000022                     i2___flmul@aexp:
   469                           	callstack 0
   470                           
   471                           ; 1 bytes @ 0x21
   472  000022                     	ds	1
   473  000023                     i2___flmul@bexp:
   474                           	callstack 0
   475                           
   476                           ; 1 bytes @ 0x22
   477  000023                     	ds	1
   478  000024                     i2___flmul@prod:
   479                           	callstack 0
   480                           
   481                           ; 4 bytes @ 0x23
   482  000024                     	ds	4
   483  000028                     i2___flmul@temp:
   484                           	callstack 0
   485                           
   486                           ; 2 bytes @ 0x27
   487  000028                     	ds	2
   488  00002A                     ?i2___fldiv:
   489                           	callstack 0
   490  00002A                     i2___fldiv@b:
   491                           	callstack 0
   492                           
   493                           ; 4 bytes @ 0x29
   494  00002A                     	ds	4
   495  00002E                     i2___fldiv@a:
   496                           	callstack 0
   497                           
   498                           ; 4 bytes @ 0x2D
   499  00002E                     	ds	4
   500  000032                     ??i2___fldiv:
   501                           
   502                           ; 1 bytes @ 0x31
   503  000032                     	ds	4
   504  000036                     i2___fldiv@rem:
   505                           	callstack 0
   506                           
   507                           ; 4 bytes @ 0x35
   508  000036                     	ds	4
   509  00003A                     i2___fldiv@sign:
   510                           	callstack 0
   511                           
   512                           ; 1 bytes @ 0x39
   513  00003A                     	ds	1
   514  00003B                     i2___fldiv@new_exp:
   515                           	callstack 0
   516                           
   517                           ; 2 bytes @ 0x3A
   518  00003B                     	ds	2
   519  00003D                     i2___fldiv@grs:
   520                           	callstack 0
   521                           
   522                           ; 4 bytes @ 0x3C
   523  00003D                     	ds	4
   524  000041                     i2___fldiv@bexp:
   525                           	callstack 0
   526                           
   527                           ; 1 bytes @ 0x40
   528  000041                     	ds	1
   529  000042                     i2___fldiv@aexp:
   530                           	callstack 0
   531                           
   532                           ; 1 bytes @ 0x41
   533  000042                     	ds	1
   534  000043                     ??i2_Temp:
   535                           
   536                           ; 1 bytes @ 0x42
   537  000043                     	ds	4
   538  000047                     i2Temp@tempt:
   539                           	callstack 0
   540                           
   541                           ; 4 bytes @ 0x46
   542  000047                     	ds	4
   543  00004B                     i2Temp@temp:
   544                           	callstack 0
   545                           
   546                           ; 4 bytes @ 0x4A
   547  00004B                     	ds	4
   548  00004F                     ??_ISR_EX0_1:
   549                           
   550                           ; 1 bytes @ 0x4E
   551  00004F                     	ds	4
   552  000053                     ISR_EX0_1@i_729:
   553                           	callstack 0
   554                           
   555                           ; 2 bytes @ 0x52
   556  000053                     	ds	2
   557  000055                     ISR_EX0_1@i:
   558                           	callstack 0
   559                           
   560                           ; 2 bytes @ 0x54
   561  000055                     	ds	2
   562                           
   563 ;;
   564 ;;Main: autosize = 0, tempsize = 2, incstack = 0, save=0
   565 ;;
   566 ;; *************** function _main *****************
   567 ;; Defined at:
   568 ;;		line 27 in file "Programacion.c"
   569 ;; Parameters:    Size  Location     Type
   570 ;;		None
   571 ;; Auto vars:     Size  Location     Type
   572 ;;  i               2   87[BANK0 ] int 
   573 ;;  i               2   85[BANK0 ] int 
   574 ;;  j               2   83[BANK0 ] int 
   575 ;; Return value:  Size  Location     Type
   576 ;;                  1    wreg      void 
   577 ;; Registers used:
   578 ;;		wreg, status,2, status,0, prodl, prodh, cstack
   579 ;; Tracked objects:
   580 ;;		On entry : 0/0
   581 ;;		On exit  : 0/0
   582 ;;		Unchanged: 0/0
   583 ;; Data sizes:     COMRAM   BANK0   BANK1   BANK2   BANK3   BANK4   BANK5   BANK6   BANK7
   584 ;;      Params:         0       0       0       0       0       0       0       0       0
   585 ;;      Locals:         0       6       0       0       0       0       0       0       0
   586 ;;      Temps:          0       2       0       0       0       0       0       0       0
   587 ;;      Totals:         0       8       0       0       0       0       0       0       0
   588 ;;Total ram usage:        8 bytes
   589 ;; Hardware stack levels required when called:    6
   590 ;; This function calls:
   591 ;;		_Configuracion_Registros
   592 ;;		_Temp
   593 ;;		_dec
   594 ;;		_und
   595 ;; This function is called by:
   596 ;;		Startup code after reset
   597 ;; This function uses a non-reentrant model
   598 ;;
   599                           
   600                           	psect	text0
   601  001AF2                     __ptext0:
   602                           	callstack 0
   603  001AF2                     _main:
   604                           	callstack 25
   605  001AF2                     
   606                           ;Programacion.c: 29:     while (1)
   607  001AF2  0E09               	movlw	9
   608  001AF4  6E92               	movwf	146,c	;volatile
   609  001AF6                     
   610                           ;Programacion.c: 30:     {
   611  001AF6  6893               	setf	147,c	;volatile
   612                           
   613                           ;Programacion.c: 31:         PORTC=6;
   614  001AF8  0E00               	movlw	0
   615  001AFA  6E94               	movwf	148,c	;volatile
   616                           
   617                           ;Programacion.c: 32:         PORTC=5;
   618  001AFC  0E00               	movlw	0
   619  001AFE  6E95               	movwf	149,c	;volatile
   620                           
   621                           ;Programacion.c: 33:         PORTC=3;
   622  001B00  0E08               	movlw	8
   623  001B02  6E96               	movwf	150,c	;volatile
   624                           
   625                           ;Programacion.c: 34:         Temp ();
   626  001B04  0E00               	movlw	0
   627  001B06  6E80               	movwf	128,c	;volatile
   628                           
   629                           ;Programacion.c: 35:         switch (opc)
   630  001B08  0E00               	movlw	0
   631  001B0A  6E81               	movwf	129,c	;volatile
   632                           
   633                           ;Programacion.c: 36:         {
   634  001B0C  0E00               	movlw	0
   635  001B0E  6E82               	movwf	130,c	;volatile
   636                           
   637                           ;Programacion.c: 37:             case '*':
   638  001B10  0E00               	movlw	0
   639  001B12  6E83               	movwf	131,c	;volatile
   640                           
   641                           ;Programacion.c: 38:             {
   642  001B14  0E00               	movlw	0
   643  001B16  6E84               	movwf	132,c	;volatile
   644  001B18                     
   645                           ;Programacion.c: 40:                 PORTDbits.RD6=1;
   646  001B18  ECA4  F015         	call	_Configuracion_Registros	;wreg free
   647  001B1C                     l3721:
   648                           
   649                           ;Programacion.c: 43:                     dec (j);;Programacion.c: 44:                   
      +                            if (cont==0)
   650  001B1C  0E06               	movlw	6
   651  001B1E  6E82               	movwf	130,c	;volatile
   652  001B20                     
   653                           ;Programacion.c: 45:                     {
   654  001B20  0E05               	movlw	5
   655  001B22  6E82               	movwf	130,c	;volatile
   656  001B24                     
   657                           ;Programacion.c: 46:                         for (int i = Nact; i>=0; i--)
   658  001B24  0E03               	movlw	3
   659  001B26  6E82               	movwf	130,c	;volatile
   660  001B28                     
   661                           ;Programacion.c: 47:                         {
   662  001B28  EC7C  F013         	call	_Temp	;wreg free
   663                           
   664                           ;Programacion.c: 48:                             und (i);
   665  001B2C  EF68  F00E         	goto	l3801
   666  001B30                     l83:
   667                           
   668                           ; BSR set to: 0
   669                           ;Programacion.c: 51:                         cont=1;;Programacion.c: 52:                
      +                               }
   670  001B30  9A83               	bcf	131,5,c	;volatile
   671                           
   672                           ;Programacion.c: 53:                     else
   673  001B32  8C83               	bsf	131,6,c	;volatile
   674                           
   675                           ;Programacion.c: 54:                     {
   676  001B34  C0C3  F0B3         	movff	_Nant,main@j
   677  001B38  C0C4  F0B4         	movff	_Nant+1,main@j+1
   678  001B3C                     l3729:
   679                           
   680                           ; BSR set to: 0
   681  001B3C  BFB4               	btfsc	(main@j+1)& (0+255),7,b
   682  001B3E  EFA5  F00D         	goto	u5080
   683  001B42  EFA3  F00D         	goto	u5081
   684  001B46                     u5081:
   685  001B46  EFA7  F00D         	goto	l3733
   686  001B4A                     u5080:
   687  001B4A  EF0E  F00E         	goto	l3773
   688  001B4E                     l3733:
   689                           
   690                           ; BSR set to: 0
   691                           ;Programacion.c: 55:                     for (int i=9; i>=0; i--);Programacion.c: 56:   
      +                                                {
   692  001B4E  C0B3  F063         	movff	main@j,dec@y
   693  001B52  C0B4  F064         	movff	main@j+1,dec@y+1
   694  001B56  EC9E  F011         	call	_dec	;wreg free
   695  001B5A                     
   696                           ;Programacion.c: 57:                             und (i);
   697  001B5A  0100               	movlb	0	; () banked
   698  001B5C  51BB               	movf	_cont& (0+255),w,b
   699  001B5E  11BC               	iorwf	(_cont+1)& (0+255),w,b
   700  001B60  A4D8               	btfss	status,2,c
   701  001B62  EFB5  F00D         	goto	u5091
   702  001B66  EFB7  F00D         	goto	u5090
   703  001B6A                     u5091:
   704  001B6A  EFE3  F00D         	goto	l3753
   705  001B6E                     u5090:
   706  001B6E                     
   707                           ; BSR set to: 0
   708                           ;Programacion.c: 58:                             Nact=i;;Programacion.c: 59:            
      +                                           _delay((unsigned long)((1000)*(4000000/4000.0)));
   709  001B6E  C0C1  F0B5         	movff	_Nact,main@i
   710  001B72  C0C2  F0B6         	movff	_Nact+1,main@i+1
   711  001B76                     l3739:
   712                           
   713                           ; BSR set to: 0
   714  001B76  BFB6               	btfsc	(main@i+1)& (0+255),7,b
   715  001B78  EFC2  F00D         	goto	u5100
   716  001B7C  EFC0  F00D         	goto	u5101
   717  001B80                     u5101:
   718  001B80  EFC4  F00D         	goto	l3743
   719  001B84                     u5100:
   720  001B84  EFDD  F00D         	goto	l3751
   721  001B88                     l3743:
   722                           
   723                           ; BSR set to: 0
   724                           ;Programacion.c: 60: ;Programacion.c: 61:                         }
   725  001B88  C0B5  F063         	movff	main@i,und@x
   726  001B8C  C0B6  F064         	movff	main@i+1,und@x+1
   727  001B90  ECFE  F010         	call	_und	;wreg free
   728  001B94                     
   729                           ;Programacion.c: 62: 
   730  001B94  0E06               	movlw	6
   731  001B96  0100               	movlb	0	; () banked
   732  001B98  6FB2               	movwf	(??_main+1)& (0+255),b
   733  001B9A  0E13               	movlw	19
   734  001B9C  6FB1               	movwf	??_main& (0+255),b
   735  001B9E  0EAD               	movlw	173
   736  001BA0                     u5437:
   737  001BA0  2EE8               	decfsz	wreg,f,c
   738  001BA2  D7FE               	bra	u5437
   739  001BA4  2FB1               	decfsz	??_main& (0+255),f,b
   740  001BA6  D7FC               	bra	u5437
   741  001BA8  2FB2               	decfsz	(??_main+1)& (0+255),f,b
   742  001BAA  D7FA               	bra	u5437
   743  001BAC  D000               	nop2	
   744  001BAE                     
   745                           ;Programacion.c: 63:                     }
   746  001BAE  0100               	movlb	0	; () banked
   747  001BB0  07B5               	decf	main@i& (0+255),f,b
   748  001BB2  A0D8               	btfss	status,0,c
   749  001BB4  07B6               	decf	(main@i+1)& (0+255),f,b
   750  001BB6  EFBB  F00D         	goto	l3739
   751  001BBA                     l3751:
   752                           
   753                           ; BSR set to: 0
   754                           ;Programacion.c: 64: 
   755  001BBA  0E00               	movlw	0
   756  001BBC  6FBC               	movwf	(_cont+1)& (0+255),b
   757  001BBE  0E01               	movlw	1
   758  001BC0  6FBB               	movwf	_cont& (0+255),b
   759                           
   760                           ;Programacion.c: 65:                 }
   761  001BC2  EF09  F00E         	goto	l3769
   762  001BC6                     l3753:
   763                           
   764                           ; BSR set to: 0
   765                           ;Programacion.c: 67:                 Nant=0;;Programacion.c: 68:                 Nact=0;
   766  001BC6  0E00               	movlw	0
   767  001BC8  6FB8               	movwf	(main@i_647+1)& (0+255),b
   768  001BCA  0E09               	movlw	9
   769  001BCC  6FB7               	movwf	main@i_647& (0+255),b
   770  001BCE                     l3759:
   771                           
   772                           ; BSR set to: 0
   773                           ;Programacion.c: 69:                 num=0;;Programacion.c: 70:                 cont1=0;
   774  001BCE  C0B7  F063         	movff	main@i_647,und@x
   775  001BD2  C0B8  F064         	movff	main@i_647+1,und@x+1
   776  001BD6  ECFE  F010         	call	_und	;wreg free
   777  001BDA                     
   778                           ;Programacion.c: 71:                 PORTDbits.RD6=0;
   779  001BDA  C0B7  F0C1         	movff	main@i_647,_Nact
   780  001BDE  C0B8  F0C2         	movff	main@i_647+1,_Nact+1
   781  001BE2                     
   782                           ;Programacion.c: 72:                 opc='0';
   783  001BE2  0E06               	movlw	6
   784  001BE4  0100               	movlb	0	; () banked
   785  001BE6  6FB2               	movwf	(??_main+1)& (0+255),b
   786  001BE8  0E13               	movlw	19
   787  001BEA  6FB1               	movwf	??_main& (0+255),b
   788  001BEC  0EAD               	movlw	173
   789  001BEE                     u5447:
   790  001BEE  2EE8               	decfsz	wreg,f,c
   791  001BF0  D7FE               	bra	u5447
   792  001BF2  2FB1               	decfsz	??_main& (0+255),f,b
   793  001BF4  D7FC               	bra	u5447
   794  001BF6  2FB2               	decfsz	(??_main+1)& (0+255),f,b
   795  001BF8  D7FA               	bra	u5447
   796  001BFA  D000               	nop2	
   797  001BFC                     
   798                           ;Programacion.c: 74:             }
   799  001BFC  0100               	movlb	0	; () banked
   800  001BFE  07B7               	decf	main@i_647& (0+255),f,b
   801  001C00  A0D8               	btfss	status,0,c
   802  001C02  07B8               	decf	(main@i_647+1)& (0+255),f,b
   803  001C04                     
   804                           ; BSR set to: 0
   805  001C04  BFB8               	btfsc	(main@i_647+1)& (0+255),7,b
   806  001C06  EF09  F00E         	goto	u5110
   807  001C0A  EF07  F00E         	goto	u5111
   808  001C0E                     u5111:
   809  001C0E  EFE7  F00D         	goto	l3759
   810  001C12                     u5110:
   811  001C12                     l3769:
   812                           
   813                           ; BSR set to: 0
   814                           ;Programacion.c: 78:                 {
   815  001C12  07B3               	decf	main@j& (0+255),f,b
   816  001C14  A0D8               	btfss	status,0,c
   817  001C16  07B4               	decf	(main@j+1)& (0+255),f,b
   818  001C18  EF9E  F00D         	goto	l3729
   819  001C1C                     l3773:
   820                           
   821                           ; BSR set to: 0
   822                           ;Programacion.c: 79:                     x=num;
   823  001C1C  0E00               	movlw	0
   824  001C1E  6FBC               	movwf	(_cont+1)& (0+255),b
   825  001C20  0E00               	movlw	0
   826  001C22  6FBB               	movwf	_cont& (0+255),b
   827                           
   828                           ;Programacion.c: 80:                     Nact=x;
   829  001C24  0E00               	movlw	0
   830  001C26  6FC4               	movwf	(_Nant+1)& (0+255),b
   831  001C28  0E00               	movlw	0
   832  001C2A  6FC3               	movwf	_Nant& (0+255),b
   833                           
   834                           ;Programacion.c: 81:                     und (Nact);
   835  001C2C  0E00               	movlw	0
   836  001C2E  6FC2               	movwf	(_Nact+1)& (0+255),b
   837  001C30  0E00               	movlw	0
   838  001C32  6FC1               	movwf	_Nact& (0+255),b
   839                           
   840                           ;Programacion.c: 82:                     y=Nact;
   841  001C34  0E00               	movlw	0
   842  001C36  6FC6               	movwf	(_num+1)& (0+255),b
   843  001C38  0E00               	movlw	0
   844  001C3A  6FC5               	movwf	_num& (0+255),b
   845                           
   846                           ;Programacion.c: 83:                     cont1++;
   847  001C3C  0E00               	movlw	0
   848  001C3E  6FBA               	movwf	(_cont1+1)& (0+255),b
   849  001C40  0E00               	movlw	0
   850  001C42  6FB9               	movwf	_cont1& (0+255),b
   851  001C44                     
   852                           ; BSR set to: 0
   853                           ;Programacion.c: 84:                 }
   854  001C44  9C83               	bcf	131,6,c	;volatile
   855                           
   856                           ;Programacion.c: 85:                 else if (cont1%2==1)
   857  001C46  0E30               	movlw	48
   858  001C48  6FC7               	movwf	_opc& (0+255),b
   859                           
   860                           ;Programacion.c: 86:                 {
   861  001C4A  EF8E  F00D         	goto	l3721
   862  001C4E                     l3777:
   863                           
   864                           ; BSR set to: 0
   865                           ;Programacion.c: 89:                     x=num;;Programacion.c: 90:                     
      +                          Nact=num;
   866  001C4E  05B9               	decf	_cont1& (0+255),w,b
   867  001C50  11BA               	iorwf	(_cont1+1)& (0+255),w,b
   868  001C52  A4D8               	btfss	status,2,c
   869  001C54  EF2E  F00E         	goto	u5121
   870  001C58  EF30  F00E         	goto	u5120
   871  001C5C                     u5121:
   872  001C5C  EF47  F00E         	goto	l94
   873  001C60                     u5120:
   874  001C60                     
   875                           ; BSR set to: 0
   876                           ;Programacion.c: 91:                     und (Nact);;Programacion.c: 92:                
      +                               y=Nact;
   877  001C60  C0C5  F0BF         	movff	_num,_x
   878  001C64  C0C6  F0C0         	movff	_num+1,_x+1
   879                           
   880                           ;Programacion.c: 93:                     cont1++;
   881  001C68  C0BF  F0C1         	movff	_x,_Nact
   882  001C6C  C0C0  F0C2         	movff	_x+1,_Nact+1
   883  001C70                     
   884                           ; BSR set to: 0
   885                           ;Programacion.c: 94:                 }
   886  001C70  C0C1  F063         	movff	_Nact,und@x
   887  001C74  C0C2  F064         	movff	_Nact+1,und@x+1
   888  001C78  ECFE  F010         	call	_und	;wreg free
   889  001C7C                     l3783:
   890                           
   891                           ;Programacion.c: 95:                 break;
   892  001C7C  C0C1  F0BD         	movff	_Nact,_y
   893  001C80  C0C2  F0BE         	movff	_Nact+1,_y+1
   894  001C84                     
   895                           ;Programacion.c: 96:             }
   896  001C84  0100               	movlb	0	; () banked
   897  001C86  4BB9               	infsnz	_cont1& (0+255),f,b
   898  001C88  2BBA               	incf	(_cont1+1)& (0+255),f,b
   899                           
   900                           ;Programacion.c: 97:             opc='A';
   901  001C8A  EF8E  F00D         	goto	l3721
   902  001C8E                     l94:
   903                           
   904                           ; BSR set to: 0
   905  001C8E  A1B9               	btfss	_cont1& (0+255),0,b
   906  001C90  EF4C  F00E         	goto	u5131
   907  001C94  EF4E  F00E         	goto	u5130
   908  001C98                     u5131:
   909  001C98  EF7A  F00E         	goto	l92
   910  001C9C                     u5130:
   911  001C9C                     
   912                           ; BSR set to: 0
   913                           ;Programacion.c: 99:     };Programacion.c: 100:     return;
   914  001C9C  C0BD  F0C3         	movff	_y,_Nant
   915  001CA0  C0BE  F0C4         	movff	_y+1,_Nant+1
   916  001CA4                     
   917                           ; BSR set to: 0
   918                           ;Programacion.c: 101: }
   919  001CA4  C0C3  F063         	movff	_Nant,dec@y
   920  001CA8  C0C4  F064         	movff	_Nant+1,dec@y+1
   921  001CAC  EC9E  F011         	call	_dec	;wreg free
   922  001CB0                     
   923                           ;Programacion.c: 102: void Configuracion_Registros (void)
   924  001CB0  C0C5  F0BF         	movff	_num,_x
   925  001CB4  C0C6  F0C0         	movff	_num+1,_x+1
   926  001CB8                     
   927                           ;Programacion.c: 103: {
   928  001CB8  C0C5  F0C1         	movff	_num,_Nact
   929  001CBC  C0C6  F0C2         	movff	_num+1,_Nact+1
   930                           
   931                           ;Programacion.c: 104:     ADCON0=0;
   932  001CC0  C0C1  F063         	movff	_Nact,und@x
   933  001CC4  C0C2  F064         	movff	_Nact+1,und@x+1
   934  001CC8  ECFE  F010         	call	_und	;wreg free
   935  001CCC  EF3E  F00E         	goto	l3783
   936  001CD0                     l3801:
   937  001CD0  0100               	movlb	0	; () banked
   938  001CD2  51C7               	movf	_opc& (0+255),w,b
   939  001CD4  6FB1               	movwf	??_main& (0+255),b
   940  001CD6  6BB2               	clrf	(??_main+1)& (0+255),b
   941                           
   942                           ; Switch on 2 bytes has been partitioned into a top level switch of size 1, and 1 sub-sw
      +                          itches
   943                           ; Switch size 1, requested type "simple"
   944                           ; Number of cases is 1, Range of values is 0 to 0
   945                           ; switch strategies available:
   946                           ; Name         Instructions Cycles
   947                           ; simple_byte            4     3 (average)
   948                           ;	Chosen strategy is simple_byte
   949  001CD8  51B2               	movf	(??_main+1)& (0+255),w,b
   950  001CDA  0A00               	xorlw	0	; case 0
   951  001CDC  B4D8               	btfsc	status,2,c
   952  001CDE  EF73  F00E         	goto	l3955
   953  001CE2  EF27  F00E         	goto	l3777
   954  001CE6                     l3955:
   955                           
   956                           ; BSR set to: 0
   957                           ; Switch size 1, requested type "simple"
   958                           ; Number of cases is 1, Range of values is 42 to 42
   959                           ; switch strategies available:
   960                           ; Name         Instructions Cycles
   961                           ; simple_byte            4     3 (average)
   962                           ;	Chosen strategy is simple_byte
   963  001CE6  51B1               	movf	??_main& (0+255),w,b
   964  001CE8  0A2A               	xorlw	42	; case 42
   965  001CEA  B4D8               	btfsc	status,2,c
   966  001CEC  EF98  F00D         	goto	l83
   967  001CF0  EF27  F00E         	goto	l3777
   968  001CF4                     l92:
   969                           
   970                           ; BSR set to: 0
   971  001CF4  EF8E  F00D         	goto	l3721
   972  001CF8  EFF0  F000         	goto	start
   973  001CFC                     __end_of_main:
   974                           	callstack 0
   975                           
   976 ;; *************** function _und *****************
   977 ;; Defined at:
   978 ;;		line 165 in file "Programacion.c"
   979 ;; Parameters:    Size  Location     Type
   980 ;;  x               2    3[BANK0 ] int 
   981 ;; Auto vars:     Size  Location     Type
   982 ;;		None
   983 ;; Return value:  Size  Location     Type
   984 ;;                  1    wreg      void 
   985 ;; Registers used:
   986 ;;		wreg, status,2, status,0
   987 ;; Tracked objects:
   988 ;;		On entry : 0/0
   989 ;;		On exit  : 0/0
   990 ;;		Unchanged: 0/0
   991 ;; Data sizes:     COMRAM   BANK0   BANK1   BANK2   BANK3   BANK4   BANK5   BANK6   BANK7
   992 ;;      Params:         0       2       0       0       0       0       0       0       0
   993 ;;      Locals:         0       0       0       0       0       0       0       0       0
   994 ;;      Temps:          0       0       0       0       0       0       0       0       0
   995 ;;      Totals:         0       2       0       0       0       0       0       0       0
   996 ;;Total ram usage:        2 bytes
   997 ;; Hardware stack levels used:    1
   998 ;; Hardware stack levels required when called:    4
   999 ;; This function calls:
  1000 ;;		Nothing
  1001 ;; This function is called by:
  1002 ;;		_main
  1003 ;; This function uses a non-reentrant model
  1004 ;;
  1005                           
  1006                           	psect	text1
  1007  0021FC                     __ptext1:
  1008                           	callstack 0
  1009  0021FC                     _und:
  1010                           	callstack 26
  1011  0021FC                     
  1012                           ;Programacion.c: 165:         PORTDbits.RD2=0;;Programacion.c: 166:         PORTDbits.RD
      +                          3=0;;Programacion.c: 167:     }
  1013  0021FC  0100               	movlb	0	; () banked
  1014  0021FE  5163               	movf	und@x& (0+255),w,b
  1015  002200  1164               	iorwf	(und@x+1)& (0+255),w,b
  1016  002202  A4D8               	btfss	status,2,c
  1017  002204  EF06  F011         	goto	u4761
  1018  002208  EF08  F011         	goto	u4760
  1019  00220C                     u4761:
  1020  00220C  EF0E  F011         	goto	l3587
  1021  002210                     u4760:
  1022  002210                     
  1023                           ; BSR set to: 0
  1024                           ;Programacion.c: 168:     else if (x==2);Programacion.c: 169:     {
  1025  002210  9083               	bcf	131,0,c	;volatile
  1026                           
  1027                           ;Programacion.c: 170:         PORTDbits.RD0=0;
  1028  002212  9283               	bcf	131,1,c	;volatile
  1029                           
  1030                           ;Programacion.c: 171:         PORTDbits.RD1=1;
  1031  002214  9483               	bcf	131,2,c	;volatile
  1032                           
  1033                           ;Programacion.c: 172:         PORTDbits.RD2=0;
  1034  002216  9683               	bcf	131,3,c	;volatile
  1035                           
  1036                           ;Programacion.c: 173:         PORTDbits.RD3=0;
  1037  002218  EF9D  F011         	goto	l132
  1038  00221C                     l3587:
  1039                           
  1040                           ; BSR set to: 0
  1041  00221C  0563               	decf	und@x& (0+255),w,b
  1042  00221E  1164               	iorwf	(und@x+1)& (0+255),w,b
  1043  002220  A4D8               	btfss	status,2,c
  1044  002222  EF15  F011         	goto	u4771
  1045  002226  EF17  F011         	goto	u4770
  1046  00222A                     u4771:
  1047  00222A  EF1D  F011         	goto	l3591
  1048  00222E                     u4770:
  1049  00222E                     
  1050                           ; BSR set to: 0
  1051                           ;Programacion.c: 175:     else if (x==3);Programacion.c: 176:     {
  1052  00222E  8083               	bsf	131,0,c	;volatile
  1053                           
  1054                           ;Programacion.c: 177:         PORTDbits.RD0=1;
  1055  002230  9283               	bcf	131,1,c	;volatile
  1056                           
  1057                           ;Programacion.c: 178:         PORTDbits.RD1=1;
  1058  002232  9483               	bcf	131,2,c	;volatile
  1059                           
  1060                           ;Programacion.c: 179:         PORTDbits.RD2=0;
  1061  002234  9683               	bcf	131,3,c	;volatile
  1062                           
  1063                           ;Programacion.c: 180:         PORTDbits.RD3=0;
  1064  002236  EF9D  F011         	goto	l132
  1065  00223A                     l3591:
  1066                           
  1067                           ; BSR set to: 0
  1068  00223A  0E02               	movlw	2
  1069  00223C  1963               	xorwf	und@x& (0+255),w,b
  1070  00223E  1164               	iorwf	(und@x+1)& (0+255),w,b
  1071  002240  A4D8               	btfss	status,2,c
  1072  002242  EF25  F011         	goto	u4781
  1073  002246  EF27  F011         	goto	u4780
  1074  00224A                     u4781:
  1075  00224A  EF2D  F011         	goto	l3595
  1076  00224E                     u4780:
  1077  00224E                     
  1078                           ; BSR set to: 0
  1079                           ;Programacion.c: 182:     else if (x==4);Programacion.c: 183:     {
  1080  00224E  9083               	bcf	131,0,c	;volatile
  1081                           
  1082                           ;Programacion.c: 184:         PORTDbits.RD0=0;
  1083  002250  8283               	bsf	131,1,c	;volatile
  1084                           
  1085                           ;Programacion.c: 185:         PORTDbits.RD1=0;
  1086  002252  9483               	bcf	131,2,c	;volatile
  1087                           
  1088                           ;Programacion.c: 186:         PORTDbits.RD2=1;
  1089  002254  9683               	bcf	131,3,c	;volatile
  1090                           
  1091                           ;Programacion.c: 187:         PORTDbits.RD3=0;
  1092  002256  EF9D  F011         	goto	l132
  1093  00225A                     l3595:
  1094                           
  1095                           ; BSR set to: 0
  1096  00225A  0E03               	movlw	3
  1097  00225C  1963               	xorwf	und@x& (0+255),w,b
  1098  00225E  1164               	iorwf	(und@x+1)& (0+255),w,b
  1099  002260  A4D8               	btfss	status,2,c
  1100  002262  EF35  F011         	goto	u4791
  1101  002266  EF37  F011         	goto	u4790
  1102  00226A                     u4791:
  1103  00226A  EF3D  F011         	goto	l3599
  1104  00226E                     u4790:
  1105  00226E                     
  1106                           ; BSR set to: 0
  1107                           ;Programacion.c: 189:     else if (x==5);Programacion.c: 190:     {
  1108  00226E  8083               	bsf	131,0,c	;volatile
  1109                           
  1110                           ;Programacion.c: 191:         PORTDbits.RD0=1;
  1111  002270  8283               	bsf	131,1,c	;volatile
  1112                           
  1113                           ;Programacion.c: 192:         PORTDbits.RD1=0;
  1114  002272  9483               	bcf	131,2,c	;volatile
  1115                           
  1116                           ;Programacion.c: 193:         PORTDbits.RD2=1;
  1117  002274  9683               	bcf	131,3,c	;volatile
  1118                           
  1119                           ;Programacion.c: 194:         PORTDbits.RD3=0;
  1120  002276  EF9D  F011         	goto	l132
  1121  00227A                     l3599:
  1122                           
  1123                           ; BSR set to: 0
  1124  00227A  0E04               	movlw	4
  1125  00227C  1963               	xorwf	und@x& (0+255),w,b
  1126  00227E  1164               	iorwf	(und@x+1)& (0+255),w,b
  1127  002280  A4D8               	btfss	status,2,c
  1128  002282  EF45  F011         	goto	u4801
  1129  002286  EF47  F011         	goto	u4800
  1130  00228A                     u4801:
  1131  00228A  EF4D  F011         	goto	l3603
  1132  00228E                     u4800:
  1133  00228E                     
  1134                           ; BSR set to: 0
  1135                           ;Programacion.c: 196:     else if (x==6);Programacion.c: 197:     {
  1136  00228E  9083               	bcf	131,0,c	;volatile
  1137                           
  1138                           ;Programacion.c: 198:         PORTDbits.RD0=0;
  1139  002290  9283               	bcf	131,1,c	;volatile
  1140                           
  1141                           ;Programacion.c: 199:         PORTDbits.RD1=1;
  1142  002292  8483               	bsf	131,2,c	;volatile
  1143                           
  1144                           ;Programacion.c: 200:         PORTDbits.RD2=1;
  1145  002294  9683               	bcf	131,3,c	;volatile
  1146                           
  1147                           ;Programacion.c: 201:         PORTDbits.RD3=0;
  1148  002296  EF9D  F011         	goto	l132
  1149  00229A                     l3603:
  1150                           
  1151                           ; BSR set to: 0
  1152  00229A  0E05               	movlw	5
  1153  00229C  1963               	xorwf	und@x& (0+255),w,b
  1154  00229E  1164               	iorwf	(und@x+1)& (0+255),w,b
  1155  0022A0  A4D8               	btfss	status,2,c
  1156  0022A2  EF55  F011         	goto	u4811
  1157  0022A6  EF57  F011         	goto	u4810
  1158  0022AA                     u4811:
  1159  0022AA  EF5D  F011         	goto	l3607
  1160  0022AE                     u4810:
  1161  0022AE                     
  1162                           ; BSR set to: 0
  1163                           ;Programacion.c: 203:     else if (x==7);Programacion.c: 204:     {
  1164  0022AE  8083               	bsf	131,0,c	;volatile
  1165                           
  1166                           ;Programacion.c: 205:         PORTDbits.RD0=1;
  1167  0022B0  9283               	bcf	131,1,c	;volatile
  1168                           
  1169                           ;Programacion.c: 206:         PORTDbits.RD1=1;
  1170  0022B2  8483               	bsf	131,2,c	;volatile
  1171                           
  1172                           ;Programacion.c: 207:         PORTDbits.RD2=1;
  1173  0022B4  9683               	bcf	131,3,c	;volatile
  1174                           
  1175                           ;Programacion.c: 208:         PORTDbits.RD3=0;
  1176  0022B6  EF9D  F011         	goto	l132
  1177  0022BA                     l3607:
  1178                           
  1179                           ; BSR set to: 0
  1180  0022BA  0E06               	movlw	6
  1181  0022BC  1963               	xorwf	und@x& (0+255),w,b
  1182  0022BE  1164               	iorwf	(und@x+1)& (0+255),w,b
  1183  0022C0  A4D8               	btfss	status,2,c
  1184  0022C2  EF65  F011         	goto	u4821
  1185  0022C6  EF67  F011         	goto	u4820
  1186  0022CA                     u4821:
  1187  0022CA  EF6D  F011         	goto	l3611
  1188  0022CE                     u4820:
  1189  0022CE                     
  1190                           ; BSR set to: 0
  1191                           ;Programacion.c: 210:     else if (x==8);Programacion.c: 211:     {
  1192  0022CE  9083               	bcf	131,0,c	;volatile
  1193                           
  1194                           ;Programacion.c: 212:         PORTDbits.RD0=0;
  1195  0022D0  8283               	bsf	131,1,c	;volatile
  1196                           
  1197                           ;Programacion.c: 213:         PORTDbits.RD1=0;
  1198  0022D2  8483               	bsf	131,2,c	;volatile
  1199                           
  1200                           ;Programacion.c: 214:         PORTDbits.RD2=0;
  1201  0022D4  9683               	bcf	131,3,c	;volatile
  1202                           
  1203                           ;Programacion.c: 215:         PORTDbits.RD3=1;
  1204  0022D6  EF9D  F011         	goto	l132
  1205  0022DA                     l3611:
  1206                           
  1207                           ; BSR set to: 0
  1208  0022DA  0E07               	movlw	7
  1209  0022DC  1963               	xorwf	und@x& (0+255),w,b
  1210  0022DE  1164               	iorwf	(und@x+1)& (0+255),w,b
  1211  0022E0  A4D8               	btfss	status,2,c
  1212  0022E2  EF75  F011         	goto	u4831
  1213  0022E6  EF77  F011         	goto	u4830
  1214  0022EA                     u4831:
  1215  0022EA  EF7D  F011         	goto	l3615
  1216  0022EE                     u4830:
  1217  0022EE                     
  1218                           ; BSR set to: 0
  1219                           ;Programacion.c: 217:     else if (x==9);Programacion.c: 218:     {
  1220  0022EE  8083               	bsf	131,0,c	;volatile
  1221                           
  1222                           ;Programacion.c: 219:         PORTDbits.RD0=1;
  1223  0022F0  8283               	bsf	131,1,c	;volatile
  1224                           
  1225                           ;Programacion.c: 220:         PORTDbits.RD1=0;
  1226  0022F2  8483               	bsf	131,2,c	;volatile
  1227                           
  1228                           ;Programacion.c: 221:         PORTDbits.RD2=0;
  1229  0022F4  9683               	bcf	131,3,c	;volatile
  1230                           
  1231                           ;Programacion.c: 222:         PORTDbits.RD3=1;
  1232  0022F6  EF9D  F011         	goto	l132
  1233  0022FA                     l3615:
  1234                           
  1235                           ; BSR set to: 0
  1236  0022FA  0E08               	movlw	8
  1237  0022FC  1963               	xorwf	und@x& (0+255),w,b
  1238  0022FE  1164               	iorwf	(und@x+1)& (0+255),w,b
  1239  002300  A4D8               	btfss	status,2,c
  1240  002302  EF85  F011         	goto	u4841
  1241  002306  EF87  F011         	goto	u4840
  1242  00230A                     u4841:
  1243  00230A  EF8D  F011         	goto	l3619
  1244  00230E                     u4840:
  1245  00230E                     
  1246                           ; BSR set to: 0
  1247                           ;Programacion.c: 224: };Programacion.c: 225: void dec (int y)
  1248  00230E  9083               	bcf	131,0,c	;volatile
  1249                           
  1250                           ;Programacion.c: 226: {
  1251  002310  9283               	bcf	131,1,c	;volatile
  1252                           
  1253                           ;Programacion.c: 227:     if (y==0)
  1254  002312  9483               	bcf	131,2,c	;volatile
  1255                           
  1256                           ;Programacion.c: 228:     {
  1257  002314  8683               	bsf	131,3,c	;volatile
  1258                           
  1259                           ;Programacion.c: 229:         PORTAbits.RA4=0;
  1260  002316  EF9D  F011         	goto	l132
  1261  00231A                     l3619:
  1262                           
  1263                           ; BSR set to: 0
  1264  00231A  0E09               	movlw	9
  1265  00231C  1963               	xorwf	und@x& (0+255),w,b
  1266  00231E  1164               	iorwf	(und@x+1)& (0+255),w,b
  1267  002320  A4D8               	btfss	status,2,c
  1268  002322  EF95  F011         	goto	u4851
  1269  002326  EF97  F011         	goto	u4850
  1270  00232A                     u4851:
  1271  00232A  EF9D  F011         	goto	l126
  1272  00232E                     u4850:
  1273  00232E                     
  1274                           ; BSR set to: 0
  1275                           ;Programacion.c: 231:         PORTEbits.RE0=0;;Programacion.c: 232:         PORTEbits.RE
      +                          1=0;
  1276  00232E  8083               	bsf	131,0,c	;volatile
  1277                           
  1278                           ;Programacion.c: 233:     }
  1279  002330  9283               	bcf	131,1,c	;volatile
  1280                           
  1281                           ;Programacion.c: 234:     else if (y==1)
  1282  002332  9483               	bcf	131,2,c	;volatile
  1283                           
  1284                           ;Programacion.c: 235:     {
  1285  002334  8683               	bsf	131,3,c	;volatile
  1286  002336  EF9D  F011         	goto	l132
  1287  00233A                     l126:
  1288  00233A                     l132:
  1289                           
  1290                           ; BSR set to: 0
  1291  00233A  0012               	return		;funcret
  1292  00233C                     __end_of_und:
  1293                           	callstack 0
  1294                           
  1295 ;; *************** function _dec *****************
  1296 ;; Defined at:
  1297 ;;		line 238 in file "Programacion.c"
  1298 ;; Parameters:    Size  Location     Type
  1299 ;;  y               2    3[BANK0 ] int 
  1300 ;; Auto vars:     Size  Location     Type
  1301 ;;		None
  1302 ;; Return value:  Size  Location     Type
  1303 ;;                  1    wreg      void 
  1304 ;; Registers used:
  1305 ;;		wreg, status,2, status,0
  1306 ;; Tracked objects:
  1307 ;;		On entry : 0/0
  1308 ;;		On exit  : 0/0
  1309 ;;		Unchanged: 0/0
  1310 ;; Data sizes:     COMRAM   BANK0   BANK1   BANK2   BANK3   BANK4   BANK5   BANK6   BANK7
  1311 ;;      Params:         0       2       0       0       0       0       0       0       0
  1312 ;;      Locals:         0       0       0       0       0       0       0       0       0
  1313 ;;      Temps:          0       0       0       0       0       0       0       0       0
  1314 ;;      Totals:         0       2       0       0       0       0       0       0       0
  1315 ;;Total ram usage:        2 bytes
  1316 ;; Hardware stack levels used:    1
  1317 ;; Hardware stack levels required when called:    4
  1318 ;; This function calls:
  1319 ;;		Nothing
  1320 ;; This function is called by:
  1321 ;;		_main
  1322 ;; This function uses a non-reentrant model
  1323 ;;
  1324                           
  1325                           	psect	text2
  1326  00233C                     __ptext2:
  1327                           	callstack 0
  1328  00233C                     _dec:
  1329                           	callstack 26
  1330  00233C                     
  1331                           ;Programacion.c: 238:         PORTEbits.RE0=0;;Programacion.c: 239:         PORTEbits.RE
      +                          1=0;;Programacion.c: 240:     }
  1332  00233C  0100               	movlb	0	; () banked
  1333  00233E  5163               	movf	dec@y& (0+255),w,b
  1334  002340  1164               	iorwf	(dec@y+1)& (0+255),w,b
  1335  002342  A4D8               	btfss	status,2,c
  1336  002344  EFA6  F011         	goto	u4661
  1337  002348  EFA8  F011         	goto	u4660
  1338  00234C                     u4661:
  1339  00234C  EFAE  F011         	goto	l3547
  1340  002350                     u4660:
  1341  002350                     
  1342                           ; BSR set to: 0
  1343                           ;Programacion.c: 241:     else if (y==2);Programacion.c: 242:     {
  1344  002350  9880               	bcf	128,4,c	;volatile
  1345                           
  1346                           ;Programacion.c: 243:         PORTAbits.RA4=0;
  1347  002352  9A80               	bcf	128,5,c	;volatile
  1348                           
  1349                           ;Programacion.c: 244:         PORTAbits.RA5=1;
  1350  002354  9084               	bcf	132,0,c	;volatile
  1351                           
  1352                           ;Programacion.c: 245:         PORTEbits.RE0=0;
  1353  002356  9284               	bcf	132,1,c	;volatile
  1354                           
  1355                           ;Programacion.c: 246:         PORTEbits.RE1=0;
  1356  002358  EF3D  F012         	goto	l154
  1357  00235C                     l3547:
  1358                           
  1359                           ; BSR set to: 0
  1360  00235C  0563               	decf	dec@y& (0+255),w,b
  1361  00235E  1164               	iorwf	(dec@y+1)& (0+255),w,b
  1362  002360  A4D8               	btfss	status,2,c
  1363  002362  EFB5  F011         	goto	u4671
  1364  002366  EFB7  F011         	goto	u4670
  1365  00236A                     u4671:
  1366  00236A  EFBD  F011         	goto	l3551
  1367  00236E                     u4670:
  1368  00236E                     
  1369                           ; BSR set to: 0
  1370                           ;Programacion.c: 248:     else if (y==3);Programacion.c: 249:     {
  1371  00236E  8880               	bsf	128,4,c	;volatile
  1372                           
  1373                           ;Programacion.c: 250:         PORTAbits.RA4=1;
  1374  002370  9A80               	bcf	128,5,c	;volatile
  1375                           
  1376                           ;Programacion.c: 251:         PORTAbits.RA5=1;
  1377  002372  9084               	bcf	132,0,c	;volatile
  1378                           
  1379                           ;Programacion.c: 252:         PORTEbits.RE0=0;
  1380  002374  9284               	bcf	132,1,c	;volatile
  1381                           
  1382                           ;Programacion.c: 253:         PORTEbits.RE1=0;
  1383  002376  EF3D  F012         	goto	l154
  1384  00237A                     l3551:
  1385                           
  1386                           ; BSR set to: 0
  1387  00237A  0E02               	movlw	2
  1388  00237C  1963               	xorwf	dec@y& (0+255),w,b
  1389  00237E  1164               	iorwf	(dec@y+1)& (0+255),w,b
  1390  002380  A4D8               	btfss	status,2,c
  1391  002382  EFC5  F011         	goto	u4681
  1392  002386  EFC7  F011         	goto	u4680
  1393  00238A                     u4681:
  1394  00238A  EFCD  F011         	goto	l3555
  1395  00238E                     u4680:
  1396  00238E                     
  1397                           ; BSR set to: 0
  1398                           ;Programacion.c: 255:     else if (y==4);Programacion.c: 256:     {
  1399  00238E  9880               	bcf	128,4,c	;volatile
  1400                           
  1401                           ;Programacion.c: 257:         PORTAbits.RA4=0;
  1402  002390  8A80               	bsf	128,5,c	;volatile
  1403                           
  1404                           ;Programacion.c: 258:         PORTAbits.RA5=0;
  1405  002392  9084               	bcf	132,0,c	;volatile
  1406                           
  1407                           ;Programacion.c: 259:         PORTEbits.RE0=1;
  1408  002394  9284               	bcf	132,1,c	;volatile
  1409                           
  1410                           ;Programacion.c: 260:         PORTEbits.RE1=0;
  1411  002396  EF3D  F012         	goto	l154
  1412  00239A                     l3555:
  1413                           
  1414                           ; BSR set to: 0
  1415  00239A  0E03               	movlw	3
  1416  00239C  1963               	xorwf	dec@y& (0+255),w,b
  1417  00239E  1164               	iorwf	(dec@y+1)& (0+255),w,b
  1418  0023A0  A4D8               	btfss	status,2,c
  1419  0023A2  EFD5  F011         	goto	u4691
  1420  0023A6  EFD7  F011         	goto	u4690
  1421  0023AA                     u4691:
  1422  0023AA  EFDD  F011         	goto	l3559
  1423  0023AE                     u4690:
  1424  0023AE                     
  1425                           ; BSR set to: 0
  1426                           ;Programacion.c: 262:     else if (y==5);Programacion.c: 263:     {
  1427  0023AE  8880               	bsf	128,4,c	;volatile
  1428                           
  1429                           ;Programacion.c: 264:         PORTAbits.RA4=1;
  1430  0023B0  8A80               	bsf	128,5,c	;volatile
  1431                           
  1432                           ;Programacion.c: 265:         PORTAbits.RA5=0;
  1433  0023B2  9084               	bcf	132,0,c	;volatile
  1434                           
  1435                           ;Programacion.c: 266:         PORTEbits.RE0=1;
  1436  0023B4  9284               	bcf	132,1,c	;volatile
  1437                           
  1438                           ;Programacion.c: 267:         PORTEbits.RE1=0;
  1439  0023B6  EF3D  F012         	goto	l154
  1440  0023BA                     l3559:
  1441                           
  1442                           ; BSR set to: 0
  1443  0023BA  0E04               	movlw	4
  1444  0023BC  1963               	xorwf	dec@y& (0+255),w,b
  1445  0023BE  1164               	iorwf	(dec@y+1)& (0+255),w,b
  1446  0023C0  A4D8               	btfss	status,2,c
  1447  0023C2  EFE5  F011         	goto	u4701
  1448  0023C6  EFE7  F011         	goto	u4700
  1449  0023CA                     u4701:
  1450  0023CA  EFED  F011         	goto	l3563
  1451  0023CE                     u4700:
  1452  0023CE                     
  1453                           ; BSR set to: 0
  1454                           ;Programacion.c: 269:     else if (y==6);Programacion.c: 270:     {
  1455  0023CE  9880               	bcf	128,4,c	;volatile
  1456                           
  1457                           ;Programacion.c: 271:         PORTAbits.RA4=0;
  1458  0023D0  9A80               	bcf	128,5,c	;volatile
  1459                           
  1460                           ;Programacion.c: 272:         PORTAbits.RA5=1;
  1461  0023D2  8084               	bsf	132,0,c	;volatile
  1462                           
  1463                           ;Programacion.c: 273:         PORTEbits.RE0=1;
  1464  0023D4  9284               	bcf	132,1,c	;volatile
  1465                           
  1466                           ;Programacion.c: 274:         PORTEbits.RE1=0;
  1467  0023D6  EF3D  F012         	goto	l154
  1468  0023DA                     l3563:
  1469                           
  1470                           ; BSR set to: 0
  1471  0023DA  0E05               	movlw	5
  1472  0023DC  1963               	xorwf	dec@y& (0+255),w,b
  1473  0023DE  1164               	iorwf	(dec@y+1)& (0+255),w,b
  1474  0023E0  A4D8               	btfss	status,2,c
  1475  0023E2  EFF5  F011         	goto	u4711
  1476  0023E6  EFF7  F011         	goto	u4710
  1477  0023EA                     u4711:
  1478  0023EA  EFFD  F011         	goto	l3567
  1479  0023EE                     u4710:
  1480  0023EE                     
  1481                           ; BSR set to: 0
  1482                           ;Programacion.c: 276:     else if (y==7);Programacion.c: 277:     {
  1483  0023EE  8880               	bsf	128,4,c	;volatile
  1484                           
  1485                           ;Programacion.c: 278:         PORTAbits.RA4=1;
  1486  0023F0  9A80               	bcf	128,5,c	;volatile
  1487                           
  1488                           ;Programacion.c: 279:         PORTAbits.RA5=1;
  1489  0023F2  8084               	bsf	132,0,c	;volatile
  1490                           
  1491                           ;Programacion.c: 280:         PORTEbits.RE0=1;
  1492  0023F4  9284               	bcf	132,1,c	;volatile
  1493                           
  1494                           ;Programacion.c: 281:         PORTEbits.RE1=0;
  1495  0023F6  EF3D  F012         	goto	l154
  1496  0023FA                     l3567:
  1497                           
  1498                           ; BSR set to: 0
  1499  0023FA  0E06               	movlw	6
  1500  0023FC  1963               	xorwf	dec@y& (0+255),w,b
  1501  0023FE  1164               	iorwf	(dec@y+1)& (0+255),w,b
  1502  002400  A4D8               	btfss	status,2,c
  1503  002402  EF05  F012         	goto	u4721
  1504  002406  EF07  F012         	goto	u4720
  1505  00240A                     u4721:
  1506  00240A  EF0D  F012         	goto	l3571
  1507  00240E                     u4720:
  1508  00240E                     
  1509                           ; BSR set to: 0
  1510                           ;Programacion.c: 283:     else if (y==8);Programacion.c: 284:     {
  1511  00240E  9880               	bcf	128,4,c	;volatile
  1512                           
  1513                           ;Programacion.c: 285:         PORTAbits.RA4=0;
  1514  002410  8A80               	bsf	128,5,c	;volatile
  1515                           
  1516                           ;Programacion.c: 286:         PORTAbits.RA5=0;
  1517  002412  8084               	bsf	132,0,c	;volatile
  1518                           
  1519                           ;Programacion.c: 287:         PORTEbits.RE0=0;
  1520  002414  9284               	bcf	132,1,c	;volatile
  1521                           
  1522                           ;Programacion.c: 288:         PORTEbits.RE1=1;
  1523  002416  EF3D  F012         	goto	l154
  1524  00241A                     l3571:
  1525                           
  1526                           ; BSR set to: 0
  1527  00241A  0E07               	movlw	7
  1528  00241C  1963               	xorwf	dec@y& (0+255),w,b
  1529  00241E  1164               	iorwf	(dec@y+1)& (0+255),w,b
  1530  002420  A4D8               	btfss	status,2,c
  1531  002422  EF15  F012         	goto	u4731
  1532  002426  EF17  F012         	goto	u4730
  1533  00242A                     u4731:
  1534  00242A  EF1D  F012         	goto	l3575
  1535  00242E                     u4730:
  1536  00242E                     
  1537                           ; BSR set to: 0
  1538                           ;Programacion.c: 290:     else if (y==9);Programacion.c: 291:     {
  1539  00242E  8880               	bsf	128,4,c	;volatile
  1540                           
  1541                           ;Programacion.c: 292:         PORTAbits.RA4=1;
  1542  002430  8A80               	bsf	128,5,c	;volatile
  1543                           
  1544                           ;Programacion.c: 293:         PORTAbits.RA5=0;
  1545  002432  8084               	bsf	132,0,c	;volatile
  1546                           
  1547                           ;Programacion.c: 294:         PORTEbits.RE0=0;
  1548  002434  9284               	bcf	132,1,c	;volatile
  1549                           
  1550                           ;Programacion.c: 295:         PORTEbits.RE1=1;
  1551  002436  EF3D  F012         	goto	l154
  1552  00243A                     l3575:
  1553                           
  1554                           ; BSR set to: 0
  1555  00243A  0E08               	movlw	8
  1556  00243C  1963               	xorwf	dec@y& (0+255),w,b
  1557  00243E  1164               	iorwf	(dec@y+1)& (0+255),w,b
  1558  002440  A4D8               	btfss	status,2,c
  1559  002442  EF25  F012         	goto	u4741
  1560  002446  EF27  F012         	goto	u4740
  1561  00244A                     u4741:
  1562  00244A  EF2D  F012         	goto	l3579
  1563  00244E                     u4740:
  1564  00244E                     
  1565                           ; BSR set to: 0
  1566                           ;Programacion.c: 297: };Programacion.c: 298: void __attribute__((picinterrupt(("high_pri
      +                          ority")))) ISR_EX0_1(void)
  1567  00244E  9880               	bcf	128,4,c	;volatile
  1568                           
  1569                           ;Programacion.c: 299: {
  1570  002450  9A80               	bcf	128,5,c	;volatile
  1571                           
  1572                           ;Programacion.c: 300:     if (INTCONbits.INT0IF==1)
  1573  002452  9084               	bcf	132,0,c	;volatile
  1574                           
  1575                           ;Programacion.c: 301:     {
  1576  002454  8284               	bsf	132,1,c	;volatile
  1577                           
  1578                           ;Programacion.c: 302:         INTCONbits.INT0IF=0;
  1579  002456  EF3D  F012         	goto	l154
  1580  00245A                     l3579:
  1581                           
  1582                           ; BSR set to: 0
  1583  00245A  0E09               	movlw	9
  1584  00245C  1963               	xorwf	dec@y& (0+255),w,b
  1585  00245E  1164               	iorwf	(dec@y+1)& (0+255),w,b
  1586  002460  A4D8               	btfss	status,2,c
  1587  002462  EF35  F012         	goto	u4751
  1588  002466  EF37  F012         	goto	u4750
  1589  00246A                     u4751:
  1590  00246A  EF3D  F012         	goto	l148
  1591  00246E                     u4750:
  1592  00246E                     
  1593                           ; BSR set to: 0
  1594                           ;Programacion.c: 304:         {;Programacion.c: 305:             und(i);
  1595  00246E  8880               	bsf	128,4,c	;volatile
  1596                           
  1597                           ;Programacion.c: 306:             dec(i);
  1598  002470  9A80               	bcf	128,5,c	;volatile
  1599                           
  1600                           ;Programacion.c: 307:             _delay((unsigned long)((500)*(4000000/4000.0)));
  1601  002472  9084               	bcf	132,0,c	;volatile
  1602                           
  1603                           ;Programacion.c: 308:         }
  1604  002474  8284               	bsf	132,1,c	;volatile
  1605  002476  EF3D  F012         	goto	l154
  1606  00247A                     l148:
  1607  00247A                     l154:
  1608                           
  1609                           ; BSR set to: 0
  1610  00247A  0012               	return		;funcret
  1611  00247C                     __end_of_dec:
  1612                           	callstack 0
  1613                           
  1614 ;; *************** function _Temp *****************
  1615 ;; Defined at:
  1616 ;;		line 141 in file "Programacion.c"
  1617 ;; Parameters:    Size  Location     Type
  1618 ;;		None
  1619 ;; Auto vars:     Size  Location     Type
  1620 ;;  temp            4   77[BANK0 ] float 
  1621 ;;  tempt           4   73[BANK0 ] float 
  1622 ;; Return value:  Size  Location     Type
  1623 ;;                  1    wreg      void 
  1624 ;; Registers used:
  1625 ;;		wreg, status,2, status,0, prodl, prodh, cstack
  1626 ;; Tracked objects:
  1627 ;;		On entry : 0/0
  1628 ;;		On exit  : 0/0
  1629 ;;		Unchanged: 0/0
  1630 ;; Data sizes:     COMRAM   BANK0   BANK1   BANK2   BANK3   BANK4   BANK5   BANK6   BANK7
  1631 ;;      Params:         0       0       0       0       0       0       0       0       0
  1632 ;;      Locals:         0       8       0       0       0       0       0       0       0
  1633 ;;      Temps:          0       4       0       0       0       0       0       0       0
  1634 ;;      Totals:         0      12       0       0       0       0       0       0       0
  1635 ;;Total ram usage:       12 bytes
  1636 ;; Hardware stack levels used:    1
  1637 ;; Hardware stack levels required when called:    5
  1638 ;; This function calls:
  1639 ;;		___fladd
  1640 ;;		___fldiv
  1641 ;;		___flge
  1642 ;;		___flmul
  1643 ;;		___xxtofl
  1644 ;; This function is called by:
  1645 ;;		_main
  1646 ;; This function uses a non-reentrant model
  1647 ;;
  1648                           
  1649                           	psect	text3
  1650  0026F8                     __ptext3:
  1651                           	callstack 0
  1652  0026F8                     _Temp:
  1653                           	callstack 25
  1654  0026F8                     
  1655                           ;Programacion.c: 143:             PORTDbits.RD7=1;
  1656  0026F8  80C2               	bsf	194,0,c	;volatile
  1657                           
  1658                           ;Programacion.c: 144:         }
  1659  0026FA  82C2               	bsf	194,1,c	;volatile
  1660                           
  1661                           ;Programacion.c: 145:         else
  1662  0026FC  EF08  F014         	goto	l105
  1663  002700                     l3533:
  1664                           
  1665                           ;Programacion.c: 148:             PORTDbits.RD7=0;
  1666  002700  0E00               	movlw	0
  1667  002702  0100               	movlb	0	; () banked
  1668  002704  6FAD               	movwf	Temp@temp& (0+255),b
  1669  002706  0E00               	movlw	0
  1670  002708  6FAE               	movwf	(Temp@temp+1)& (0+255),b
  1671  00270A  0E00               	movlw	0
  1672  00270C  6FAF               	movwf	(Temp@temp+2)& (0+255),b
  1673  00270E  0E00               	movlw	0
  1674  002710  6FB0               	movwf	(Temp@temp+3)& (0+255),b
  1675  002712                     
  1676                           ; BSR set to: 0
  1677                           ;Programacion.c: 150:     }
  1678  002712  50C4               	movf	196,w,c	;volatile
  1679  002714  6FA6               	movwf	(??_Temp+1)& (0+255),b
  1680  002716  6BA5               	clrf	??_Temp& (0+255),b
  1681  002718  50C3               	movf	195,w,c	;volatile
  1682  00271A  6FA7               	movwf	(??_Temp+2)& (0+255),b
  1683  00271C  6BA8               	clrf	(??_Temp+3)& (0+255),b
  1684  00271E  51A5               	movf	??_Temp& (0+255),w,b
  1685  002720  27A7               	addwf	(??_Temp+2)& (0+255),f,b
  1686  002722  51A6               	movf	(??_Temp+1)& (0+255),w,b
  1687  002724  23A8               	addwfc	(??_Temp+3)& (0+255),f,b
  1688  002726  C0A7  F063         	movff	??_Temp+2,___xxtofl@val
  1689  00272A  C0A8  F064         	movff	??_Temp+3,___xxtofl@val+1
  1690  00272E  0E00               	movlw	0
  1691  002730  BF64               	btfsc	(___xxtofl@val+1)& (0+255),7,b
  1692  002732  0EFF               	movlw	-1
  1693  002734  6F65               	movwf	(___xxtofl@val+2)& (0+255),b
  1694  002736  6F66               	movwf	(___xxtofl@val+3)& (0+255),b
  1695  002738  0E01               	movlw	1
  1696  00273A  EC7E  F00E         	call	___xxtofl
  1697  00273E  C063  F0A9         	movff	?___xxtofl,Temp@tempt
  1698  002742  C064  F0AA         	movff	?___xxtofl+1,Temp@tempt+1
  1699  002746  C065  F0AB         	movff	?___xxtofl+2,Temp@tempt+2
  1700  00274A  C066  F0AC         	movff	?___xxtofl+3,Temp@tempt+3
  1701  00274E                     
  1702                           ;Programacion.c: 151: }
  1703  00274E  0E00               	movlw	0
  1704  002750  0100               	movlb	0	; () banked
  1705  002752  6F77               	movwf	___flmul@a& (0+255),b
  1706  002754  0E00               	movlw	0
  1707  002756  6F78               	movwf	(___flmul@a+1)& (0+255),b
  1708  002758  0E16               	movlw	22
  1709  00275A  6F79               	movwf	(___flmul@a+2)& (0+255),b
  1710  00275C  0E43               	movlw	67
  1711  00275E  6F7A               	movwf	(___flmul@a+3)& (0+255),b
  1712  002760  0E00               	movlw	0
  1713  002762  6F67               	movwf	___fladd@a& (0+255),b
  1714  002764  0E00               	movlw	0
  1715  002766  6F68               	movwf	(___fladd@a+1)& (0+255),b
  1716  002768  0E80               	movlw	128
  1717  00276A  6F69               	movwf	(___fladd@a+2)& (0+255),b
  1718  00276C  0E3F               	movlw	63
  1719  00276E  6F6A               	movwf	(___fladd@a+3)& (0+255),b
  1720  002770  C0A9  F063         	movff	Temp@tempt,___fladd@b
  1721  002774  C0AA  F064         	movff	Temp@tempt+1,___fladd@b+1
  1722  002778  C0AB  F065         	movff	Temp@tempt+2,___fladd@b+2
  1723  00277C  C0AC  F066         	movff	Temp@tempt+3,___fladd@b+3
  1724  002780  ECF2  F000         	call	___fladd	;wreg free
  1725  002784  C063  F073         	movff	?___fladd,___flmul@b
  1726  002788  C064  F074         	movff	?___fladd+1,___flmul@b+1
  1727  00278C  C065  F075         	movff	?___fladd+2,___flmul@b+2
  1728  002790  C066  F076         	movff	?___fladd+3,___flmul@b+3
  1729  002794  ECB3  F005         	call	___flmul	;wreg free
  1730  002798  C073  F08C         	movff	?___flmul,___fldiv@b
  1731  00279C  C074  F08D         	movff	?___flmul+1,___fldiv@b+1
  1732  0027A0  C075  F08E         	movff	?___flmul+2,___fldiv@b+2
  1733  0027A4  C076  F08F         	movff	?___flmul+3,___fldiv@b+3
  1734  0027A8  0E00               	movlw	0
  1735  0027AA  0100               	movlb	0	; () banked
  1736  0027AC  6F90               	movwf	___fldiv@a& (0+255),b
  1737  0027AE  0E00               	movlw	0
  1738  0027B0  6F91               	movwf	(___fldiv@a+1)& (0+255),b
  1739  0027B2  0E80               	movlw	128
  1740  0027B4  6F92               	movwf	(___fldiv@a+2)& (0+255),b
  1741  0027B6  0E44               	movlw	68
  1742  0027B8  6F93               	movwf	(___fldiv@a+3)& (0+255),b
  1743  0027BA  ECDE  F009         	call	___fldiv	;wreg free
  1744  0027BE  C08C  F0AD         	movff	?___fldiv,Temp@temp
  1745  0027C2  C08D  F0AE         	movff	?___fldiv+1,Temp@temp+1
  1746  0027C6  C08E  F0AF         	movff	?___fldiv+2,Temp@temp+2
  1747  0027CA  C08F  F0B0         	movff	?___fldiv+3,Temp@temp+3
  1748  0027CE                     
  1749                           ;Programacion.c: 153: {
  1750  0027CE  0E00               	movlw	0
  1751  0027D0  0100               	movlb	0	; () banked
  1752  0027D2  6F63               	movwf	___flge@ff1& (0+255),b
  1753  0027D4  0E00               	movlw	0
  1754  0027D6  6F64               	movwf	(___flge@ff1+1)& (0+255),b
  1755  0027D8  0E70               	movlw	112
  1756  0027DA  6F65               	movwf	(___flge@ff1+2)& (0+255),b
  1757  0027DC  0E42               	movlw	66
  1758  0027DE  6F66               	movwf	(___flge@ff1+3)& (0+255),b
  1759  0027E0  C0AD  F067         	movff	Temp@temp,___flge@ff2
  1760  0027E4  C0AE  F068         	movff	Temp@temp+1,___flge@ff2+1
  1761  0027E8  C0AF  F069         	movff	Temp@temp+2,___flge@ff2+2
  1762  0027EC  C0B0  F06A         	movff	Temp@temp+3,___flge@ff2+3
  1763  0027F0  EC9F  F014         	call	___flge	;wreg free
  1764  0027F4  0100               	movlb	0	; () banked
  1765  0027F6  B0D8               	btfsc	status,0,c
  1766  0027F8  EF00  F014         	goto	u4641
  1767  0027FC  EF02  F014         	goto	u4640
  1768  002800                     u4641:
  1769  002800  EF06  F014         	goto	l107
  1770  002804                     u4640:
  1771  002804                     
  1772                           ; BSR set to: 0
  1773                           ;Programacion.c: 154:     if (x==0);Programacion.c: 155:     {
  1774  002804  8883               	bsf	131,4,c	;volatile
  1775                           
  1776                           ;Programacion.c: 156:         PORTDbits.RD0=0;
  1777  002806  8E83               	bsf	131,7,c	;volatile
  1778                           
  1779                           ;Programacion.c: 157:         PORTDbits.RD1=0;
  1780  002808  EF08  F014         	goto	l105
  1781  00280C                     l107:
  1782                           
  1783                           ; BSR set to: 0
  1784                           ;Programacion.c: 159:         PORTDbits.RD3=0;;Programacion.c: 160:     }
  1785  00280C  9883               	bcf	131,4,c	;volatile
  1786                           
  1787                           ;Programacion.c: 161:     else if (x==1)
  1788  00280E  9E83               	bcf	131,7,c	;volatile
  1789  002810                     l105:
  1790                           
  1791                           ;Programacion.c: 145:         else
  1792  002810  B2C2               	btfsc	194,1,c	;volatile
  1793  002812  EF0D  F014         	goto	u4651
  1794  002816  EF0F  F014         	goto	u4650
  1795  00281A                     u4651:
  1796  00281A  EF80  F013         	goto	l3533
  1797  00281E                     u4650:
  1798  00281E  0012               	return		;funcret
  1799  002820                     __end_of_Temp:
  1800                           	callstack 0
  1801                           
  1802 ;; *************** function ___xxtofl *****************
  1803 ;; Defined at:
  1804 ;;		line 10 in file "C:\Program Files\Microchip\xc8\v2.20\pic\sources\c99\common\xxtofl.c"
  1805 ;; Parameters:    Size  Location     Type
  1806 ;;  sign            1    wreg     unsigned char 
  1807 ;;  val             4    3[BANK0 ] long 
  1808 ;; Auto vars:     Size  Location     Type
  1809 ;;  sign            1   11[BANK0 ] unsigned char 
  1810 ;;  arg             4   13[BANK0 ] unsigned long 
  1811 ;;  exp             1   12[BANK0 ] unsigned char 
  1812 ;; Return value:  Size  Location     Type
  1813 ;;                  4    3[BANK0 ] unsigned char 
  1814 ;; Registers used:
  1815 ;;		wreg, status,2, status,0
  1816 ;; Tracked objects:
  1817 ;;		On entry : 0/0
  1818 ;;		On exit  : 0/0
  1819 ;;		Unchanged: 0/0
  1820 ;; Data sizes:     COMRAM   BANK0   BANK1   BANK2   BANK3   BANK4   BANK5   BANK6   BANK7
  1821 ;;      Params:         0       4       0       0       0       0       0       0       0
  1822 ;;      Locals:         0       6       0       0       0       0       0       0       0
  1823 ;;      Temps:          0       4       0       0       0       0       0       0       0
  1824 ;;      Totals:         0      14       0       0       0       0       0       0       0
  1825 ;;Total ram usage:       14 bytes
  1826 ;; Hardware stack levels used:    1
  1827 ;; Hardware stack levels required when called:    4
  1828 ;; This function calls:
  1829 ;;		Nothing
  1830 ;; This function is called by:
  1831 ;;		_Temp
  1832 ;; This function uses a non-reentrant model
  1833 ;;
  1834                           
  1835                           	psect	text4
  1836  001CFC                     __ptext4:
  1837                           	callstack 0
  1838  001CFC                     ___xxtofl:
  1839                           	callstack 25
  1840                           
  1841                           ;incstack = 0
  1842                           ;___xxtofl@sign stored from wreg
  1843  001CFC  0100               	movlb	0	; () banked
  1844  001CFE  6F6B               	movwf	___xxtofl@sign& (0+255),b
  1845  001D00  0100               	movlb	0	; () banked
  1846  001D02  516B               	movf	___xxtofl@sign& (0+255),w,b
  1847  001D04  B4D8               	btfsc	status,2,c
  1848  001D06  EF87  F00E         	goto	u3581
  1849  001D0A  EF89  F00E         	goto	u3580
  1850  001D0E                     u3581:
  1851  001D0E  EFAB  F00E         	goto	l857
  1852  001D12                     u3580:
  1853  001D12                     
  1854                           ; BSR set to: 0
  1855  001D12  BF66               	btfsc	(___xxtofl@val+3)& (0+255),7,b
  1856  001D14  EF90  F00E         	goto	u3590
  1857  001D18  EF8E  F00E         	goto	u3591
  1858  001D1C                     u3591:
  1859  001D1C  EFAB  F00E         	goto	l857
  1860  001D20                     u3590:
  1861  001D20                     
  1862                           ; BSR set to: 0
  1863  001D20  C063  F067         	movff	___xxtofl@val,??___xxtofl
  1864  001D24  C064  F068         	movff	___xxtofl@val+1,??___xxtofl+1
  1865  001D28  C065  F069         	movff	___xxtofl@val+2,??___xxtofl+2
  1866  001D2C  C066  F06A         	movff	___xxtofl@val+3,??___xxtofl+3
  1867  001D30  1F67               	comf	??___xxtofl& (0+255),f,b
  1868  001D32  1F68               	comf	(??___xxtofl+1)& (0+255),f,b
  1869  001D34  1F69               	comf	(??___xxtofl+2)& (0+255),f,b
  1870  001D36  1F6A               	comf	(??___xxtofl+3)& (0+255),f,b
  1871  001D38  2B67               	incf	??___xxtofl& (0+255),f,b
  1872  001D3A  0E00               	movlw	0
  1873  001D3C  2368               	addwfc	(??___xxtofl+1)& (0+255),f,b
  1874  001D3E  2369               	addwfc	(??___xxtofl+2)& (0+255),f,b
  1875  001D40  236A               	addwfc	(??___xxtofl+3)& (0+255),f,b
  1876  001D42  C067  F06D         	movff	??___xxtofl,___xxtofl@arg
  1877  001D46  C068  F06E         	movff	??___xxtofl+1,___xxtofl@arg+1
  1878  001D4A  C069  F06F         	movff	??___xxtofl+2,___xxtofl@arg+2
  1879  001D4E  C06A  F070         	movff	??___xxtofl+3,___xxtofl@arg+3
  1880  001D52  EFB3  F00E         	goto	l2913
  1881  001D56                     l857:
  1882                           
  1883                           ; BSR set to: 0
  1884  001D56  C063  F06D         	movff	___xxtofl@val,___xxtofl@arg
  1885  001D5A  C064  F06E         	movff	___xxtofl@val+1,___xxtofl@arg+1
  1886  001D5E  C065  F06F         	movff	___xxtofl@val+2,___xxtofl@arg+2
  1887  001D62  C066  F070         	movff	___xxtofl@val+3,___xxtofl@arg+3
  1888  001D66                     l2913:
  1889                           
  1890                           ; BSR set to: 0
  1891  001D66  5163               	movf	___xxtofl@val& (0+255),w,b
  1892  001D68  1164               	iorwf	(___xxtofl@val+1)& (0+255),w,b
  1893  001D6A  1165               	iorwf	(___xxtofl@val+2)& (0+255),w,b
  1894  001D6C  1166               	iorwf	(___xxtofl@val+3)& (0+255),w,b
  1895  001D6E  A4D8               	btfss	status,2,c
  1896  001D70  EFBC  F00E         	goto	u3601
  1897  001D74  EFBE  F00E         	goto	u3600
  1898  001D78                     u3601:
  1899  001D78  EFC8  F00E         	goto	l2919
  1900  001D7C                     u3600:
  1901  001D7C                     
  1902                           ; BSR set to: 0
  1903  001D7C  0E00               	movlw	0
  1904  001D7E  6F63               	movwf	?___xxtofl& (0+255),b
  1905  001D80  0E00               	movlw	0
  1906  001D82  6F64               	movwf	(?___xxtofl+1)& (0+255),b
  1907  001D84  0E00               	movlw	0
  1908  001D86  6F65               	movwf	(?___xxtofl+2)& (0+255),b
  1909  001D88  0E00               	movlw	0
  1910  001D8A  6F66               	movwf	(?___xxtofl+3)& (0+255),b
  1911  001D8C  EF59  F00F         	goto	l860
  1912  001D90                     l2919:
  1913                           
  1914                           ; BSR set to: 0
  1915  001D90  0E96               	movlw	150
  1916  001D92  6F6C               	movwf	___xxtofl@exp& (0+255),b
  1917  001D94  EFD2  F00E         	goto	l2923
  1918  001D98                     l2921:
  1919                           
  1920                           ; BSR set to: 0
  1921  001D98  2B6C               	incf	___xxtofl@exp& (0+255),f,b
  1922  001D9A  90D8               	bcf	status,0,c
  1923  001D9C  3370               	rrcf	(___xxtofl@arg+3)& (0+255),f,b
  1924  001D9E  336F               	rrcf	(___xxtofl@arg+2)& (0+255),f,b
  1925  001DA0  336E               	rrcf	(___xxtofl@arg+1)& (0+255),f,b
  1926  001DA2  336D               	rrcf	___xxtofl@arg& (0+255),f,b
  1927  001DA4                     l2923:
  1928                           
  1929                           ; BSR set to: 0
  1930  001DA4  0E00               	movlw	0
  1931  001DA6  156D               	andwf	___xxtofl@arg& (0+255),w,b
  1932  001DA8  6F67               	movwf	??___xxtofl& (0+255),b
  1933  001DAA  0E00               	movlw	0
  1934  001DAC  156E               	andwf	(___xxtofl@arg+1)& (0+255),w,b
  1935  001DAE  6F68               	movwf	(??___xxtofl+1)& (0+255),b
  1936  001DB0  0E00               	movlw	0
  1937  001DB2  156F               	andwf	(___xxtofl@arg+2)& (0+255),w,b
  1938  001DB4  6F69               	movwf	(??___xxtofl+2)& (0+255),b
  1939  001DB6  0EFE               	movlw	254
  1940  001DB8  1570               	andwf	(___xxtofl@arg+3)& (0+255),w,b
  1941  001DBA  6F6A               	movwf	(??___xxtofl+3)& (0+255),b
  1942  001DBC  5167               	movf	??___xxtofl& (0+255),w,b
  1943  001DBE  1168               	iorwf	(??___xxtofl+1)& (0+255),w,b
  1944  001DC0  1169               	iorwf	(??___xxtofl+2)& (0+255),w,b
  1945  001DC2  116A               	iorwf	(??___xxtofl+3)& (0+255),w,b
  1946  001DC4  A4D8               	btfss	status,2,c
  1947  001DC6  EFE7  F00E         	goto	u3611
  1948  001DCA  EFE9  F00E         	goto	u3610
  1949  001DCE                     u3611:
  1950  001DCE  EFCC  F00E         	goto	l2921
  1951  001DD2                     u3610:
  1952  001DD2  EFF7  F00E         	goto	l864
  1953  001DD6                     l2925:
  1954                           
  1955                           ; BSR set to: 0
  1956  001DD6  2B6C               	incf	___xxtofl@exp& (0+255),f,b
  1957  001DD8                     
  1958                           ; BSR set to: 0
  1959  001DD8  0E01               	movlw	1
  1960  001DDA  276D               	addwf	___xxtofl@arg& (0+255),f,b
  1961  001DDC  0E00               	movlw	0
  1962  001DDE  236E               	addwfc	(___xxtofl@arg+1)& (0+255),f,b
  1963  001DE0  236F               	addwfc	(___xxtofl@arg+2)& (0+255),f,b
  1964  001DE2  2370               	addwfc	(___xxtofl@arg+3)& (0+255),f,b
  1965  001DE4                     
  1966                           ; BSR set to: 0
  1967  001DE4  90D8               	bcf	status,0,c
  1968  001DE6  3370               	rrcf	(___xxtofl@arg+3)& (0+255),f,b
  1969  001DE8  336F               	rrcf	(___xxtofl@arg+2)& (0+255),f,b
  1970  001DEA  336E               	rrcf	(___xxtofl@arg+1)& (0+255),f,b
  1971  001DEC  336D               	rrcf	___xxtofl@arg& (0+255),f,b
  1972  001DEE                     l864:
  1973                           
  1974                           ; BSR set to: 0
  1975  001DEE  0E00               	movlw	0
  1976  001DF0  156D               	andwf	___xxtofl@arg& (0+255),w,b
  1977  001DF2  6F67               	movwf	??___xxtofl& (0+255),b
  1978  001DF4  0E00               	movlw	0
  1979  001DF6  156E               	andwf	(___xxtofl@arg+1)& (0+255),w,b
  1980  001DF8  6F68               	movwf	(??___xxtofl+1)& (0+255),b
  1981  001DFA  0E00               	movlw	0
  1982  001DFC  156F               	andwf	(___xxtofl@arg+2)& (0+255),w,b
  1983  001DFE  6F69               	movwf	(??___xxtofl+2)& (0+255),b
  1984  001E00  0EFF               	movlw	255
  1985  001E02  1570               	andwf	(___xxtofl@arg+3)& (0+255),w,b
  1986  001E04  6F6A               	movwf	(??___xxtofl+3)& (0+255),b
  1987  001E06  5167               	movf	??___xxtofl& (0+255),w,b
  1988  001E08  1168               	iorwf	(??___xxtofl+1)& (0+255),w,b
  1989  001E0A  1169               	iorwf	(??___xxtofl+2)& (0+255),w,b
  1990  001E0C  116A               	iorwf	(??___xxtofl+3)& (0+255),w,b
  1991  001E0E  A4D8               	btfss	status,2,c
  1992  001E10  EF0C  F00F         	goto	u3621
  1993  001E14  EF0E  F00F         	goto	u3620
  1994  001E18                     u3621:
  1995  001E18  EFEB  F00E         	goto	l2925
  1996  001E1C                     u3620:
  1997  001E1C  EF16  F00F         	goto	l2933
  1998  001E20                     l2931:
  1999                           
  2000                           ; BSR set to: 0
  2001  001E20  076C               	decf	___xxtofl@exp& (0+255),f,b
  2002  001E22  90D8               	bcf	status,0,c
  2003  001E24  376D               	rlcf	___xxtofl@arg& (0+255),f,b
  2004  001E26  376E               	rlcf	(___xxtofl@arg+1)& (0+255),f,b
  2005  001E28  376F               	rlcf	(___xxtofl@arg+2)& (0+255),f,b
  2006  001E2A  3770               	rlcf	(___xxtofl@arg+3)& (0+255),f,b
  2007  001E2C                     l2933:
  2008                           
  2009                           ; BSR set to: 0
  2010  001E2C  BF6F               	btfsc	(___xxtofl@arg+2)& (0+255),7,b
  2011  001E2E  EF1B  F00F         	goto	u3631
  2012  001E32  EF1D  F00F         	goto	u3630
  2013  001E36                     u3631:
  2014  001E36  EF25  F00F         	goto	l871
  2015  001E3A                     u3630:
  2016  001E3A                     
  2017                           ; BSR set to: 0
  2018  001E3A  0E02               	movlw	2
  2019  001E3C  616C               	cpfslt	___xxtofl@exp& (0+255),b
  2020  001E3E  EF23  F00F         	goto	u3641
  2021  001E42  EF25  F00F         	goto	u3640
  2022  001E46                     u3641:
  2023  001E46  EF10  F00F         	goto	l2931
  2024  001E4A                     u3640:
  2025  001E4A                     l871:
  2026                           
  2027                           ; BSR set to: 0
  2028  001E4A  B16C               	btfsc	___xxtofl@exp& (0+255),0,b
  2029  001E4C  EF2A  F00F         	goto	u3651
  2030  001E50  EF2C  F00F         	goto	u3650
  2031  001E54                     u3651:
  2032  001E54  EF2D  F00F         	goto	l2939
  2033  001E58                     u3650:
  2034  001E58                     
  2035                           ; BSR set to: 0
  2036  001E58  9F6F               	bcf	(___xxtofl@arg+2)& (0+255),7,b
  2037  001E5A                     l2939:
  2038                           
  2039                           ; BSR set to: 0
  2040  001E5A  90D8               	bcf	status,0,c
  2041  001E5C  336C               	rrcf	___xxtofl@exp& (0+255),f,b
  2042  001E5E                     
  2043                           ; BSR set to: 0
  2044  001E5E  C06C  F067         	movff	___xxtofl@exp,??___xxtofl
  2045  001E62  6B68               	clrf	(??___xxtofl+1)& (0+255),b
  2046  001E64  6B69               	clrf	(??___xxtofl+2)& (0+255),b
  2047  001E66  6B6A               	clrf	(??___xxtofl+3)& (0+255),b
  2048  001E68  C067  F06A         	movff	??___xxtofl,??___xxtofl+3
  2049  001E6C  6B69               	clrf	(??___xxtofl+2)& (0+255),b
  2050  001E6E  6B68               	clrf	(??___xxtofl+1)& (0+255),b
  2051  001E70  6B67               	clrf	??___xxtofl& (0+255),b
  2052  001E72  5167               	movf	??___xxtofl& (0+255),w,b
  2053  001E74  136D               	iorwf	___xxtofl@arg& (0+255),f,b
  2054  001E76  5168               	movf	(??___xxtofl+1)& (0+255),w,b
  2055  001E78  136E               	iorwf	(___xxtofl@arg+1)& (0+255),f,b
  2056  001E7A  5169               	movf	(??___xxtofl+2)& (0+255),w,b
  2057  001E7C  136F               	iorwf	(___xxtofl@arg+2)& (0+255),f,b
  2058  001E7E  516A               	movf	(??___xxtofl+3)& (0+255),w,b
  2059  001E80  1370               	iorwf	(___xxtofl@arg+3)& (0+255),f,b
  2060  001E82                     
  2061                           ; BSR set to: 0
  2062  001E82  516B               	movf	___xxtofl@sign& (0+255),w,b
  2063  001E84  B4D8               	btfsc	status,2,c
  2064  001E86  EF47  F00F         	goto	u3661
  2065  001E8A  EF49  F00F         	goto	u3660
  2066  001E8E                     u3661:
  2067  001E8E  EF51  F00F         	goto	l2949
  2068  001E92                     u3660:
  2069  001E92                     
  2070                           ; BSR set to: 0
  2071  001E92  BF66               	btfsc	(___xxtofl@val+3)& (0+255),7,b
  2072  001E94  EF50  F00F         	goto	u3670
  2073  001E98  EF4E  F00F         	goto	u3671
  2074  001E9C                     u3671:
  2075  001E9C  EF51  F00F         	goto	l2949
  2076  001EA0                     u3670:
  2077  001EA0                     
  2078                           ; BSR set to: 0
  2079  001EA0  8F70               	bsf	(___xxtofl@arg+3)& (0+255),7,b
  2080  001EA2                     l2949:
  2081                           
  2082                           ; BSR set to: 0
  2083  001EA2  C06D  F063         	movff	___xxtofl@arg,?___xxtofl
  2084  001EA6  C06E  F064         	movff	___xxtofl@arg+1,?___xxtofl+1
  2085  001EAA  C06F  F065         	movff	___xxtofl@arg+2,?___xxtofl+2
  2086  001EAE  C070  F066         	movff	___xxtofl@arg+3,?___xxtofl+3
  2087  001EB2                     l860:
  2088                           
  2089                           ; BSR set to: 0
  2090  001EB2  0012               	return		;funcret
  2091  001EB4                     __end_of___xxtofl:
  2092                           	callstack 0
  2093                           
  2094 ;; *************** function ___flmul *****************
  2095 ;; Defined at:
  2096 ;;		line 8 in file "C:\Program Files\Microchip\xc8\v2.20\pic\sources\c99\common\sprcmul.c"
  2097 ;; Parameters:    Size  Location     Type
  2098 ;;  b               4   19[BANK0 ] unsigned char 
  2099 ;;  a               4   23[BANK0 ] unsigned char 
  2100 ;; Auto vars:     Size  Location     Type
  2101 ;;  prod            4   38[BANK0 ] struct .
  2102 ;;  grs             4   32[BANK0 ] unsigned long 
  2103 ;;  temp            2   42[BANK0 ] struct .
  2104 ;;  bexp            1   37[BANK0 ] unsigned char 
  2105 ;;  aexp            1   36[BANK0 ] unsigned char 
  2106 ;;  sign            1   31[BANK0 ] unsigned char 
  2107 ;; Return value:  Size  Location     Type
  2108 ;;                  4   19[BANK0 ] unsigned char 
  2109 ;; Registers used:
  2110 ;;		wreg, status,2, status,0, prodl, prodh
  2111 ;; Tracked objects:
  2112 ;;		On entry : 0/0
  2113 ;;		On exit  : 0/0
  2114 ;;		Unchanged: 0/0
  2115 ;; Data sizes:     COMRAM   BANK0   BANK1   BANK2   BANK3   BANK4   BANK5   BANK6   BANK7
  2116 ;;      Params:         0       8       0       0       0       0       0       0       0
  2117 ;;      Locals:         0      13       0       0       0       0       0       0       0
  2118 ;;      Temps:          0       4       0       0       0       0       0       0       0
  2119 ;;      Totals:         0      25       0       0       0       0       0       0       0
  2120 ;;Total ram usage:       25 bytes
  2121 ;; Hardware stack levels used:    1
  2122 ;; Hardware stack levels required when called:    4
  2123 ;; This function calls:
  2124 ;;		Nothing
  2125 ;; This function is called by:
  2126 ;;		_Temp
  2127 ;; This function uses a non-reentrant model
  2128 ;;
  2129                           
  2130                           	psect	text5
  2131  000B66                     __ptext5:
  2132                           	callstack 0
  2133  000B66                     ___flmul:
  2134                           	callstack 25
  2135  000B66  0100               	movlb	0	; () banked
  2136  000B68  5176               	movf	(___flmul@b+3)& (0+255),w,b
  2137  000B6A  0B80               	andlw	128
  2138  000B6C  6F7F               	movwf	___flmul@sign& (0+255),b
  2139  000B6E  5176               	movf	(___flmul@b+3)& (0+255),w,b
  2140  000B70  2576               	addwf	(___flmul@b+3)& (0+255),w,b
  2141  000B72  6F85               	movwf	___flmul@bexp& (0+255),b
  2142  000B74                     
  2143                           ; BSR set to: 0
  2144  000B74  AF75               	btfss	(___flmul@b+2)& (0+255),7,b
  2145  000B76  EFBF  F005         	goto	u3341
  2146  000B7A  EFC1  F005         	goto	u3340
  2147  000B7E                     u3341:
  2148  000B7E  EFC2  F005         	goto	l2761
  2149  000B82                     u3340:
  2150  000B82                     
  2151                           ; BSR set to: 0
  2152  000B82  8185               	bsf	___flmul@bexp& (0+255),0,b
  2153  000B84                     l2761:
  2154                           
  2155                           ; BSR set to: 0
  2156  000B84  5185               	movf	___flmul@bexp& (0+255),w,b
  2157  000B86  B4D8               	btfsc	status,2,c
  2158  000B88  EFC8  F005         	goto	u3351
  2159  000B8C  EFCA  F005         	goto	u3350
  2160  000B90                     u3351:
  2161  000B90  EFDD  F005         	goto	l2769
  2162  000B94                     u3350:
  2163  000B94                     
  2164                           ; BSR set to: 0
  2165  000B94  2985               	incf	___flmul@bexp& (0+255),w,b
  2166  000B96  A4D8               	btfss	status,2,c
  2167  000B98  EFD0  F005         	goto	u3361
  2168  000B9C  EFD2  F005         	goto	u3360
  2169  000BA0                     u3361:
  2170  000BA0  EFDA  F005         	goto	l2767
  2171  000BA4                     u3360:
  2172  000BA4                     
  2173                           ; BSR set to: 0
  2174  000BA4  0E00               	movlw	0
  2175  000BA6  6F73               	movwf	___flmul@b& (0+255),b
  2176  000BA8  0E00               	movlw	0
  2177  000BAA  6F74               	movwf	(___flmul@b+1)& (0+255),b
  2178  000BAC  0E00               	movlw	0
  2179  000BAE  6F75               	movwf	(___flmul@b+2)& (0+255),b
  2180  000BB0  0E00               	movlw	0
  2181  000BB2  6F76               	movwf	(___flmul@b+3)& (0+255),b
  2182  000BB4                     l2767:
  2183                           
  2184                           ; BSR set to: 0
  2185  000BB4  8F75               	bsf	(___flmul@b+2)& (0+255),7,b
  2186  000BB6  EFE5  F005         	goto	l2771
  2187  000BBA                     l2769:
  2188                           
  2189                           ; BSR set to: 0
  2190  000BBA  0E00               	movlw	0
  2191  000BBC  6F73               	movwf	___flmul@b& (0+255),b
  2192  000BBE  0E00               	movlw	0
  2193  000BC0  6F74               	movwf	(___flmul@b+1)& (0+255),b
  2194  000BC2  0E00               	movlw	0
  2195  000BC4  6F75               	movwf	(___flmul@b+2)& (0+255),b
  2196  000BC6  0E00               	movlw	0
  2197  000BC8  6F76               	movwf	(___flmul@b+3)& (0+255),b
  2198  000BCA                     l2771:
  2199                           
  2200                           ; BSR set to: 0
  2201  000BCA  517A               	movf	(___flmul@a+3)& (0+255),w,b
  2202  000BCC  0B80               	andlw	128
  2203  000BCE  1B7F               	xorwf	___flmul@sign& (0+255),f,b
  2204  000BD0                     
  2205                           ; BSR set to: 0
  2206  000BD0  517A               	movf	(___flmul@a+3)& (0+255),w,b
  2207  000BD2  257A               	addwf	(___flmul@a+3)& (0+255),w,b
  2208  000BD4  6F84               	movwf	___flmul@aexp& (0+255),b
  2209  000BD6                     
  2210                           ; BSR set to: 0
  2211  000BD6  AF79               	btfss	(___flmul@a+2)& (0+255),7,b
  2212  000BD8  EFF0  F005         	goto	u3371
  2213  000BDC  EFF2  F005         	goto	u3370
  2214  000BE0                     u3371:
  2215  000BE0  EFF3  F005         	goto	l2779
  2216  000BE4                     u3370:
  2217  000BE4                     
  2218                           ; BSR set to: 0
  2219  000BE4  8184               	bsf	___flmul@aexp& (0+255),0,b
  2220  000BE6                     l2779:
  2221                           
  2222                           ; BSR set to: 0
  2223  000BE6  5184               	movf	___flmul@aexp& (0+255),w,b
  2224  000BE8  B4D8               	btfsc	status,2,c
  2225  000BEA  EFF9  F005         	goto	u3381
  2226  000BEE  EFFB  F005         	goto	u3380
  2227  000BF2                     u3381:
  2228  000BF2  EF0E  F006         	goto	l2787
  2229  000BF6                     u3380:
  2230  000BF6                     
  2231                           ; BSR set to: 0
  2232  000BF6  2984               	incf	___flmul@aexp& (0+255),w,b
  2233  000BF8  A4D8               	btfss	status,2,c
  2234  000BFA  EF01  F006         	goto	u3391
  2235  000BFE  EF03  F006         	goto	u3390
  2236  000C02                     u3391:
  2237  000C02  EF0B  F006         	goto	l2785
  2238  000C06                     u3390:
  2239  000C06                     
  2240                           ; BSR set to: 0
  2241  000C06  0E00               	movlw	0
  2242  000C08  6F77               	movwf	___flmul@a& (0+255),b
  2243  000C0A  0E00               	movlw	0
  2244  000C0C  6F78               	movwf	(___flmul@a+1)& (0+255),b
  2245  000C0E  0E00               	movlw	0
  2246  000C10  6F79               	movwf	(___flmul@a+2)& (0+255),b
  2247  000C12  0E00               	movlw	0
  2248  000C14  6F7A               	movwf	(___flmul@a+3)& (0+255),b
  2249  000C16                     l2785:
  2250                           
  2251                           ; BSR set to: 0
  2252  000C16  8F79               	bsf	(___flmul@a+2)& (0+255),7,b
  2253  000C18  EF16  F006         	goto	l816
  2254  000C1C                     l2787:
  2255                           
  2256                           ; BSR set to: 0
  2257  000C1C  0E00               	movlw	0
  2258  000C1E  6F77               	movwf	___flmul@a& (0+255),b
  2259  000C20  0E00               	movlw	0
  2260  000C22  6F78               	movwf	(___flmul@a+1)& (0+255),b
  2261  000C24  0E00               	movlw	0
  2262  000C26  6F79               	movwf	(___flmul@a+2)& (0+255),b
  2263  000C28  0E00               	movlw	0
  2264  000C2A  6F7A               	movwf	(___flmul@a+3)& (0+255),b
  2265  000C2C                     l816:
  2266                           
  2267                           ; BSR set to: 0
  2268  000C2C  5184               	movf	___flmul@aexp& (0+255),w,b
  2269  000C2E  B4D8               	btfsc	status,2,c
  2270  000C30  EF1C  F006         	goto	u3401
  2271  000C34  EF1E  F006         	goto	u3400
  2272  000C38                     u3401:
  2273  000C38  EF26  F006         	goto	l2791
  2274  000C3C                     u3400:
  2275  000C3C                     
  2276                           ; BSR set to: 0
  2277  000C3C  5185               	movf	___flmul@bexp& (0+255),w,b
  2278  000C3E  A4D8               	btfss	status,2,c
  2279  000C40  EF24  F006         	goto	u3411
  2280  000C44  EF26  F006         	goto	u3410
  2281  000C48                     u3411:
  2282  000C48  EF30  F006         	goto	l2795
  2283  000C4C                     u3410:
  2284  000C4C                     l2791:
  2285                           
  2286                           ; BSR set to: 0
  2287  000C4C  0E00               	movlw	0
  2288  000C4E  6F73               	movwf	?___flmul& (0+255),b
  2289  000C50  0E00               	movlw	0
  2290  000C52  6F74               	movwf	(?___flmul+1)& (0+255),b
  2291  000C54  0E00               	movlw	0
  2292  000C56  6F75               	movwf	(?___flmul+2)& (0+255),b
  2293  000C58  0E00               	movlw	0
  2294  000C5A  6F76               	movwf	(?___flmul+3)& (0+255),b
  2295  000C5C  EFC8  F007         	goto	l820
  2296  000C60                     l2795:
  2297                           
  2298                           ; BSR set to: 0
  2299  000C60  5179               	movf	(___flmul@a+2)& (0+255),w,b
  2300  000C62  0373               	mulwf	___flmul@b& (0+255),b
  2301  000C64  CFF3 F08A          	movff	prodl,___flmul@temp
  2302  000C68  CFF4 F08B          	movff	prodh,___flmul@temp+1
  2303  000C6C                     
  2304                           ; BSR set to: 0
  2305  000C6C  518A               	movf	___flmul@temp& (0+255),w,b
  2306  000C6E  6F80               	movwf	___flmul@grs& (0+255),b
  2307  000C70  6B81               	clrf	(___flmul@grs+1)& (0+255),b
  2308  000C72  6B82               	clrf	(___flmul@grs+2)& (0+255),b
  2309  000C74  6B83               	clrf	(___flmul@grs+3)& (0+255),b
  2310  000C76                     
  2311                           ; BSR set to: 0
  2312  000C76  518B               	movf	(___flmul@temp+1)& (0+255),w,b
  2313  000C78  6F86               	movwf	___flmul@prod& (0+255),b
  2314  000C7A  6B87               	clrf	(___flmul@prod+1)& (0+255),b
  2315  000C7C  6B88               	clrf	(___flmul@prod+2)& (0+255),b
  2316  000C7E  6B89               	clrf	(___flmul@prod+3)& (0+255),b
  2317  000C80  5178               	movf	(___flmul@a+1)& (0+255),w,b
  2318  000C82  0374               	mulwf	(___flmul@b+1)& (0+255),b
  2319  000C84  CFF3 F08A          	movff	prodl,___flmul@temp
  2320  000C88  CFF4 F08B          	movff	prodh,___flmul@temp+1
  2321  000C8C                     
  2322                           ; BSR set to: 0
  2323  000C8C  518A               	movf	___flmul@temp& (0+255),w,b
  2324  000C8E  2780               	addwf	___flmul@grs& (0+255),f,b
  2325  000C90  0E00               	movlw	0
  2326  000C92  2381               	addwfc	(___flmul@grs+1)& (0+255),f,b
  2327  000C94  2382               	addwfc	(___flmul@grs+2)& (0+255),f,b
  2328  000C96  2383               	addwfc	(___flmul@grs+3)& (0+255),f,b
  2329  000C98                     
  2330                           ; BSR set to: 0
  2331  000C98  518B               	movf	(___flmul@temp+1)& (0+255),w,b
  2332  000C9A  2786               	addwf	___flmul@prod& (0+255),f,b
  2333  000C9C  0E00               	movlw	0
  2334  000C9E  2387               	addwfc	(___flmul@prod+1)& (0+255),f,b
  2335  000CA0  2388               	addwfc	(___flmul@prod+2)& (0+255),f,b
  2336  000CA2  2389               	addwfc	(___flmul@prod+3)& (0+255),f,b
  2337  000CA4  5177               	movf	___flmul@a& (0+255),w,b
  2338  000CA6  0375               	mulwf	(___flmul@b+2)& (0+255),b
  2339  000CA8  CFF3 F08A          	movff	prodl,___flmul@temp
  2340  000CAC  CFF4 F08B          	movff	prodh,___flmul@temp+1
  2341  000CB0                     
  2342                           ; BSR set to: 0
  2343  000CB0  518A               	movf	___flmul@temp& (0+255),w,b
  2344  000CB2  2780               	addwf	___flmul@grs& (0+255),f,b
  2345  000CB4  0E00               	movlw	0
  2346  000CB6  2381               	addwfc	(___flmul@grs+1)& (0+255),f,b
  2347  000CB8  2382               	addwfc	(___flmul@grs+2)& (0+255),f,b
  2348  000CBA  2383               	addwfc	(___flmul@grs+3)& (0+255),f,b
  2349  000CBC                     
  2350                           ; BSR set to: 0
  2351  000CBC  518B               	movf	(___flmul@temp+1)& (0+255),w,b
  2352  000CBE  2786               	addwf	___flmul@prod& (0+255),f,b
  2353  000CC0  0E00               	movlw	0
  2354  000CC2  2387               	addwfc	(___flmul@prod+1)& (0+255),f,b
  2355  000CC4  2388               	addwfc	(___flmul@prod+2)& (0+255),f,b
  2356  000CC6  2389               	addwfc	(___flmul@prod+3)& (0+255),f,b
  2357  000CC8                     
  2358                           ; BSR set to: 0
  2359  000CC8  C082  F083         	movff	___flmul@grs+2,___flmul@grs+3
  2360  000CCC  C081  F082         	movff	___flmul@grs+1,___flmul@grs+2
  2361  000CD0  C080  F081         	movff	___flmul@grs,___flmul@grs+1
  2362  000CD4  6B80               	clrf	___flmul@grs& (0+255),b
  2363  000CD6                     
  2364                           ; BSR set to: 0
  2365  000CD6  5177               	movf	___flmul@a& (0+255),w,b
  2366  000CD8  0374               	mulwf	(___flmul@b+1)& (0+255),b
  2367  000CDA  CFF3 F08A          	movff	prodl,___flmul@temp
  2368  000CDE  CFF4 F08B          	movff	prodh,___flmul@temp+1
  2369  000CE2                     
  2370                           ; BSR set to: 0
  2371  000CE2  518A               	movf	___flmul@temp& (0+255),w,b
  2372  000CE4  2780               	addwf	___flmul@grs& (0+255),f,b
  2373  000CE6  518B               	movf	(___flmul@temp+1)& (0+255),w,b
  2374  000CE8  2381               	addwfc	(___flmul@grs+1)& (0+255),f,b
  2375  000CEA  0E00               	movlw	0
  2376  000CEC  2382               	addwfc	(___flmul@grs+2)& (0+255),f,b
  2377  000CEE  0E00               	movlw	0
  2378  000CF0  2383               	addwfc	(___flmul@grs+3)& (0+255),f,b
  2379  000CF2                     
  2380                           ; BSR set to: 0
  2381  000CF2  5178               	movf	(___flmul@a+1)& (0+255),w,b
  2382  000CF4  0373               	mulwf	___flmul@b& (0+255),b
  2383  000CF6  CFF3 F08A          	movff	prodl,___flmul@temp
  2384  000CFA  CFF4 F08B          	movff	prodh,___flmul@temp+1
  2385  000CFE                     
  2386                           ; BSR set to: 0
  2387  000CFE  518A               	movf	___flmul@temp& (0+255),w,b
  2388  000D00  2780               	addwf	___flmul@grs& (0+255),f,b
  2389  000D02  518B               	movf	(___flmul@temp+1)& (0+255),w,b
  2390  000D04  2381               	addwfc	(___flmul@grs+1)& (0+255),f,b
  2391  000D06  0E00               	movlw	0
  2392  000D08  2382               	addwfc	(___flmul@grs+2)& (0+255),f,b
  2393  000D0A  0E00               	movlw	0
  2394  000D0C  2383               	addwfc	(___flmul@grs+3)& (0+255),f,b
  2395  000D0E                     
  2396                           ; BSR set to: 0
  2397  000D0E  C082  F083         	movff	___flmul@grs+2,___flmul@grs+3
  2398  000D12  C081  F082         	movff	___flmul@grs+1,___flmul@grs+2
  2399  000D16  C080  F081         	movff	___flmul@grs,___flmul@grs+1
  2400  000D1A  6B80               	clrf	___flmul@grs& (0+255),b
  2401  000D1C  5177               	movf	___flmul@a& (0+255),w,b
  2402  000D1E  0373               	mulwf	___flmul@b& (0+255),b
  2403  000D20  CFF3 F08A          	movff	prodl,___flmul@temp
  2404  000D24  CFF4 F08B          	movff	prodh,___flmul@temp+1
  2405  000D28                     
  2406                           ; BSR set to: 0
  2407  000D28  518A               	movf	___flmul@temp& (0+255),w,b
  2408  000D2A  2780               	addwf	___flmul@grs& (0+255),f,b
  2409  000D2C  518B               	movf	(___flmul@temp+1)& (0+255),w,b
  2410  000D2E  2381               	addwfc	(___flmul@grs+1)& (0+255),f,b
  2411  000D30  0E00               	movlw	0
  2412  000D32  2382               	addwfc	(___flmul@grs+2)& (0+255),f,b
  2413  000D34  0E00               	movlw	0
  2414  000D36  2383               	addwfc	(___flmul@grs+3)& (0+255),f,b
  2415  000D38                     
  2416                           ; BSR set to: 0
  2417  000D38  5179               	movf	(___flmul@a+2)& (0+255),w,b
  2418  000D3A  0374               	mulwf	(___flmul@b+1)& (0+255),b
  2419  000D3C  CFF3 F08A          	movff	prodl,___flmul@temp
  2420  000D40  CFF4 F08B          	movff	prodh,___flmul@temp+1
  2421  000D44  518A               	movf	___flmul@temp& (0+255),w,b
  2422  000D46  2786               	addwf	___flmul@prod& (0+255),f,b
  2423  000D48  518B               	movf	(___flmul@temp+1)& (0+255),w,b
  2424  000D4A  2387               	addwfc	(___flmul@prod+1)& (0+255),f,b
  2425  000D4C  0E00               	movlw	0
  2426  000D4E  2388               	addwfc	(___flmul@prod+2)& (0+255),f,b
  2427  000D50  0E00               	movlw	0
  2428  000D52  2389               	addwfc	(___flmul@prod+3)& (0+255),f,b
  2429  000D54                     
  2430                           ; BSR set to: 0
  2431  000D54  5178               	movf	(___flmul@a+1)& (0+255),w,b
  2432  000D56  0375               	mulwf	(___flmul@b+2)& (0+255),b
  2433  000D58  CFF3 F08A          	movff	prodl,___flmul@temp
  2434  000D5C  CFF4 F08B          	movff	prodh,___flmul@temp+1
  2435  000D60                     
  2436                           ; BSR set to: 0
  2437  000D60  518A               	movf	___flmul@temp& (0+255),w,b
  2438  000D62  2786               	addwf	___flmul@prod& (0+255),f,b
  2439  000D64  518B               	movf	(___flmul@temp+1)& (0+255),w,b
  2440  000D66  2387               	addwfc	(___flmul@prod+1)& (0+255),f,b
  2441  000D68  0E00               	movlw	0
  2442  000D6A  2388               	addwfc	(___flmul@prod+2)& (0+255),f,b
  2443  000D6C  0E00               	movlw	0
  2444  000D6E  2389               	addwfc	(___flmul@prod+3)& (0+255),f,b
  2445  000D70  5179               	movf	(___flmul@a+2)& (0+255),w,b
  2446  000D72  0375               	mulwf	(___flmul@b+2)& (0+255),b
  2447  000D74  CFF3 F08A          	movff	prodl,___flmul@temp
  2448  000D78  CFF4 F08B          	movff	prodh,___flmul@temp+1
  2449  000D7C                     
  2450                           ; BSR set to: 0
  2451  000D7C  518A               	movf	___flmul@temp& (0+255),w,b
  2452  000D7E  6F7B               	movwf	??___flmul& (0+255),b
  2453  000D80  518B               	movf	(___flmul@temp+1)& (0+255),w,b
  2454  000D82  6F7C               	movwf	(??___flmul+1)& (0+255),b
  2455  000D84  6B7D               	clrf	(??___flmul+2)& (0+255),b
  2456  000D86  6B7E               	clrf	(??___flmul+3)& (0+255),b
  2457  000D88  C07D  F07E         	movff	??___flmul+2,??___flmul+3
  2458  000D8C  C07C  F07D         	movff	??___flmul+1,??___flmul+2
  2459  000D90  C07B  F07C         	movff	??___flmul,??___flmul+1
  2460  000D94  6B7B               	clrf	??___flmul& (0+255),b
  2461  000D96  517B               	movf	??___flmul& (0+255),w,b
  2462  000D98  2786               	addwf	___flmul@prod& (0+255),f,b
  2463  000D9A  517C               	movf	(??___flmul+1)& (0+255),w,b
  2464  000D9C  2387               	addwfc	(___flmul@prod+1)& (0+255),f,b
  2465  000D9E  517D               	movf	(??___flmul+2)& (0+255),w,b
  2466  000DA0  2388               	addwfc	(___flmul@prod+2)& (0+255),f,b
  2467  000DA2  517E               	movf	(??___flmul+3)& (0+255),w,b
  2468  000DA4  2389               	addwfc	(___flmul@prod+3)& (0+255),f,b
  2469  000DA6                     
  2470                           ; BSR set to: 0
  2471  000DA6  C080  F07B         	movff	___flmul@grs,??___flmul
  2472  000DAA  C081  F07C         	movff	___flmul@grs+1,??___flmul+1
  2473  000DAE  C082  F07D         	movff	___flmul@grs+2,??___flmul+2
  2474  000DB2  C083  F07E         	movff	___flmul@grs+3,??___flmul+3
  2475  000DB6  0E19               	movlw	25
  2476  000DB8  EFE3  F006         	goto	u3420
  2477  000DBC                     u3425:
  2478  000DBC  90D8               	bcf	status,0,c
  2479  000DBE  337E               	rrcf	(??___flmul+3)& (0+255),f,b
  2480  000DC0  337D               	rrcf	(??___flmul+2)& (0+255),f,b
  2481  000DC2  337C               	rrcf	(??___flmul+1)& (0+255),f,b
  2482  000DC4  337B               	rrcf	??___flmul& (0+255),f,b
  2483  000DC6                     u3420:
  2484  000DC6  2EE8               	decfsz	wreg,f,c
  2485  000DC8  EFDE  F006         	goto	u3425
  2486  000DCC  517B               	movf	??___flmul& (0+255),w,b
  2487  000DCE  2786               	addwf	___flmul@prod& (0+255),f,b
  2488  000DD0  517C               	movf	(??___flmul+1)& (0+255),w,b
  2489  000DD2  2387               	addwfc	(___flmul@prod+1)& (0+255),f,b
  2490  000DD4  517D               	movf	(??___flmul+2)& (0+255),w,b
  2491  000DD6  2388               	addwfc	(___flmul@prod+2)& (0+255),f,b
  2492  000DD8  517E               	movf	(??___flmul+3)& (0+255),w,b
  2493  000DDA  2389               	addwfc	(___flmul@prod+3)& (0+255),f,b
  2494  000DDC                     
  2495                           ; BSR set to: 0
  2496  000DDC  C082  F083         	movff	___flmul@grs+2,___flmul@grs+3
  2497  000DE0  C081  F082         	movff	___flmul@grs+1,___flmul@grs+2
  2498  000DE4  C080  F081         	movff	___flmul@grs,___flmul@grs+1
  2499  000DE8  6B80               	clrf	___flmul@grs& (0+255),b
  2500  000DEA                     
  2501                           ; BSR set to: 0
  2502  000DEA  5184               	movf	___flmul@aexp& (0+255),w,b
  2503  000DEC  C085  F07B         	movff	___flmul@bexp,??___flmul
  2504  000DF0  6B7C               	clrf	(??___flmul+1)& (0+255),b
  2505  000DF2  277B               	addwf	??___flmul& (0+255),f,b
  2506  000DF4  0E00               	movlw	0
  2507  000DF6  237C               	addwfc	(??___flmul+1)& (0+255),f,b
  2508  000DF8  0E82               	movlw	130
  2509  000DFA  257B               	addwf	??___flmul& (0+255),w,b
  2510  000DFC  6F8A               	movwf	___flmul@temp& (0+255),b
  2511  000DFE  0EFF               	movlw	255
  2512  000E00  217C               	addwfc	(??___flmul+1)& (0+255),w,b
  2513  000E02  6F8B               	movwf	(___flmul@temp+1)& (0+255),b
  2514  000E04  EF19  F007         	goto	l2843
  2515  000E08                     l2837:
  2516                           
  2517                           ; BSR set to: 0
  2518  000E08  90D8               	bcf	status,0,c
  2519  000E0A  3786               	rlcf	___flmul@prod& (0+255),f,b
  2520  000E0C  3787               	rlcf	(___flmul@prod+1)& (0+255),f,b
  2521  000E0E  3788               	rlcf	(___flmul@prod+2)& (0+255),f,b
  2522  000E10  3789               	rlcf	(___flmul@prod+3)& (0+255),f,b
  2523  000E12                     
  2524                           ; BSR set to: 0
  2525  000E12  AF83               	btfss	(___flmul@grs+3)& (0+255),7,b
  2526  000E14  EF0E  F007         	goto	u3431
  2527  000E18  EF10  F007         	goto	u3430
  2528  000E1C                     u3431:
  2529  000E1C  EF11  F007         	goto	l823
  2530  000E20                     u3430:
  2531  000E20                     
  2532                           ; BSR set to: 0
  2533  000E20  8186               	bsf	___flmul@prod& (0+255),0,b
  2534  000E22                     l823:
  2535                           
  2536                           ; BSR set to: 0
  2537  000E22  90D8               	bcf	status,0,c
  2538  000E24  3780               	rlcf	___flmul@grs& (0+255),f,b
  2539  000E26  3781               	rlcf	(___flmul@grs+1)& (0+255),f,b
  2540  000E28  3782               	rlcf	(___flmul@grs+2)& (0+255),f,b
  2541  000E2A  3783               	rlcf	(___flmul@grs+3)& (0+255),f,b
  2542  000E2C  078A               	decf	___flmul@temp& (0+255),f,b
  2543  000E2E  A0D8               	btfss	status,0,c
  2544  000E30  078B               	decf	(___flmul@temp+1)& (0+255),f,b
  2545  000E32                     l2843:
  2546                           
  2547                           ; BSR set to: 0
  2548  000E32  AF88               	btfss	(___flmul@prod+2)& (0+255),7,b
  2549  000E34  EF1E  F007         	goto	u3441
  2550  000E38  EF20  F007         	goto	u3440
  2551  000E3C                     u3441:
  2552  000E3C  EF04  F007         	goto	l2837
  2553  000E40                     u3440:
  2554  000E40                     
  2555                           ; BSR set to: 0
  2556  000E40  0E00               	movlw	0
  2557  000E42  6F84               	movwf	___flmul@aexp& (0+255),b
  2558  000E44                     
  2559                           ; BSR set to: 0
  2560  000E44  AF83               	btfss	(___flmul@grs+3)& (0+255),7,b
  2561  000E46  EF27  F007         	goto	u3451
  2562  000E4A  EF29  F007         	goto	u3450
  2563  000E4E                     u3451:
  2564  000E4E  EF4D  F007         	goto	l825
  2565  000E52                     u3450:
  2566  000E52                     
  2567                           ; BSR set to: 0
  2568  000E52  0EFF               	movlw	255
  2569  000E54  1580               	andwf	___flmul@grs& (0+255),w,b
  2570  000E56  6F7B               	movwf	??___flmul& (0+255),b
  2571  000E58  0EFF               	movlw	255
  2572  000E5A  1581               	andwf	(___flmul@grs+1)& (0+255),w,b
  2573  000E5C  6F7C               	movwf	(??___flmul+1)& (0+255),b
  2574  000E5E  0EFF               	movlw	255
  2575  000E60  1582               	andwf	(___flmul@grs+2)& (0+255),w,b
  2576  000E62  6F7D               	movwf	(??___flmul+2)& (0+255),b
  2577  000E64  0E7F               	movlw	127
  2578  000E66  1583               	andwf	(___flmul@grs+3)& (0+255),w,b
  2579  000E68  6F7E               	movwf	(??___flmul+3)& (0+255),b
  2580  000E6A  517B               	movf	??___flmul& (0+255),w,b
  2581  000E6C  117C               	iorwf	(??___flmul+1)& (0+255),w,b
  2582  000E6E  117D               	iorwf	(??___flmul+2)& (0+255),w,b
  2583  000E70  117E               	iorwf	(??___flmul+3)& (0+255),w,b
  2584  000E72  B4D8               	btfsc	status,2,c
  2585  000E74  EF3E  F007         	goto	u3461
  2586  000E78  EF40  F007         	goto	u3460
  2587  000E7C                     u3461:
  2588  000E7C  EF44  F007         	goto	l826
  2589  000E80                     u3460:
  2590  000E80                     l2851:
  2591                           
  2592                           ; BSR set to: 0
  2593  000E80  0E01               	movlw	1
  2594  000E82  6F84               	movwf	___flmul@aexp& (0+255),b
  2595  000E84  EF4D  F007         	goto	l825
  2596  000E88                     l826:
  2597                           
  2598                           ; BSR set to: 0
  2599  000E88  A186               	btfss	___flmul@prod& (0+255),0,b
  2600  000E8A  EF49  F007         	goto	u3471
  2601  000E8E  EF4B  F007         	goto	u3470
  2602  000E92                     u3471:
  2603  000E92  EF4D  F007         	goto	l825
  2604  000E96                     u3470:
  2605  000E96  EF40  F007         	goto	l2851
  2606  000E9A                     l825:
  2607                           
  2608                           ; BSR set to: 0
  2609  000E9A  5184               	movf	___flmul@aexp& (0+255),w,b
  2610  000E9C  B4D8               	btfsc	status,2,c
  2611  000E9E  EF53  F007         	goto	u3481
  2612  000EA2  EF55  F007         	goto	u3480
  2613  000EA6                     u3481:
  2614  000EA6  EF79  F007         	goto	l2863
  2615  000EAA                     u3480:
  2616  000EAA                     
  2617                           ; BSR set to: 0
  2618  000EAA  0E01               	movlw	1
  2619  000EAC  2786               	addwf	___flmul@prod& (0+255),f,b
  2620  000EAE  0E00               	movlw	0
  2621  000EB0  2387               	addwfc	(___flmul@prod+1)& (0+255),f,b
  2622  000EB2  2388               	addwfc	(___flmul@prod+2)& (0+255),f,b
  2623  000EB4  2389               	addwfc	(___flmul@prod+3)& (0+255),f,b
  2624  000EB6                     
  2625                           ; BSR set to: 0
  2626  000EB6  A189               	btfss	(___flmul@prod+3)& (0+255),0,b
  2627  000EB8  EF60  F007         	goto	u3491
  2628  000EBC  EF62  F007         	goto	u3490
  2629  000EC0                     u3491:
  2630  000EC0  EF79  F007         	goto	l2863
  2631  000EC4                     u3490:
  2632  000EC4                     
  2633                           ; BSR set to: 0
  2634  000EC4  C086  F07B         	movff	___flmul@prod,??___flmul
  2635  000EC8  C087  F07C         	movff	___flmul@prod+1,??___flmul+1
  2636  000ECC  C088  F07D         	movff	___flmul@prod+2,??___flmul+2
  2637  000ED0  C089  F07E         	movff	___flmul@prod+3,??___flmul+3
  2638  000ED4  357E               	rlcf	(??___flmul+3)& (0+255),w,b
  2639  000ED6  337E               	rrcf	(??___flmul+3)& (0+255),f,b
  2640  000ED8  337D               	rrcf	(??___flmul+2)& (0+255),f,b
  2641  000EDA  337C               	rrcf	(??___flmul+1)& (0+255),f,b
  2642  000EDC  337B               	rrcf	??___flmul& (0+255),f,b
  2643  000EDE  C07B  F086         	movff	??___flmul,___flmul@prod
  2644  000EE2  C07C  F087         	movff	??___flmul+1,___flmul@prod+1
  2645  000EE6  C07D  F088         	movff	??___flmul+2,___flmul@prod+2
  2646  000EEA  C07E  F089         	movff	??___flmul+3,___flmul@prod+3
  2647  000EEE                     
  2648                           ; BSR set to: 0
  2649  000EEE  4B8A               	infsnz	___flmul@temp& (0+255),f,b
  2650  000EF0  2B8B               	incf	(___flmul@temp+1)& (0+255),f,b
  2651  000EF2                     l2863:
  2652                           
  2653                           ; BSR set to: 0
  2654  000EF2  BF8B               	btfsc	(___flmul@temp+1)& (0+255),7,b
  2655  000EF4  EF84  F007         	goto	u3501
  2656  000EF8  518B               	movf	(___flmul@temp+1)& (0+255),w,b
  2657  000EFA  E108               	bnz	u3500
  2658  000EFC  298A               	incf	___flmul@temp& (0+255),w,b
  2659  000EFE  A0D8               	btfss	status,0,c
  2660  000F00  EF84  F007         	goto	u3501
  2661  000F04  EF86  F007         	goto	u3500
  2662  000F08                     u3501:
  2663  000F08  EF90  F007         	goto	l2867
  2664  000F0C                     u3500:
  2665  000F0C                     
  2666                           ; BSR set to: 0
  2667  000F0C  0E00               	movlw	0
  2668  000F0E  6F86               	movwf	___flmul@prod& (0+255),b
  2669  000F10  0E00               	movlw	0
  2670  000F12  6F87               	movwf	(___flmul@prod+1)& (0+255),b
  2671  000F14  0E80               	movlw	128
  2672  000F16  6F88               	movwf	(___flmul@prod+2)& (0+255),b
  2673  000F18  0E7F               	movlw	127
  2674  000F1A  6F89               	movwf	(___flmul@prod+3)& (0+255),b
  2675  000F1C  EFBE  F007         	goto	l2879
  2676  000F20                     l2867:
  2677                           
  2678                           ; BSR set to: 0
  2679  000F20  BF8B               	btfsc	(___flmul@temp+1)& (0+255),7,b
  2680  000F22  EF9D  F007         	goto	u3510
  2681  000F26  518B               	movf	(___flmul@temp+1)& (0+255),w,b
  2682  000F28  E106               	bnz	u3511
  2683  000F2A  058A               	decf	___flmul@temp& (0+255),w,b
  2684  000F2C  B0D8               	btfsc	status,0,c
  2685  000F2E  EF9B  F007         	goto	u3511
  2686  000F32  EF9D  F007         	goto	u3510
  2687  000F36                     u3511:
  2688  000F36  EFA9  F007         	goto	l833
  2689  000F3A                     u3510:
  2690  000F3A                     
  2691                           ; BSR set to: 0
  2692  000F3A  0E00               	movlw	0
  2693  000F3C  6F86               	movwf	___flmul@prod& (0+255),b
  2694  000F3E  0E00               	movlw	0
  2695  000F40  6F87               	movwf	(___flmul@prod+1)& (0+255),b
  2696  000F42  0E00               	movlw	0
  2697  000F44  6F88               	movwf	(___flmul@prod+2)& (0+255),b
  2698  000F46  0E00               	movlw	0
  2699  000F48  6F89               	movwf	(___flmul@prod+3)& (0+255),b
  2700  000F4A  0E00               	movlw	0
  2701  000F4C  6F7F               	movwf	___flmul@sign& (0+255),b
  2702  000F4E  EFBE  F007         	goto	l2879
  2703  000F52                     l833:
  2704                           
  2705                           ; BSR set to: 0
  2706  000F52  C08A  F085         	movff	___flmul@temp,___flmul@bexp
  2707  000F56                     
  2708                           ; BSR set to: 0
  2709  000F56  0EFF               	movlw	255
  2710  000F58  1786               	andwf	___flmul@prod& (0+255),f,b
  2711  000F5A  0EFF               	movlw	255
  2712  000F5C  1787               	andwf	(___flmul@prod+1)& (0+255),f,b
  2713  000F5E  0E7F               	movlw	127
  2714  000F60  1788               	andwf	(___flmul@prod+2)& (0+255),f,b
  2715  000F62  0E00               	movlw	0
  2716  000F64  1789               	andwf	(___flmul@prod+3)& (0+255),f,b
  2717  000F66                     
  2718                           ; BSR set to: 0
  2719  000F66  A185               	btfss	___flmul@bexp& (0+255),0,b
  2720  000F68  EFB8  F007         	goto	u3521
  2721  000F6C  EFBA  F007         	goto	u3520
  2722  000F70                     u3521:
  2723  000F70  EFBB  F007         	goto	l2877
  2724  000F74                     u3520:
  2725  000F74                     
  2726                           ; BSR set to: 0
  2727  000F74  8F88               	bsf	(___flmul@prod+2)& (0+255),7,b
  2728  000F76                     l2877:
  2729                           
  2730                           ; BSR set to: 0
  2731  000F76  90D8               	bcf	status,0,c
  2732  000F78  3185               	rrcf	___flmul@bexp& (0+255),w,b
  2733  000F7A  6F89               	movwf	(___flmul@prod+3)& (0+255),b
  2734  000F7C                     l2879:
  2735                           
  2736                           ; BSR set to: 0
  2737  000F7C  517F               	movf	___flmul@sign& (0+255),w,b
  2738  000F7E  1389               	iorwf	(___flmul@prod+3)& (0+255),f,b
  2739  000F80                     
  2740                           ; BSR set to: 0
  2741  000F80  C086  F073         	movff	___flmul@prod,?___flmul
  2742  000F84  C087  F074         	movff	___flmul@prod+1,?___flmul+1
  2743  000F88  C088  F075         	movff	___flmul@prod+2,?___flmul+2
  2744  000F8C  C089  F076         	movff	___flmul@prod+3,?___flmul+3
  2745  000F90                     l820:
  2746                           
  2747                           ; BSR set to: 0
  2748  000F90  0012               	return		;funcret
  2749  000F92                     __end_of___flmul:
  2750                           	callstack 0
  2751                           
  2752 ;; *************** function ___flge *****************
  2753 ;; Defined at:
  2754 ;;		line 4 in file "C:\Program Files\Microchip\xc8\v2.20\pic\sources\c99\common\flge.c"
  2755 ;; Parameters:    Size  Location     Type
  2756 ;;  ff1             4    3[BANK0 ] unsigned char 
  2757 ;;  ff2             4    7[BANK0 ] unsigned char 
  2758 ;; Auto vars:     Size  Location     Type
  2759 ;;		None
  2760 ;; Return value:  Size  Location     Type
  2761 ;;		None               void
  2762 ;; Registers used:
  2763 ;;		wreg, status,2, status,0
  2764 ;; Tracked objects:
  2765 ;;		On entry : 0/0
  2766 ;;		On exit  : 0/0
  2767 ;;		Unchanged: 0/0
  2768 ;; Data sizes:     COMRAM   BANK0   BANK1   BANK2   BANK3   BANK4   BANK5   BANK6   BANK7
  2769 ;;      Params:         0       8       0       0       0       0       0       0       0
  2770 ;;      Locals:         0       0       0       0       0       0       0       0       0
  2771 ;;      Temps:          0       4       0       0       0       0       0       0       0
  2772 ;;      Totals:         0      12       0       0       0       0       0       0       0
  2773 ;;Total ram usage:       12 bytes
  2774 ;; Hardware stack levels used:    1
  2775 ;; Hardware stack levels required when called:    4
  2776 ;; This function calls:
  2777 ;;		Nothing
  2778 ;; This function is called by:
  2779 ;;		_Temp
  2780 ;; This function uses a non-reentrant model
  2781 ;;
  2782                           
  2783                           	psect	text6
  2784  00293E                     __ptext6:
  2785                           	callstack 0
  2786  00293E                     ___flge:
  2787                           	callstack 25
  2788  00293E  0E00               	movlw	0
  2789  002940  0100               	movlb	0	; () banked
  2790  002942  1563               	andwf	___flge@ff1& (0+255),w,b
  2791  002944  6F6B               	movwf	??___flge& (0+255),b
  2792  002946  0E00               	movlw	0
  2793  002948  1564               	andwf	(___flge@ff1+1)& (0+255),w,b
  2794  00294A  6F6C               	movwf	(??___flge+1)& (0+255),b
  2795  00294C  0E80               	movlw	128
  2796  00294E  1565               	andwf	(___flge@ff1+2)& (0+255),w,b
  2797  002950  6F6D               	movwf	(??___flge+2)& (0+255),b
  2798  002952  0E7F               	movlw	127
  2799  002954  1566               	andwf	(___flge@ff1+3)& (0+255),w,b
  2800  002956  6F6E               	movwf	(??___flge+3)& (0+255),b
  2801  002958  516B               	movf	??___flge& (0+255),w,b
  2802  00295A  116C               	iorwf	(??___flge+1)& (0+255),w,b
  2803  00295C  116D               	iorwf	(??___flge+2)& (0+255),w,b
  2804  00295E  116E               	iorwf	(??___flge+3)& (0+255),w,b
  2805  002960  A4D8               	btfss	status,2,c
  2806  002962  EFB5  F014         	goto	u3531
  2807  002966  EFB7  F014         	goto	u3530
  2808  00296A                     u3531:
  2809  00296A  EFBF  F014         	goto	l2889
  2810  00296E                     u3530:
  2811  00296E                     
  2812                           ; BSR set to: 0
  2813  00296E  0E00               	movlw	0
  2814  002970  6F63               	movwf	___flge@ff1& (0+255),b
  2815  002972  0E00               	movlw	0
  2816  002974  6F64               	movwf	(___flge@ff1+1)& (0+255),b
  2817  002976  0E00               	movlw	0
  2818  002978  6F65               	movwf	(___flge@ff1+2)& (0+255),b
  2819  00297A  0E00               	movlw	0
  2820  00297C  6F66               	movwf	(___flge@ff1+3)& (0+255),b
  2821  00297E                     l2889:
  2822                           
  2823                           ; BSR set to: 0
  2824  00297E  0E00               	movlw	0
  2825  002980  1567               	andwf	___flge@ff2& (0+255),w,b
  2826  002982  6F6B               	movwf	??___flge& (0+255),b
  2827  002984  0E00               	movlw	0
  2828  002986  1568               	andwf	(___flge@ff2+1)& (0+255),w,b
  2829  002988  6F6C               	movwf	(??___flge+1)& (0+255),b
  2830  00298A  0E80               	movlw	128
  2831  00298C  1569               	andwf	(___flge@ff2+2)& (0+255),w,b
  2832  00298E  6F6D               	movwf	(??___flge+2)& (0+255),b
  2833  002990  0E7F               	movlw	127
  2834  002992  156A               	andwf	(___flge@ff2+3)& (0+255),w,b
  2835  002994  6F6E               	movwf	(??___flge+3)& (0+255),b
  2836  002996  516B               	movf	??___flge& (0+255),w,b
  2837  002998  116C               	iorwf	(??___flge+1)& (0+255),w,b
  2838  00299A  116D               	iorwf	(??___flge+2)& (0+255),w,b
  2839  00299C  116E               	iorwf	(??___flge+3)& (0+255),w,b
  2840  00299E  A4D8               	btfss	status,2,c
  2841  0029A0  EFD4  F014         	goto	u3541
  2842  0029A4  EFD6  F014         	goto	u3540
  2843  0029A8                     u3541:
  2844  0029A8  EFDE  F014         	goto	l2893
  2845  0029AC                     u3540:
  2846  0029AC                     
  2847                           ; BSR set to: 0
  2848  0029AC  0E00               	movlw	0
  2849  0029AE  6F67               	movwf	___flge@ff2& (0+255),b
  2850  0029B0  0E00               	movlw	0
  2851  0029B2  6F68               	movwf	(___flge@ff2+1)& (0+255),b
  2852  0029B4  0E00               	movlw	0
  2853  0029B6  6F69               	movwf	(___flge@ff2+2)& (0+255),b
  2854  0029B8  0E00               	movlw	0
  2855  0029BA  6F6A               	movwf	(___flge@ff2+3)& (0+255),b
  2856  0029BC                     l2893:
  2857                           
  2858                           ; BSR set to: 0
  2859  0029BC  AF66               	btfss	(___flge@ff1+3)& (0+255),7,b
  2860  0029BE  EFE3  F014         	goto	u3551
  2861  0029C2  EFE5  F014         	goto	u3550
  2862  0029C6                     u3551:
  2863  0029C6  EFEE  F014         	goto	l2897
  2864  0029CA                     u3550:
  2865  0029CA                     
  2866                           ; BSR set to: 0
  2867  0029CA  6D63               	negf	___flge@ff1& (0+255),b
  2868  0029CC  1F64               	comf	(___flge@ff1+1)& (0+255),f,b
  2869  0029CE  B0D8               	btfsc	status,0,c
  2870  0029D0  2B64               	incf	(___flge@ff1+1)& (0+255),f,b
  2871  0029D2  1F65               	comf	(___flge@ff1+2)& (0+255),f,b
  2872  0029D4  B0D8               	btfsc	status,0,c
  2873  0029D6  2B65               	incf	(___flge@ff1+2)& (0+255),f,b
  2874  0029D8  0E80               	movlw	128
  2875  0029DA  5766               	subfwb	(___flge@ff1+3)& (0+255),f,b
  2876  0029DC                     l2897:
  2877                           
  2878                           ; BSR set to: 0
  2879  0029DC  AF6A               	btfss	(___flge@ff2+3)& (0+255),7,b
  2880  0029DE  EFF3  F014         	goto	u3561
  2881  0029E2  EFF5  F014         	goto	u3560
  2882  0029E6                     u3561:
  2883  0029E6  EFFE  F014         	goto	l467
  2884  0029EA                     u3560:
  2885  0029EA                     
  2886                           ; BSR set to: 0
  2887  0029EA  6D67               	negf	___flge@ff2& (0+255),b
  2888  0029EC  1F68               	comf	(___flge@ff2+1)& (0+255),f,b
  2889  0029EE  B0D8               	btfsc	status,0,c
  2890  0029F0  2B68               	incf	(___flge@ff2+1)& (0+255),f,b
  2891  0029F2  1F69               	comf	(___flge@ff2+2)& (0+255),f,b
  2892  0029F4  B0D8               	btfsc	status,0,c
  2893  0029F6  2B69               	incf	(___flge@ff2+2)& (0+255),f,b
  2894  0029F8  0E80               	movlw	128
  2895  0029FA  576A               	subfwb	(___flge@ff2+3)& (0+255),f,b
  2896  0029FC                     l467:
  2897                           
  2898                           ; BSR set to: 0
  2899  0029FC  0E00               	movlw	0
  2900  0029FE  1B63               	xorwf	___flge@ff1& (0+255),f,b
  2901  002A00  0E00               	movlw	0
  2902  002A02  1B64               	xorwf	(___flge@ff1+1)& (0+255),f,b
  2903  002A04  0E00               	movlw	0
  2904  002A06  1B65               	xorwf	(___flge@ff1+2)& (0+255),f,b
  2905  002A08  0E80               	movlw	128
  2906  002A0A  1B66               	xorwf	(___flge@ff1+3)& (0+255),f,b
  2907  002A0C  0E00               	movlw	0
  2908  002A0E  1B67               	xorwf	___flge@ff2& (0+255),f,b
  2909  002A10  0E00               	movlw	0
  2910  002A12  1B68               	xorwf	(___flge@ff2+1)& (0+255),f,b
  2911  002A14  0E00               	movlw	0
  2912  002A16  1B69               	xorwf	(___flge@ff2+2)& (0+255),f,b
  2913  002A18  0E80               	movlw	128
  2914  002A1A  1B6A               	xorwf	(___flge@ff2+3)& (0+255),f,b
  2915  002A1C  5167               	movf	___flge@ff2& (0+255),w,b
  2916  002A1E  5D63               	subwf	___flge@ff1& (0+255),w,b
  2917  002A20  5168               	movf	(___flge@ff2+1)& (0+255),w,b
  2918  002A22  5964               	subwfb	(___flge@ff1+1)& (0+255),w,b
  2919  002A24  5169               	movf	(___flge@ff2+2)& (0+255),w,b
  2920  002A26  5965               	subwfb	(___flge@ff1+2)& (0+255),w,b
  2921  002A28  516A               	movf	(___flge@ff2+3)& (0+255),w,b
  2922  002A2A  5966               	subwfb	(___flge@ff1+3)& (0+255),w,b
  2923  002A2C  B0D8               	btfsc	status,0,c
  2924  002A2E  EF1B  F015         	goto	u3571
  2925  002A32  EF1D  F015         	goto	u3570
  2926  002A36                     u3571:
  2927  002A36  EF20  F015         	goto	l2903
  2928  002A3A                     u3570:
  2929  002A3A                     
  2930                           ; BSR set to: 0
  2931  002A3A  90D8               	bcf	status,0,c
  2932  002A3C  EF21  F015         	goto	l472
  2933  002A40                     l2903:
  2934                           
  2935                           ; BSR set to: 0
  2936  002A40  80D8               	bsf	status,0,c
  2937  002A42                     l472:
  2938                           
  2939                           ; BSR set to: 0
  2940  002A42  0012               	return		;funcret
  2941  002A44                     __end_of___flge:
  2942                           	callstack 0
  2943                           
  2944 ;; *************** function ___fldiv *****************
  2945 ;; Defined at:
  2946 ;;		line 11 in file "C:\Program Files\Microchip\xc8\v2.20\pic\sources\c99\common\sprcdiv.c"
  2947 ;; Parameters:    Size  Location     Type
  2948 ;;  b               4   44[BANK0 ] unsigned char 
  2949 ;;  a               4   48[BANK0 ] unsigned char 
  2950 ;; Auto vars:     Size  Location     Type
  2951 ;;  grs             4   63[BANK0 ] unsigned long 
  2952 ;;  rem             4   56[BANK0 ] unsigned long 
  2953 ;;  new_exp         2   61[BANK0 ] short 
  2954 ;;  aexp            1   68[BANK0 ] unsigned char 
  2955 ;;  bexp            1   67[BANK0 ] unsigned char 
  2956 ;;  sign            1   60[BANK0 ] unsigned char 
  2957 ;; Return value:  Size  Location     Type
  2958 ;;                  4   44[BANK0 ] unsigned char 
  2959 ;; Registers used:
  2960 ;;		wreg, status,2, status,0
  2961 ;; Tracked objects:
  2962 ;;		On entry : 0/0
  2963 ;;		On exit  : 0/0
  2964 ;;		Unchanged: 0/0
  2965 ;; Data sizes:     COMRAM   BANK0   BANK1   BANK2   BANK3   BANK4   BANK5   BANK6   BANK7
  2966 ;;      Params:         0       8       0       0       0       0       0       0       0
  2967 ;;      Locals:         0      13       0       0       0       0       0       0       0
  2968 ;;      Temps:          0       4       0       0       0       0       0       0       0
  2969 ;;      Totals:         0      25       0       0       0       0       0       0       0
  2970 ;;Total ram usage:       25 bytes
  2971 ;; Hardware stack levels used:    1
  2972 ;; Hardware stack levels required when called:    4
  2973 ;; This function calls:
  2974 ;;		Nothing
  2975 ;; This function is called by:
  2976 ;;		_Temp
  2977 ;; This function uses a non-reentrant model
  2978 ;;
  2979                           
  2980                           	psect	text7
  2981  0013BC                     __ptext7:
  2982                           	callstack 0
  2983  0013BC                     ___fldiv:
  2984                           	callstack 25
  2985  0013BC  0100               	movlb	0	; () banked
  2986  0013BE  518F               	movf	(___fldiv@b+3)& (0+255),w,b
  2987  0013C0  0B80               	andlw	128
  2988  0013C2  6F9C               	movwf	___fldiv@sign& (0+255),b
  2989  0013C4  518F               	movf	(___fldiv@b+3)& (0+255),w,b
  2990  0013C6  258F               	addwf	(___fldiv@b+3)& (0+255),w,b
  2991  0013C8  6FA3               	movwf	___fldiv@bexp& (0+255),b
  2992  0013CA                     
  2993                           ; BSR set to: 0
  2994  0013CA  AF8E               	btfss	(___fldiv@b+2)& (0+255),7,b
  2995  0013CC  EFEA  F009         	goto	u3111
  2996  0013D0  EFEC  F009         	goto	u3110
  2997  0013D4                     u3111:
  2998  0013D4  EFED  F009         	goto	l2623
  2999  0013D8                     u3110:
  3000  0013D8                     
  3001                           ; BSR set to: 0
  3002  0013D8  81A3               	bsf	___fldiv@bexp& (0+255),0,b
  3003  0013DA                     l2623:
  3004                           
  3005                           ; BSR set to: 0
  3006  0013DA  51A3               	movf	___fldiv@bexp& (0+255),w,b
  3007  0013DC  B4D8               	btfsc	status,2,c
  3008  0013DE  EFF3  F009         	goto	u3121
  3009  0013E2  EFF5  F009         	goto	u3120
  3010  0013E6                     u3121:
  3011  0013E6  EF0A  F00A         	goto	l2633
  3012  0013EA                     u3120:
  3013  0013EA                     
  3014                           ; BSR set to: 0
  3015  0013EA  29A3               	incf	___fldiv@bexp& (0+255),w,b
  3016  0013EC  A4D8               	btfss	status,2,c
  3017  0013EE  EFFB  F009         	goto	u3131
  3018  0013F2  EFFD  F009         	goto	u3130
  3019  0013F6                     u3131:
  3020  0013F6  EF05  F00A         	goto	l2629
  3021  0013FA                     u3130:
  3022  0013FA                     
  3023                           ; BSR set to: 0
  3024  0013FA  0E00               	movlw	0
  3025  0013FC  6F8C               	movwf	___fldiv@b& (0+255),b
  3026  0013FE  0E00               	movlw	0
  3027  001400  6F8D               	movwf	(___fldiv@b+1)& (0+255),b
  3028  001402  0E00               	movlw	0
  3029  001404  6F8E               	movwf	(___fldiv@b+2)& (0+255),b
  3030  001406  0E00               	movlw	0
  3031  001408  6F8F               	movwf	(___fldiv@b+3)& (0+255),b
  3032  00140A                     l2629:
  3033                           
  3034                           ; BSR set to: 0
  3035  00140A  8F8E               	bsf	(___fldiv@b+2)& (0+255),7,b
  3036  00140C                     
  3037                           ; BSR set to: 0
  3038  00140C  0E00               	movlw	0
  3039  00140E  6F8F               	movwf	(___fldiv@b+3)& (0+255),b
  3040  001410  EF12  F00A         	goto	l2635
  3041  001414                     l2633:
  3042                           
  3043                           ; BSR set to: 0
  3044  001414  0E00               	movlw	0
  3045  001416  6F8C               	movwf	___fldiv@b& (0+255),b
  3046  001418  0E00               	movlw	0
  3047  00141A  6F8D               	movwf	(___fldiv@b+1)& (0+255),b
  3048  00141C  0E00               	movlw	0
  3049  00141E  6F8E               	movwf	(___fldiv@b+2)& (0+255),b
  3050  001420  0E00               	movlw	0
  3051  001422  6F8F               	movwf	(___fldiv@b+3)& (0+255),b
  3052  001424                     l2635:
  3053                           
  3054                           ; BSR set to: 0
  3055  001424  5193               	movf	(___fldiv@a+3)& (0+255),w,b
  3056  001426  0B80               	andlw	128
  3057  001428  1B9C               	xorwf	___fldiv@sign& (0+255),f,b
  3058  00142A                     
  3059                           ; BSR set to: 0
  3060  00142A  5193               	movf	(___fldiv@a+3)& (0+255),w,b
  3061  00142C  2593               	addwf	(___fldiv@a+3)& (0+255),w,b
  3062  00142E  6FA4               	movwf	___fldiv@aexp& (0+255),b
  3063  001430                     
  3064                           ; BSR set to: 0
  3065  001430  AF92               	btfss	(___fldiv@a+2)& (0+255),7,b
  3066  001432  EF1D  F00A         	goto	u3141
  3067  001436  EF1F  F00A         	goto	u3140
  3068  00143A                     u3141:
  3069  00143A  EF20  F00A         	goto	l2643
  3070  00143E                     u3140:
  3071  00143E                     
  3072                           ; BSR set to: 0
  3073  00143E  81A4               	bsf	___fldiv@aexp& (0+255),0,b
  3074  001440                     l2643:
  3075                           
  3076                           ; BSR set to: 0
  3077  001440  51A4               	movf	___fldiv@aexp& (0+255),w,b
  3078  001442  B4D8               	btfsc	status,2,c
  3079  001444  EF26  F00A         	goto	u3151
  3080  001448  EF28  F00A         	goto	u3150
  3081  00144C                     u3151:
  3082  00144C  EF3D  F00A         	goto	l2653
  3083  001450                     u3150:
  3084  001450                     
  3085                           ; BSR set to: 0
  3086  001450  29A4               	incf	___fldiv@aexp& (0+255),w,b
  3087  001452  A4D8               	btfss	status,2,c
  3088  001454  EF2E  F00A         	goto	u3161
  3089  001458  EF30  F00A         	goto	u3160
  3090  00145C                     u3161:
  3091  00145C  EF38  F00A         	goto	l2649
  3092  001460                     u3160:
  3093  001460                     
  3094                           ; BSR set to: 0
  3095  001460  0E00               	movlw	0
  3096  001462  6F90               	movwf	___fldiv@a& (0+255),b
  3097  001464  0E00               	movlw	0
  3098  001466  6F91               	movwf	(___fldiv@a+1)& (0+255),b
  3099  001468  0E00               	movlw	0
  3100  00146A  6F92               	movwf	(___fldiv@a+2)& (0+255),b
  3101  00146C  0E00               	movlw	0
  3102  00146E  6F93               	movwf	(___fldiv@a+3)& (0+255),b
  3103  001470                     l2649:
  3104                           
  3105                           ; BSR set to: 0
  3106  001470  8F92               	bsf	(___fldiv@a+2)& (0+255),7,b
  3107  001472                     
  3108                           ; BSR set to: 0
  3109  001472  0E00               	movlw	0
  3110  001474  6F93               	movwf	(___fldiv@a+3)& (0+255),b
  3111  001476  EF45  F00A         	goto	l2655
  3112  00147A                     l2653:
  3113                           
  3114                           ; BSR set to: 0
  3115  00147A  0E00               	movlw	0
  3116  00147C  6F90               	movwf	___fldiv@a& (0+255),b
  3117  00147E  0E00               	movlw	0
  3118  001480  6F91               	movwf	(___fldiv@a+1)& (0+255),b
  3119  001482  0E00               	movlw	0
  3120  001484  6F92               	movwf	(___fldiv@a+2)& (0+255),b
  3121  001486  0E00               	movlw	0
  3122  001488  6F93               	movwf	(___fldiv@a+3)& (0+255),b
  3123  00148A                     l2655:
  3124                           
  3125                           ; BSR set to: 0
  3126  00148A  5190               	movf	___fldiv@a& (0+255),w,b
  3127  00148C  1191               	iorwf	(___fldiv@a+1)& (0+255),w,b
  3128  00148E  1192               	iorwf	(___fldiv@a+2)& (0+255),w,b
  3129  001490  1193               	iorwf	(___fldiv@a+3)& (0+255),w,b
  3130  001492  A4D8               	btfss	status,2,c
  3131  001494  EF4E  F00A         	goto	u3171
  3132  001498  EF50  F00A         	goto	u3170
  3133  00149C                     u3171:
  3134  00149C  EF68  F00A         	goto	l2667
  3135  0014A0                     u3170:
  3136  0014A0                     
  3137                           ; BSR set to: 0
  3138  0014A0  0E00               	movlw	0
  3139  0014A2  6F8C               	movwf	___fldiv@b& (0+255),b
  3140  0014A4  0E00               	movlw	0
  3141  0014A6  6F8D               	movwf	(___fldiv@b+1)& (0+255),b
  3142  0014A8  0E00               	movlw	0
  3143  0014AA  6F8E               	movwf	(___fldiv@b+2)& (0+255),b
  3144  0014AC  0E00               	movlw	0
  3145  0014AE  6F8F               	movwf	(___fldiv@b+3)& (0+255),b
  3146  0014B0                     
  3147                           ; BSR set to: 0
  3148  0014B0  0E80               	movlw	128
  3149  0014B2  138E               	iorwf	(___fldiv@b+2)& (0+255),f,b
  3150  0014B4  0E7F               	movlw	127
  3151  0014B6  138F               	iorwf	(___fldiv@b+3)& (0+255),f,b
  3152  0014B8                     l2661:
  3153                           
  3154                           ; BSR set to: 0
  3155  0014B8  519C               	movf	___fldiv@sign& (0+255),w,b
  3156  0014BA  138F               	iorwf	(___fldiv@b+3)& (0+255),f,b
  3157  0014BC                     
  3158                           ; BSR set to: 0
  3159  0014BC  C08C  F08C         	movff	___fldiv@b,?___fldiv
  3160  0014C0  C08D  F08D         	movff	___fldiv@b+1,?___fldiv+1
  3161  0014C4  C08E  F08E         	movff	___fldiv@b+2,?___fldiv+2
  3162  0014C8  C08F  F08F         	movff	___fldiv@b+3,?___fldiv+3
  3163  0014CC  EFAB  F00B         	goto	l784
  3164  0014D0                     l2667:
  3165                           
  3166                           ; BSR set to: 0
  3167  0014D0  51A3               	movf	___fldiv@bexp& (0+255),w,b
  3168  0014D2  A4D8               	btfss	status,2,c
  3169  0014D4  EF6E  F00A         	goto	u3181
  3170  0014D8  EF70  F00A         	goto	u3180
  3171  0014DC                     u3181:
  3172  0014DC  EF7A  F00A         	goto	l2675
  3173  0014E0                     u3180:
  3174  0014E0                     
  3175                           ; BSR set to: 0
  3176  0014E0  0E00               	movlw	0
  3177  0014E2  6F8C               	movwf	?___fldiv& (0+255),b
  3178  0014E4  0E00               	movlw	0
  3179  0014E6  6F8D               	movwf	(?___fldiv+1)& (0+255),b
  3180  0014E8  0E00               	movlw	0
  3181  0014EA  6F8E               	movwf	(?___fldiv+2)& (0+255),b
  3182  0014EC  0E00               	movlw	0
  3183  0014EE  6F8F               	movwf	(?___fldiv+3)& (0+255),b
  3184  0014F0  EFAB  F00B         	goto	l784
  3185  0014F4                     l2675:
  3186                           
  3187                           ; BSR set to: 0
  3188  0014F4  51A4               	movf	___fldiv@aexp& (0+255),w,b
  3189  0014F6  C0A3  F094         	movff	___fldiv@bexp,??___fldiv
  3190  0014FA  6B95               	clrf	(??___fldiv+1)& (0+255),b
  3191  0014FC  5F94               	subwf	??___fldiv& (0+255),f,b
  3192  0014FE  0E00               	movlw	0
  3193  001500  5B95               	subwfb	(??___fldiv+1)& (0+255),f,b
  3194  001502  0E7F               	movlw	127
  3195  001504  2594               	addwf	??___fldiv& (0+255),w,b
  3196  001506  6F9D               	movwf	___fldiv@new_exp& (0+255),b
  3197  001508  0E00               	movlw	0
  3198  00150A  2195               	addwfc	(??___fldiv+1)& (0+255),w,b
  3199  00150C  6F9E               	movwf	(___fldiv@new_exp+1)& (0+255),b
  3200  00150E                     
  3201                           ; BSR set to: 0
  3202  00150E  C08C  F098         	movff	___fldiv@b,___fldiv@rem
  3203  001512  C08D  F099         	movff	___fldiv@b+1,___fldiv@rem+1
  3204  001516  C08E  F09A         	movff	___fldiv@b+2,___fldiv@rem+2
  3205  00151A  C08F  F09B         	movff	___fldiv@b+3,___fldiv@rem+3
  3206  00151E                     
  3207                           ; BSR set to: 0
  3208  00151E  0E00               	movlw	0
  3209  001520  6F8C               	movwf	___fldiv@b& (0+255),b
  3210  001522  0E00               	movlw	0
  3211  001524  6F8D               	movwf	(___fldiv@b+1)& (0+255),b
  3212  001526  0E00               	movlw	0
  3213  001528  6F8E               	movwf	(___fldiv@b+2)& (0+255),b
  3214  00152A  0E00               	movlw	0
  3215  00152C  6F8F               	movwf	(___fldiv@b+3)& (0+255),b
  3216  00152E                     
  3217                           ; BSR set to: 0
  3218  00152E  0E00               	movlw	0
  3219  001530  6F9F               	movwf	___fldiv@grs& (0+255),b
  3220  001532  0E00               	movlw	0
  3221  001534  6FA0               	movwf	(___fldiv@grs+1)& (0+255),b
  3222  001536  0E00               	movlw	0
  3223  001538  6FA1               	movwf	(___fldiv@grs+2)& (0+255),b
  3224  00153A  0E00               	movlw	0
  3225  00153C  6FA2               	movwf	(___fldiv@grs+3)& (0+255),b
  3226  00153E                     
  3227                           ; BSR set to: 0
  3228  00153E  0E00               	movlw	0
  3229  001540  6FA4               	movwf	___fldiv@aexp& (0+255),b
  3230  001542  EFDB  F00A         	goto	l786
  3231  001546                     l2685:
  3232                           
  3233                           ; BSR set to: 0
  3234  001546  51A4               	movf	___fldiv@aexp& (0+255),w,b
  3235  001548  B4D8               	btfsc	status,2,c
  3236  00154A  EFA9  F00A         	goto	u3191
  3237  00154E  EFAB  F00A         	goto	u3190
  3238  001552                     u3191:
  3239  001552  EFC2  F00A         	goto	l2693
  3240  001556                     u3190:
  3241  001556                     
  3242                           ; BSR set to: 0
  3243  001556  90D8               	bcf	status,0,c
  3244  001558  3798               	rlcf	___fldiv@rem& (0+255),f,b
  3245  00155A  3799               	rlcf	(___fldiv@rem+1)& (0+255),f,b
  3246  00155C  379A               	rlcf	(___fldiv@rem+2)& (0+255),f,b
  3247  00155E  379B               	rlcf	(___fldiv@rem+3)& (0+255),f,b
  3248  001560  90D8               	bcf	status,0,c
  3249  001562  378C               	rlcf	___fldiv@b& (0+255),f,b
  3250  001564  378D               	rlcf	(___fldiv@b+1)& (0+255),f,b
  3251  001566  378E               	rlcf	(___fldiv@b+2)& (0+255),f,b
  3252  001568  378F               	rlcf	(___fldiv@b+3)& (0+255),f,b
  3253  00156A                     
  3254                           ; BSR set to: 0
  3255  00156A  AFA2               	btfss	(___fldiv@grs+3)& (0+255),7,b
  3256  00156C  EFBA  F00A         	goto	u3201
  3257  001570  EFBC  F00A         	goto	u3200
  3258  001574                     u3201:
  3259  001574  EFBD  F00A         	goto	l789
  3260  001578                     u3200:
  3261  001578                     
  3262                           ; BSR set to: 0
  3263  001578  818C               	bsf	___fldiv@b& (0+255),0,b
  3264  00157A                     l789:
  3265                           
  3266                           ; BSR set to: 0
  3267  00157A  90D8               	bcf	status,0,c
  3268  00157C  379F               	rlcf	___fldiv@grs& (0+255),f,b
  3269  00157E  37A0               	rlcf	(___fldiv@grs+1)& (0+255),f,b
  3270  001580  37A1               	rlcf	(___fldiv@grs+2)& (0+255),f,b
  3271  001582  37A2               	rlcf	(___fldiv@grs+3)& (0+255),f,b
  3272  001584                     l2693:
  3273                           
  3274                           ; BSR set to: 0
  3275  001584  5190               	movf	___fldiv@a& (0+255),w,b
  3276  001586  5D98               	subwf	___fldiv@rem& (0+255),w,b
  3277  001588  5191               	movf	(___fldiv@a+1)& (0+255),w,b
  3278  00158A  5999               	subwfb	(___fldiv@rem+1)& (0+255),w,b
  3279  00158C  5192               	movf	(___fldiv@a+2)& (0+255),w,b
  3280  00158E  599A               	subwfb	(___fldiv@rem+2)& (0+255),w,b
  3281  001590  5193               	movf	(___fldiv@a+3)& (0+255),w,b
  3282  001592  599B               	subwfb	(___fldiv@rem+3)& (0+255),w,b
  3283  001594  A0D8               	btfss	status,0,c
  3284  001596  EFCF  F00A         	goto	u3211
  3285  00159A  EFD1  F00A         	goto	u3210
  3286  00159E                     u3211:
  3287  00159E  EFDA  F00A         	goto	l2699
  3288  0015A2                     u3210:
  3289  0015A2                     
  3290                           ; BSR set to: 0
  3291  0015A2  8DA2               	bsf	(___fldiv@grs+3)& (0+255),6,b
  3292  0015A4                     
  3293                           ; BSR set to: 0
  3294  0015A4  5190               	movf	___fldiv@a& (0+255),w,b
  3295  0015A6  5F98               	subwf	___fldiv@rem& (0+255),f,b
  3296  0015A8  5191               	movf	(___fldiv@a+1)& (0+255),w,b
  3297  0015AA  5B99               	subwfb	(___fldiv@rem+1)& (0+255),f,b
  3298  0015AC  5192               	movf	(___fldiv@a+2)& (0+255),w,b
  3299  0015AE  5B9A               	subwfb	(___fldiv@rem+2)& (0+255),f,b
  3300  0015B0  5193               	movf	(___fldiv@a+3)& (0+255),w,b
  3301  0015B2  5B9B               	subwfb	(___fldiv@rem+3)& (0+255),f,b
  3302  0015B4                     l2699:
  3303                           
  3304                           ; BSR set to: 0
  3305  0015B4  2BA4               	incf	___fldiv@aexp& (0+255),f,b
  3306  0015B6                     l786:
  3307                           
  3308                           ; BSR set to: 0
  3309  0015B6  0E19               	movlw	25
  3310  0015B8  65A4               	cpfsgt	___fldiv@aexp& (0+255),b
  3311  0015BA  EFE1  F00A         	goto	u3221
  3312  0015BE  EFE3  F00A         	goto	u3220
  3313  0015C2                     u3221:
  3314  0015C2  EFA3  F00A         	goto	l2685
  3315  0015C6                     u3220:
  3316  0015C6                     
  3317                           ; BSR set to: 0
  3318  0015C6  5198               	movf	___fldiv@rem& (0+255),w,b
  3319  0015C8  1199               	iorwf	(___fldiv@rem+1)& (0+255),w,b
  3320  0015CA  119A               	iorwf	(___fldiv@rem+2)& (0+255),w,b
  3321  0015CC  119B               	iorwf	(___fldiv@rem+3)& (0+255),w,b
  3322  0015CE  B4D8               	btfsc	status,2,c
  3323  0015D0  EFEC  F00A         	goto	u3231
  3324  0015D4  EFEE  F00A         	goto	u3230
  3325  0015D8                     u3231:
  3326  0015D8  EF06  F00B         	goto	l2711
  3327  0015DC                     u3230:
  3328  0015DC                     
  3329                           ; BSR set to: 0
  3330  0015DC  819F               	bsf	___fldiv@grs& (0+255),0,b
  3331  0015DE  EF06  F00B         	goto	l2711
  3332  0015E2                     l2705:
  3333                           
  3334                           ; BSR set to: 0
  3335  0015E2  90D8               	bcf	status,0,c
  3336  0015E4  378C               	rlcf	___fldiv@b& (0+255),f,b
  3337  0015E6  378D               	rlcf	(___fldiv@b+1)& (0+255),f,b
  3338  0015E8  378E               	rlcf	(___fldiv@b+2)& (0+255),f,b
  3339  0015EA  378F               	rlcf	(___fldiv@b+3)& (0+255),f,b
  3340  0015EC                     
  3341                           ; BSR set to: 0
  3342  0015EC  AFA2               	btfss	(___fldiv@grs+3)& (0+255),7,b
  3343  0015EE  EFFB  F00A         	goto	u3241
  3344  0015F2  EFFD  F00A         	goto	u3240
  3345  0015F6                     u3241:
  3346  0015F6  EFFE  F00A         	goto	l795
  3347  0015FA                     u3240:
  3348  0015FA                     
  3349                           ; BSR set to: 0
  3350  0015FA  818C               	bsf	___fldiv@b& (0+255),0,b
  3351  0015FC                     l795:
  3352                           
  3353                           ; BSR set to: 0
  3354  0015FC  90D8               	bcf	status,0,c
  3355  0015FE  379F               	rlcf	___fldiv@grs& (0+255),f,b
  3356  001600  37A0               	rlcf	(___fldiv@grs+1)& (0+255),f,b
  3357  001602  37A1               	rlcf	(___fldiv@grs+2)& (0+255),f,b
  3358  001604  37A2               	rlcf	(___fldiv@grs+3)& (0+255),f,b
  3359  001606  079D               	decf	___fldiv@new_exp& (0+255),f,b
  3360  001608  A0D8               	btfss	status,0,c
  3361  00160A  079E               	decf	(___fldiv@new_exp+1)& (0+255),f,b
  3362  00160C                     l2711:
  3363                           
  3364                           ; BSR set to: 0
  3365  00160C  AF8E               	btfss	(___fldiv@b+2)& (0+255),7,b
  3366  00160E  EF0B  F00B         	goto	u3251
  3367  001612  EF0D  F00B         	goto	u3250
  3368  001616                     u3251:
  3369  001616  EFF1  F00A         	goto	l2705
  3370  00161A                     u3250:
  3371  00161A                     
  3372                           ; BSR set to: 0
  3373  00161A  0E00               	movlw	0
  3374  00161C  6FA4               	movwf	___fldiv@aexp& (0+255),b
  3375  00161E                     
  3376                           ; BSR set to: 0
  3377  00161E  AFA2               	btfss	(___fldiv@grs+3)& (0+255),7,b
  3378  001620  EF14  F00B         	goto	u3261
  3379  001624  EF16  F00B         	goto	u3260
  3380  001628                     u3261:
  3381  001628  EF3A  F00B         	goto	l797
  3382  00162C                     u3260:
  3383  00162C                     
  3384                           ; BSR set to: 0
  3385  00162C  0EFF               	movlw	255
  3386  00162E  159F               	andwf	___fldiv@grs& (0+255),w,b
  3387  001630  6F94               	movwf	??___fldiv& (0+255),b
  3388  001632  0EFF               	movlw	255
  3389  001634  15A0               	andwf	(___fldiv@grs+1)& (0+255),w,b
  3390  001636  6F95               	movwf	(??___fldiv+1)& (0+255),b
  3391  001638  0EFF               	movlw	255
  3392  00163A  15A1               	andwf	(___fldiv@grs+2)& (0+255),w,b
  3393  00163C  6F96               	movwf	(??___fldiv+2)& (0+255),b
  3394  00163E  0E7F               	movlw	127
  3395  001640  15A2               	andwf	(___fldiv@grs+3)& (0+255),w,b
  3396  001642  6F97               	movwf	(??___fldiv+3)& (0+255),b
  3397  001644  5194               	movf	??___fldiv& (0+255),w,b
  3398  001646  1195               	iorwf	(??___fldiv+1)& (0+255),w,b
  3399  001648  1196               	iorwf	(??___fldiv+2)& (0+255),w,b
  3400  00164A  1197               	iorwf	(??___fldiv+3)& (0+255),w,b
  3401  00164C  B4D8               	btfsc	status,2,c
  3402  00164E  EF2B  F00B         	goto	u3271
  3403  001652  EF2D  F00B         	goto	u3270
  3404  001656                     u3271:
  3405  001656  EF31  F00B         	goto	l798
  3406  00165A                     u3270:
  3407  00165A                     l2719:
  3408                           
  3409                           ; BSR set to: 0
  3410  00165A  0E01               	movlw	1
  3411  00165C  6FA4               	movwf	___fldiv@aexp& (0+255),b
  3412  00165E  EF3A  F00B         	goto	l797
  3413  001662                     l798:
  3414                           
  3415                           ; BSR set to: 0
  3416  001662  A18C               	btfss	___fldiv@b& (0+255),0,b
  3417  001664  EF36  F00B         	goto	u3281
  3418  001668  EF38  F00B         	goto	u3280
  3419  00166C                     u3281:
  3420  00166C  EF3A  F00B         	goto	l797
  3421  001670                     u3280:
  3422  001670  EF2D  F00B         	goto	l2719
  3423  001674                     l797:
  3424                           
  3425                           ; BSR set to: 0
  3426  001674  51A4               	movf	___fldiv@aexp& (0+255),w,b
  3427  001676  B4D8               	btfsc	status,2,c
  3428  001678  EF40  F00B         	goto	u3291
  3429  00167C  EF42  F00B         	goto	u3290
  3430  001680                     u3291:
  3431  001680  EF66  F00B         	goto	l2731
  3432  001684                     u3290:
  3433  001684                     
  3434                           ; BSR set to: 0
  3435  001684  0E01               	movlw	1
  3436  001686  278C               	addwf	___fldiv@b& (0+255),f,b
  3437  001688  0E00               	movlw	0
  3438  00168A  238D               	addwfc	(___fldiv@b+1)& (0+255),f,b
  3439  00168C  238E               	addwfc	(___fldiv@b+2)& (0+255),f,b
  3440  00168E  238F               	addwfc	(___fldiv@b+3)& (0+255),f,b
  3441  001690                     
  3442                           ; BSR set to: 0
  3443  001690  A18F               	btfss	(___fldiv@b+3)& (0+255),0,b
  3444  001692  EF4D  F00B         	goto	u3301
  3445  001696  EF4F  F00B         	goto	u3300
  3446  00169A                     u3301:
  3447  00169A  EF66  F00B         	goto	l2731
  3448  00169E                     u3300:
  3449  00169E                     
  3450                           ; BSR set to: 0
  3451  00169E  C08C  F094         	movff	___fldiv@b,??___fldiv
  3452  0016A2  C08D  F095         	movff	___fldiv@b+1,??___fldiv+1
  3453  0016A6  C08E  F096         	movff	___fldiv@b+2,??___fldiv+2
  3454  0016AA  C08F  F097         	movff	___fldiv@b+3,??___fldiv+3
  3455  0016AE  3597               	rlcf	(??___fldiv+3)& (0+255),w,b
  3456  0016B0  3397               	rrcf	(??___fldiv+3)& (0+255),f,b
  3457  0016B2  3396               	rrcf	(??___fldiv+2)& (0+255),f,b
  3458  0016B4  3395               	rrcf	(??___fldiv+1)& (0+255),f,b
  3459  0016B6  3394               	rrcf	??___fldiv& (0+255),f,b
  3460  0016B8  C094  F08C         	movff	??___fldiv,___fldiv@b
  3461  0016BC  C095  F08D         	movff	??___fldiv+1,___fldiv@b+1
  3462  0016C0  C096  F08E         	movff	??___fldiv+2,___fldiv@b+2
  3463  0016C4  C097  F08F         	movff	??___fldiv+3,___fldiv@b+3
  3464  0016C8                     
  3465                           ; BSR set to: 0
  3466  0016C8  4B9D               	infsnz	___fldiv@new_exp& (0+255),f,b
  3467  0016CA  2B9E               	incf	(___fldiv@new_exp+1)& (0+255),f,b
  3468  0016CC                     l2731:
  3469                           
  3470                           ; BSR set to: 0
  3471  0016CC  BF9E               	btfsc	(___fldiv@new_exp+1)& (0+255),7,b
  3472  0016CE  EF71  F00B         	goto	u3311
  3473  0016D2  519E               	movf	(___fldiv@new_exp+1)& (0+255),w,b
  3474  0016D4  E108               	bnz	u3310
  3475  0016D6  299D               	incf	___fldiv@new_exp& (0+255),w,b
  3476  0016D8  A0D8               	btfss	status,0,c
  3477  0016DA  EF71  F00B         	goto	u3311
  3478  0016DE  EF73  F00B         	goto	u3310
  3479  0016E2                     u3311:
  3480  0016E2  EF7E  F00B         	goto	l2735
  3481  0016E6                     u3310:
  3482  0016E6                     
  3483                           ; BSR set to: 0
  3484  0016E6  0E00               	movlw	0
  3485  0016E8  6F9E               	movwf	(___fldiv@new_exp+1)& (0+255),b
  3486  0016EA  699D               	setf	___fldiv@new_exp& (0+255),b
  3487  0016EC  0E00               	movlw	0
  3488  0016EE  6F8C               	movwf	___fldiv@b& (0+255),b
  3489  0016F0  0E00               	movlw	0
  3490  0016F2  6F8D               	movwf	(___fldiv@b+1)& (0+255),b
  3491  0016F4  0E00               	movlw	0
  3492  0016F6  6F8E               	movwf	(___fldiv@b+2)& (0+255),b
  3493  0016F8  0E00               	movlw	0
  3494  0016FA  6F8F               	movwf	(___fldiv@b+3)& (0+255),b
  3495  0016FC                     l2735:
  3496                           
  3497                           ; BSR set to: 0
  3498  0016FC  BF9E               	btfsc	(___fldiv@new_exp+1)& (0+255),7,b
  3499  0016FE  EF8B  F00B         	goto	u3320
  3500  001702  519E               	movf	(___fldiv@new_exp+1)& (0+255),w,b
  3501  001704  E106               	bnz	u3321
  3502  001706  059D               	decf	___fldiv@new_exp& (0+255),w,b
  3503  001708  B0D8               	btfsc	status,0,c
  3504  00170A  EF89  F00B         	goto	u3321
  3505  00170E  EF8B  F00B         	goto	u3320
  3506  001712                     u3321:
  3507  001712  EF99  F00B         	goto	l2739
  3508  001716                     u3320:
  3509  001716                     
  3510                           ; BSR set to: 0
  3511  001716  0E00               	movlw	0
  3512  001718  6F9E               	movwf	(___fldiv@new_exp+1)& (0+255),b
  3513  00171A  0E00               	movlw	0
  3514  00171C  6F9D               	movwf	___fldiv@new_exp& (0+255),b
  3515  00171E  0E00               	movlw	0
  3516  001720  6F8C               	movwf	___fldiv@b& (0+255),b
  3517  001722  0E00               	movlw	0
  3518  001724  6F8D               	movwf	(___fldiv@b+1)& (0+255),b
  3519  001726  0E00               	movlw	0
  3520  001728  6F8E               	movwf	(___fldiv@b+2)& (0+255),b
  3521  00172A  0E00               	movlw	0
  3522  00172C  6F8F               	movwf	(___fldiv@b+3)& (0+255),b
  3523  00172E  0E00               	movlw	0
  3524  001730  6F9C               	movwf	___fldiv@sign& (0+255),b
  3525  001732                     l2739:
  3526                           
  3527                           ; BSR set to: 0
  3528  001732  C09D  F0A3         	movff	___fldiv@new_exp,___fldiv@bexp
  3529  001736                     
  3530                           ; BSR set to: 0
  3531  001736  A1A3               	btfss	___fldiv@bexp& (0+255),0,b
  3532  001738  EFA0  F00B         	goto	u3331
  3533  00173C  EFA2  F00B         	goto	u3330
  3534  001740                     u3331:
  3535  001740  EFA5  F00B         	goto	l2745
  3536  001744                     u3330:
  3537  001744                     
  3538                           ; BSR set to: 0
  3539  001744  8F8E               	bsf	(___fldiv@b+2)& (0+255),7,b
  3540  001746  EFA6  F00B         	goto	l2747
  3541  00174A                     l2745:
  3542                           
  3543                           ; BSR set to: 0
  3544  00174A  9F8E               	bcf	(___fldiv@b+2)& (0+255),7,b
  3545  00174C                     l2747:
  3546                           
  3547                           ; BSR set to: 0
  3548  00174C  90D8               	bcf	status,0,c
  3549  00174E  31A3               	rrcf	___fldiv@bexp& (0+255),w,b
  3550  001750  6F8F               	movwf	(___fldiv@b+3)& (0+255),b
  3551  001752  EF5C  F00A         	goto	l2661
  3552  001756                     l784:
  3553                           
  3554                           ; BSR set to: 0
  3555  001756  0012               	return		;funcret
  3556  001758                     __end_of___fldiv:
  3557                           	callstack 0
  3558                           
  3559 ;; *************** function ___fladd *****************
  3560 ;; Defined at:
  3561 ;;		line 10 in file "C:\Program Files\Microchip\xc8\v2.20\pic\sources\c99\common\sprcadd.c"
  3562 ;; Parameters:    Size  Location     Type
  3563 ;;  b               4    3[BANK0 ] unsigned char 
  3564 ;;  a               4    7[BANK0 ] unsigned char 
  3565 ;; Auto vars:     Size  Location     Type
  3566 ;;  grs             1   18[BANK0 ] unsigned char 
  3567 ;;  bexp            1   17[BANK0 ] unsigned char 
  3568 ;;  aexp            1   16[BANK0 ] unsigned char 
  3569 ;;  signs           1   15[BANK0 ] unsigned char 
  3570 ;; Return value:  Size  Location     Type
  3571 ;;                  4    3[BANK0 ] unsigned char 
  3572 ;; Registers used:
  3573 ;;		wreg, status,2, status,0
  3574 ;; Tracked objects:
  3575 ;;		On entry : 0/0
  3576 ;;		On exit  : 0/0
  3577 ;;		Unchanged: 0/0
  3578 ;; Data sizes:     COMRAM   BANK0   BANK1   BANK2   BANK3   BANK4   BANK5   BANK6   BANK7
  3579 ;;      Params:         0       8       0       0       0       0       0       0       0
  3580 ;;      Locals:         0       4       0       0       0       0       0       0       0
  3581 ;;      Temps:          0       4       0       0       0       0       0       0       0
  3582 ;;      Totals:         0      16       0       0       0       0       0       0       0
  3583 ;;Total ram usage:       16 bytes
  3584 ;; Hardware stack levels used:    1
  3585 ;; Hardware stack levels required when called:    4
  3586 ;; This function calls:
  3587 ;;		Nothing
  3588 ;; This function is called by:
  3589 ;;		_Temp
  3590 ;; This function uses a non-reentrant model
  3591 ;;
  3592                           
  3593                           	psect	text8
  3594  0001E4                     __ptext8:
  3595                           	callstack 0
  3596  0001E4                     ___fladd:
  3597                           	callstack 25
  3598  0001E4  0100               	movlb	0	; () banked
  3599  0001E6  5166               	movf	(___fladd@b+3)& (0+255),w,b
  3600  0001E8  0B80               	andlw	128
  3601  0001EA  6F6F               	movwf	___fladd@signs& (0+255),b
  3602  0001EC  5166               	movf	(___fladd@b+3)& (0+255),w,b
  3603  0001EE  2566               	addwf	(___fladd@b+3)& (0+255),w,b
  3604  0001F0  6F71               	movwf	___fladd@bexp& (0+255),b
  3605  0001F2                     
  3606                           ; BSR set to: 0
  3607  0001F2  AF65               	btfss	(___fladd@b+2)& (0+255),7,b
  3608  0001F4  EFFE  F000         	goto	u2721
  3609  0001F8  EF00  F001         	goto	u2720
  3610  0001FC                     u2721:
  3611  0001FC  EF01  F001         	goto	l2421
  3612  000200                     u2720:
  3613  000200                     
  3614                           ; BSR set to: 0
  3615  000200  8171               	bsf	___fladd@bexp& (0+255),0,b
  3616  000202                     l2421:
  3617                           
  3618                           ; BSR set to: 0
  3619  000202  5171               	movf	___fladd@bexp& (0+255),w,b
  3620  000204  B4D8               	btfsc	status,2,c
  3621  000206  EF07  F001         	goto	u2731
  3622  00020A  EF09  F001         	goto	u2730
  3623  00020E                     u2731:
  3624  00020E  EF1E  F001         	goto	l2431
  3625  000212                     u2730:
  3626  000212                     
  3627                           ; BSR set to: 0
  3628  000212  2971               	incf	___fladd@bexp& (0+255),w,b
  3629  000214  A4D8               	btfss	status,2,c
  3630  000216  EF0F  F001         	goto	u2741
  3631  00021A  EF11  F001         	goto	u2740
  3632  00021E                     u2741:
  3633  00021E  EF19  F001         	goto	l2427
  3634  000222                     u2740:
  3635  000222                     
  3636                           ; BSR set to: 0
  3637  000222  0E00               	movlw	0
  3638  000224  6F63               	movwf	___fladd@b& (0+255),b
  3639  000226  0E00               	movlw	0
  3640  000228  6F64               	movwf	(___fladd@b+1)& (0+255),b
  3641  00022A  0E00               	movlw	0
  3642  00022C  6F65               	movwf	(___fladd@b+2)& (0+255),b
  3643  00022E  0E00               	movlw	0
  3644  000230  6F66               	movwf	(___fladd@b+3)& (0+255),b
  3645  000232                     l2427:
  3646                           
  3647                           ; BSR set to: 0
  3648  000232  8F65               	bsf	(___fladd@b+2)& (0+255),7,b
  3649  000234                     
  3650                           ; BSR set to: 0
  3651  000234  0E00               	movlw	0
  3652  000236  6F66               	movwf	(___fladd@b+3)& (0+255),b
  3653  000238  EF26  F001         	goto	l2433
  3654  00023C                     l2431:
  3655                           
  3656                           ; BSR set to: 0
  3657  00023C  0E00               	movlw	0
  3658  00023E  6F63               	movwf	___fladd@b& (0+255),b
  3659  000240  0E00               	movlw	0
  3660  000242  6F64               	movwf	(___fladd@b+1)& (0+255),b
  3661  000244  0E00               	movlw	0
  3662  000246  6F65               	movwf	(___fladd@b+2)& (0+255),b
  3663  000248  0E00               	movlw	0
  3664  00024A  6F66               	movwf	(___fladd@b+3)& (0+255),b
  3665  00024C                     l2433:
  3666                           
  3667                           ; BSR set to: 0
  3668  00024C  516A               	movf	(___fladd@a+3)& (0+255),w,b
  3669  00024E  0B80               	andlw	128
  3670  000250  6F70               	movwf	___fladd@aexp& (0+255),b
  3671  000252                     
  3672                           ; BSR set to: 0
  3673  000252  516F               	movf	___fladd@signs& (0+255),w,b
  3674  000254  1970               	xorwf	___fladd@aexp& (0+255),w,b
  3675  000256  B4D8               	btfsc	status,2,c
  3676  000258  EF30  F001         	goto	u2751
  3677  00025C  EF32  F001         	goto	u2750
  3678  000260                     u2751:
  3679  000260  EF33  F001         	goto	l2439
  3680  000264                     u2750:
  3681  000264                     
  3682                           ; BSR set to: 0
  3683  000264  8D6F               	bsf	___fladd@signs& (0+255),6,b
  3684  000266                     l2439:
  3685                           
  3686                           ; BSR set to: 0
  3687  000266  516A               	movf	(___fladd@a+3)& (0+255),w,b
  3688  000268  256A               	addwf	(___fladd@a+3)& (0+255),w,b
  3689  00026A  6F70               	movwf	___fladd@aexp& (0+255),b
  3690  00026C                     
  3691                           ; BSR set to: 0
  3692  00026C  AF69               	btfss	(___fladd@a+2)& (0+255),7,b
  3693  00026E  EF3B  F001         	goto	u2761
  3694  000272  EF3D  F001         	goto	u2760
  3695  000276                     u2761:
  3696  000276  EF3E  F001         	goto	l2445
  3697  00027A                     u2760:
  3698  00027A                     
  3699                           ; BSR set to: 0
  3700  00027A  8170               	bsf	___fladd@aexp& (0+255),0,b
  3701  00027C                     l2445:
  3702                           
  3703                           ; BSR set to: 0
  3704  00027C  5170               	movf	___fladd@aexp& (0+255),w,b
  3705  00027E  B4D8               	btfsc	status,2,c
  3706  000280  EF44  F001         	goto	u2771
  3707  000284  EF46  F001         	goto	u2770
  3708  000288                     u2771:
  3709  000288  EF5B  F001         	goto	l2455
  3710  00028C                     u2770:
  3711  00028C                     
  3712                           ; BSR set to: 0
  3713  00028C  2970               	incf	___fladd@aexp& (0+255),w,b
  3714  00028E  A4D8               	btfss	status,2,c
  3715  000290  EF4C  F001         	goto	u2781
  3716  000294  EF4E  F001         	goto	u2780
  3717  000298                     u2781:
  3718  000298  EF56  F001         	goto	l2451
  3719  00029C                     u2780:
  3720  00029C                     
  3721                           ; BSR set to: 0
  3722  00029C  0E00               	movlw	0
  3723  00029E  6F67               	movwf	___fladd@a& (0+255),b
  3724  0002A0  0E00               	movlw	0
  3725  0002A2  6F68               	movwf	(___fladd@a+1)& (0+255),b
  3726  0002A4  0E00               	movlw	0
  3727  0002A6  6F69               	movwf	(___fladd@a+2)& (0+255),b
  3728  0002A8  0E00               	movlw	0
  3729  0002AA  6F6A               	movwf	(___fladd@a+3)& (0+255),b
  3730  0002AC                     l2451:
  3731                           
  3732                           ; BSR set to: 0
  3733  0002AC  8F69               	bsf	(___fladd@a+2)& (0+255),7,b
  3734  0002AE                     
  3735                           ; BSR set to: 0
  3736  0002AE  0E00               	movlw	0
  3737  0002B0  6F6A               	movwf	(___fladd@a+3)& (0+255),b
  3738  0002B2  EF63  F001         	goto	l2457
  3739  0002B6                     l2455:
  3740                           
  3741                           ; BSR set to: 0
  3742  0002B6  0E00               	movlw	0
  3743  0002B8  6F67               	movwf	___fladd@a& (0+255),b
  3744  0002BA  0E00               	movlw	0
  3745  0002BC  6F68               	movwf	(___fladd@a+1)& (0+255),b
  3746  0002BE  0E00               	movlw	0
  3747  0002C0  6F69               	movwf	(___fladd@a+2)& (0+255),b
  3748  0002C2  0E00               	movlw	0
  3749  0002C4  6F6A               	movwf	(___fladd@a+3)& (0+255),b
  3750  0002C6                     l2457:
  3751                           
  3752                           ; BSR set to: 0
  3753  0002C6  5171               	movf	___fladd@bexp& (0+255),w,b
  3754  0002C8  5D70               	subwf	___fladd@aexp& (0+255),w,b
  3755  0002CA  B0D8               	btfsc	status,0,c
  3756  0002CC  EF6A  F001         	goto	u2791
  3757  0002D0  EF6C  F001         	goto	u2790
  3758  0002D4                     u2791:
  3759  0002D4  EF93  F001         	goto	l2493
  3760  0002D8                     u2790:
  3761  0002D8                     
  3762                           ; BSR set to: 0
  3763  0002D8  AD6F               	btfss	___fladd@signs& (0+255),6,b
  3764  0002DA  EF71  F001         	goto	u2801
  3765  0002DE  EF73  F001         	goto	u2800
  3766  0002E2                     u2801:
  3767  0002E2  EF75  F001         	goto	l2463
  3768  0002E6                     u2800:
  3769  0002E6                     
  3770                           ; BSR set to: 0
  3771  0002E6  0E80               	movlw	128
  3772  0002E8  1B6F               	xorwf	___fladd@signs& (0+255),f,b
  3773  0002EA                     l2463:
  3774                           
  3775                           ; BSR set to: 0
  3776  0002EA  C071  F072         	movff	___fladd@bexp,___fladd@grs
  3777  0002EE                     
  3778                           ; BSR set to: 0
  3779  0002EE  C070  F071         	movff	___fladd@aexp,___fladd@bexp
  3780  0002F2                     
  3781                           ; BSR set to: 0
  3782  0002F2  C072  F070         	movff	___fladd@grs,___fladd@aexp
  3783  0002F6                     
  3784                           ; BSR set to: 0
  3785  0002F6  C063  F072         	movff	___fladd@b,___fladd@grs
  3786  0002FA                     
  3787                           ; BSR set to: 0
  3788  0002FA  C067  F063         	movff	___fladd@a,___fladd@b
  3789  0002FE                     
  3790                           ; BSR set to: 0
  3791  0002FE  C072  F067         	movff	___fladd@grs,___fladd@a
  3792  000302                     
  3793                           ; BSR set to: 0
  3794  000302  C064  F072         	movff	___fladd@b+1,___fladd@grs
  3795  000306                     
  3796                           ; BSR set to: 0
  3797  000306  C068  F064         	movff	___fladd@a+1,___fladd@b+1
  3798  00030A                     
  3799                           ; BSR set to: 0
  3800  00030A  C072  F068         	movff	___fladd@grs,___fladd@a+1
  3801  00030E                     
  3802                           ; BSR set to: 0
  3803  00030E  C065  F072         	movff	___fladd@b+2,___fladd@grs
  3804  000312                     
  3805                           ; BSR set to: 0
  3806  000312  C069  F065         	movff	___fladd@a+2,___fladd@b+2
  3807  000316                     
  3808                           ; BSR set to: 0
  3809  000316  C072  F069         	movff	___fladd@grs,___fladd@a+2
  3810  00031A                     
  3811                           ; BSR set to: 0
  3812  00031A  C066  F072         	movff	___fladd@b+3,___fladd@grs
  3813  00031E                     
  3814                           ; BSR set to: 0
  3815  00031E  C06A  F066         	movff	___fladd@a+3,___fladd@b+3
  3816  000322                     
  3817                           ; BSR set to: 0
  3818  000322  C072  F06A         	movff	___fladd@grs,___fladd@a+3
  3819  000326                     l2493:
  3820                           
  3821                           ; BSR set to: 0
  3822  000326  0E00               	movlw	0
  3823  000328  6F72               	movwf	___fladd@grs& (0+255),b
  3824  00032A                     
  3825                           ; BSR set to: 0
  3826  00032A  5171               	movf	___fladd@bexp& (0+255),w,b
  3827  00032C  C070  F06B         	movff	___fladd@aexp,??___fladd
  3828  000330  6B6C               	clrf	(??___fladd+1)& (0+255),b
  3829  000332  5F6B               	subwf	??___fladd& (0+255),f,b
  3830  000334  0E00               	movlw	0
  3831  000336  5B6C               	subwfb	(??___fladd+1)& (0+255),f,b
  3832  000338  BF6C               	btfsc	(??___fladd+1)& (0+255),7,b
  3833  00033A  EFA8  F001         	goto	u2811
  3834  00033E  516C               	movf	(??___fladd+1)& (0+255),w,b
  3835  000340  E109               	bnz	u2810
  3836  000342  0E1A               	movlw	26
  3837  000344  5D6B               	subwf	??___fladd& (0+255),w,b
  3838  000346  A0D8               	btfss	status,0,c
  3839  000348  EFA8  F001         	goto	u2811
  3840  00034C  EFAA  F001         	goto	u2810
  3841  000350                     u2811:
  3842  000350  EFE1  F001         	goto	l731
  3843  000354                     u2810:
  3844  000354                     
  3845                           ; BSR set to: 0
  3846  000354  5163               	movf	___fladd@b& (0+255),w,b
  3847  000356  1164               	iorwf	(___fladd@b+1)& (0+255),w,b
  3848  000358  1165               	iorwf	(___fladd@b+2)& (0+255),w,b
  3849  00035A  1166               	iorwf	(___fladd@b+3)& (0+255),w,b
  3850  00035C  A4D8               	btfss	status,2,c
  3851  00035E  EFB3  F001         	goto	u2821
  3852  000362  EFB6  F001         	goto	u2820
  3853  000366                     u2821:
  3854  000366  0E01               	movlw	1
  3855  000368  EFB7  F001         	goto	u2830
  3856  00036C                     u2820:
  3857  00036C  0E00               	movlw	0
  3858  00036E                     u2830:
  3859  00036E  6F72               	movwf	___fladd@grs& (0+255),b
  3860  000370                     
  3861                           ; BSR set to: 0
  3862  000370  0E00               	movlw	0
  3863  000372  6F63               	movwf	___fladd@b& (0+255),b
  3864  000374  0E00               	movlw	0
  3865  000376  6F64               	movwf	(___fladd@b+1)& (0+255),b
  3866  000378  0E00               	movlw	0
  3867  00037A  6F65               	movwf	(___fladd@b+2)& (0+255),b
  3868  00037C  0E00               	movlw	0
  3869  00037E  6F66               	movwf	(___fladd@b+3)& (0+255),b
  3870  000380                     
  3871                           ; BSR set to: 0
  3872  000380  C070  F071         	movff	___fladd@aexp,___fladd@bexp
  3873  000384  EFEA  F001         	goto	l730
  3874  000388                     l732:
  3875                           
  3876                           ; BSR set to: 0
  3877  000388  A172               	btfss	___fladd@grs& (0+255),0,b
  3878  00038A  EFC9  F001         	goto	u2841
  3879  00038E  EFCB  F001         	goto	u2840
  3880  000392                     u2841:
  3881  000392  EFD1  F001         	goto	l2505
  3882  000396                     u2840:
  3883  000396                     
  3884                           ; BSR set to: 0
  3885  000396  90D8               	bcf	status,0,c
  3886  000398  3172               	rrcf	___fladd@grs& (0+255),w,b
  3887  00039A  0901               	iorlw	1
  3888  00039C  6F72               	movwf	___fladd@grs& (0+255),b
  3889  00039E  EFD3  F001         	goto	l2507
  3890  0003A2                     l2505:
  3891                           
  3892                           ; BSR set to: 0
  3893  0003A2  90D8               	bcf	status,0,c
  3894  0003A4  3372               	rrcf	___fladd@grs& (0+255),f,b
  3895  0003A6                     l2507:
  3896                           
  3897                           ; BSR set to: 0
  3898  0003A6  A163               	btfss	___fladd@b& (0+255),0,b
  3899  0003A8  EFD8  F001         	goto	u2851
  3900  0003AC  EFDA  F001         	goto	u2850
  3901  0003B0                     u2851:
  3902  0003B0  EFDB  F001         	goto	l2511
  3903  0003B4                     u2850:
  3904  0003B4                     
  3905                           ; BSR set to: 0
  3906  0003B4  8F72               	bsf	___fladd@grs& (0+255),7,b
  3907  0003B6                     l2511:
  3908                           
  3909                           ; BSR set to: 0
  3910  0003B6  3566               	rlcf	(___fladd@b+3)& (0+255),w,b
  3911  0003B8  3366               	rrcf	(___fladd@b+3)& (0+255),f,b
  3912  0003BA  3365               	rrcf	(___fladd@b+2)& (0+255),f,b
  3913  0003BC  3364               	rrcf	(___fladd@b+1)& (0+255),f,b
  3914  0003BE  3363               	rrcf	___fladd@b& (0+255),f,b
  3915  0003C0                     
  3916                           ; BSR set to: 0
  3917  0003C0  2B71               	incf	___fladd@bexp& (0+255),f,b
  3918  0003C2                     l731:
  3919                           
  3920                           ; BSR set to: 0
  3921  0003C2  5170               	movf	___fladd@aexp& (0+255),w,b
  3922  0003C4  5D71               	subwf	___fladd@bexp& (0+255),w,b
  3923  0003C6  A0D8               	btfss	status,0,c
  3924  0003C8  EFE8  F001         	goto	u2861
  3925  0003CC  EFEA  F001         	goto	u2860
  3926  0003D0                     u2861:
  3927  0003D0  EFC4  F001         	goto	l732
  3928  0003D4                     u2860:
  3929  0003D4                     l730:
  3930                           
  3931                           ; BSR set to: 0
  3932  0003D4  BD6F               	btfsc	___fladd@signs& (0+255),6,b
  3933  0003D6  EFEF  F001         	goto	u2871
  3934  0003DA  EFF1  F001         	goto	u2870
  3935  0003DE                     u2871:
  3936  0003DE  EF31  F002         	goto	l2539
  3937  0003E2                     u2870:
  3938  0003E2                     
  3939                           ; BSR set to: 0
  3940  0003E2  5171               	movf	___fladd@bexp& (0+255),w,b
  3941  0003E4  A4D8               	btfss	status,2,c
  3942  0003E6  EFF7  F001         	goto	u2881
  3943  0003EA  EFF9  F001         	goto	u2880
  3944  0003EE                     u2881:
  3945  0003EE  EF03  F002         	goto	l2521
  3946  0003F2                     u2880:
  3947  0003F2                     
  3948                           ; BSR set to: 0
  3949  0003F2  0E00               	movlw	0
  3950  0003F4  6F63               	movwf	?___fladd& (0+255),b
  3951  0003F6  0E00               	movlw	0
  3952  0003F8  6F64               	movwf	(?___fladd+1)& (0+255),b
  3953  0003FA  0E00               	movlw	0
  3954  0003FC  6F65               	movwf	(?___fladd+2)& (0+255),b
  3955  0003FE  0E00               	movlw	0
  3956  000400  6F66               	movwf	(?___fladd+3)& (0+255),b
  3957  000402  EF52  F003         	goto	l739
  3958  000406                     l2521:
  3959                           
  3960                           ; BSR set to: 0
  3961  000406  5167               	movf	___fladd@a& (0+255),w,b
  3962  000408  2763               	addwf	___fladd@b& (0+255),f,b
  3963  00040A  5168               	movf	(___fladd@a+1)& (0+255),w,b
  3964  00040C  2364               	addwfc	(___fladd@b+1)& (0+255),f,b
  3965  00040E  5169               	movf	(___fladd@a+2)& (0+255),w,b
  3966  000410  2365               	addwfc	(___fladd@b+2)& (0+255),f,b
  3967  000412  516A               	movf	(___fladd@a+3)& (0+255),w,b
  3968  000414  2366               	addwfc	(___fladd@b+3)& (0+255),f,b
  3969  000416                     
  3970                           ; BSR set to: 0
  3971  000416  A166               	btfss	(___fladd@b+3)& (0+255),0,b
  3972  000418  EF10  F002         	goto	u2891
  3973  00041C  EF12  F002         	goto	u2890
  3974  000420                     u2891:
  3975  000420  EFBE  F002         	goto	l2575
  3976  000424                     u2890:
  3977  000424                     
  3978                           ; BSR set to: 0
  3979  000424  A172               	btfss	___fladd@grs& (0+255),0,b
  3980  000426  EF17  F002         	goto	u2901
  3981  00042A  EF19  F002         	goto	u2900
  3982  00042E                     u2901:
  3983  00042E  EF1F  F002         	goto	l2529
  3984  000432                     u2900:
  3985  000432                     
  3986                           ; BSR set to: 0
  3987  000432  90D8               	bcf	status,0,c
  3988  000434  3172               	rrcf	___fladd@grs& (0+255),w,b
  3989  000436  0901               	iorlw	1
  3990  000438  6F72               	movwf	___fladd@grs& (0+255),b
  3991  00043A  EF21  F002         	goto	l2531
  3992  00043E                     l2529:
  3993                           
  3994                           ; BSR set to: 0
  3995  00043E  90D8               	bcf	status,0,c
  3996  000440  3372               	rrcf	___fladd@grs& (0+255),f,b
  3997  000442                     l2531:
  3998                           
  3999                           ; BSR set to: 0
  4000  000442  A163               	btfss	___fladd@b& (0+255),0,b
  4001  000444  EF26  F002         	goto	u2911
  4002  000448  EF28  F002         	goto	u2910
  4003  00044C                     u2911:
  4004  00044C  EF29  F002         	goto	l2535
  4005  000450                     u2910:
  4006  000450                     
  4007                           ; BSR set to: 0
  4008  000450  8F72               	bsf	___fladd@grs& (0+255),7,b
  4009  000452                     l2535:
  4010                           
  4011                           ; BSR set to: 0
  4012  000452  3566               	rlcf	(___fladd@b+3)& (0+255),w,b
  4013  000454  3366               	rrcf	(___fladd@b+3)& (0+255),f,b
  4014  000456  3365               	rrcf	(___fladd@b+2)& (0+255),f,b
  4015  000458  3364               	rrcf	(___fladd@b+1)& (0+255),f,b
  4016  00045A  3363               	rrcf	___fladd@b& (0+255),f,b
  4017  00045C                     
  4018                           ; BSR set to: 0
  4019  00045C  2B71               	incf	___fladd@bexp& (0+255),f,b
  4020  00045E  EFBE  F002         	goto	l2575
  4021  000462                     l2539:
  4022                           
  4023                           ; BSR set to: 0
  4024  000462  5167               	movf	___fladd@a& (0+255),w,b
  4025  000464  5D63               	subwf	___fladd@b& (0+255),w,b
  4026  000466  5168               	movf	(___fladd@a+1)& (0+255),w,b
  4027  000468  5964               	subwfb	(___fladd@b+1)& (0+255),w,b
  4028  00046A  5169               	movf	(___fladd@a+2)& (0+255),w,b
  4029  00046C  5965               	subwfb	(___fladd@b+2)& (0+255),w,b
  4030  00046E  5166               	movf	(___fladd@b+3)& (0+255),w,b
  4031  000470  0A80               	xorlw	128
  4032  000472  6F6B               	movwf	??___fladd& (0+255),b
  4033  000474  516A               	movf	(___fladd@a+3)& (0+255),w,b
  4034  000476  0A80               	xorlw	128
  4035  000478  596B               	subwfb	??___fladd& (0+255),w,b
  4036  00047A  B0D8               	btfsc	status,0,c
  4037  00047C  EF42  F002         	goto	u2921
  4038  000480  EF44  F002         	goto	u2920
  4039  000484                     u2921:
  4040  000484  EF6F  F002         	goto	l2549
  4041  000488                     u2920:
  4042  000488                     
  4043                           ; BSR set to: 0
  4044  000488  5163               	movf	___fladd@b& (0+255),w,b
  4045  00048A  5D67               	subwf	___fladd@a& (0+255),w,b
  4046  00048C  6F6B               	movwf	??___fladd& (0+255),b
  4047  00048E  5164               	movf	(___fladd@b+1)& (0+255),w,b
  4048  000490  5968               	subwfb	(___fladd@a+1)& (0+255),w,b
  4049  000492  6F6C               	movwf	(??___fladd+1)& (0+255),b
  4050  000494  5165               	movf	(___fladd@b+2)& (0+255),w,b
  4051  000496  5969               	subwfb	(___fladd@a+2)& (0+255),w,b
  4052  000498  6F6D               	movwf	(??___fladd+2)& (0+255),b
  4053  00049A  5166               	movf	(___fladd@b+3)& (0+255),w,b
  4054  00049C  596A               	subwfb	(___fladd@a+3)& (0+255),w,b
  4055  00049E  6F6E               	movwf	(??___fladd+3)& (0+255),b
  4056  0004A0  0EFF               	movlw	255
  4057  0004A2  256B               	addwf	??___fladd& (0+255),w,b
  4058  0004A4  6F63               	movwf	___fladd@b& (0+255),b
  4059  0004A6  0EFF               	movlw	255
  4060  0004A8  216C               	addwfc	(??___fladd+1)& (0+255),w,b
  4061  0004AA  6F64               	movwf	(___fladd@b+1)& (0+255),b
  4062  0004AC  0EFF               	movlw	255
  4063  0004AE  216D               	addwfc	(??___fladd+2)& (0+255),w,b
  4064  0004B0  6F65               	movwf	(___fladd@b+2)& (0+255),b
  4065  0004B2  0EFF               	movlw	255
  4066  0004B4  216E               	addwfc	(??___fladd+3)& (0+255),w,b
  4067  0004B6  6F66               	movwf	(___fladd@b+3)& (0+255),b
  4068  0004B8  0E80               	movlw	128
  4069  0004BA  1B6F               	xorwf	___fladd@signs& (0+255),f,b
  4070  0004BC                     
  4071                           ; BSR set to: 0
  4072  0004BC  6D72               	negf	___fladd@grs& (0+255),b
  4073  0004BE                     
  4074                           ; BSR set to: 0
  4075  0004BE  5172               	movf	___fladd@grs& (0+255),w,b
  4076  0004C0  A4D8               	btfss	status,2,c
  4077  0004C2  EF65  F002         	goto	u2931
  4078  0004C6  EF67  F002         	goto	u2930
  4079  0004CA                     u2931:
  4080  0004CA  EF77  F002         	goto	l747
  4081  0004CE                     u2930:
  4082  0004CE                     
  4083                           ; BSR set to: 0
  4084  0004CE  0E01               	movlw	1
  4085  0004D0  2763               	addwf	___fladd@b& (0+255),f,b
  4086  0004D2  0E00               	movlw	0
  4087  0004D4  2364               	addwfc	(___fladd@b+1)& (0+255),f,b
  4088  0004D6  2365               	addwfc	(___fladd@b+2)& (0+255),f,b
  4089  0004D8  2366               	addwfc	(___fladd@b+3)& (0+255),f,b
  4090  0004DA  EF77  F002         	goto	l747
  4091  0004DE                     l2549:
  4092                           
  4093                           ; BSR set to: 0
  4094  0004DE  5167               	movf	___fladd@a& (0+255),w,b
  4095  0004E0  5F63               	subwf	___fladd@b& (0+255),f,b
  4096  0004E2  5168               	movf	(___fladd@a+1)& (0+255),w,b
  4097  0004E4  5B64               	subwfb	(___fladd@b+1)& (0+255),f,b
  4098  0004E6  5169               	movf	(___fladd@a+2)& (0+255),w,b
  4099  0004E8  5B65               	subwfb	(___fladd@b+2)& (0+255),f,b
  4100  0004EA  516A               	movf	(___fladd@a+3)& (0+255),w,b
  4101  0004EC  5B66               	subwfb	(___fladd@b+3)& (0+255),f,b
  4102  0004EE                     l747:
  4103                           
  4104                           ; BSR set to: 0
  4105  0004EE  5163               	movf	___fladd@b& (0+255),w,b
  4106  0004F0  1164               	iorwf	(___fladd@b+1)& (0+255),w,b
  4107  0004F2  1165               	iorwf	(___fladd@b+2)& (0+255),w,b
  4108  0004F4  1166               	iorwf	(___fladd@b+3)& (0+255),w,b
  4109  0004F6  A4D8               	btfss	status,2,c
  4110  0004F8  EF80  F002         	goto	u2941
  4111  0004FC  EF82  F002         	goto	u2940
  4112  000500                     u2941:
  4113  000500  EFB7  F002         	goto	l2573
  4114  000504                     u2940:
  4115  000504                     
  4116                           ; BSR set to: 0
  4117  000504  5172               	movf	___fladd@grs& (0+255),w,b
  4118  000506  A4D8               	btfss	status,2,c
  4119  000508  EF88  F002         	goto	u2951
  4120  00050C  EF8A  F002         	goto	u2950
  4121  000510                     u2951:
  4122  000510  EFB7  F002         	goto	l2573
  4123  000514                     u2950:
  4124  000514                     
  4125                           ; BSR set to: 0
  4126  000514  0E00               	movlw	0
  4127  000516  6F63               	movwf	?___fladd& (0+255),b
  4128  000518  0E00               	movlw	0
  4129  00051A  6F64               	movwf	(?___fladd+1)& (0+255),b
  4130  00051C  0E00               	movlw	0
  4131  00051E  6F65               	movwf	(?___fladd+2)& (0+255),b
  4132  000520  0E00               	movlw	0
  4133  000522  6F66               	movwf	(?___fladd+3)& (0+255),b
  4134  000524  EF52  F003         	goto	l739
  4135  000528                     l2557:
  4136                           
  4137                           ; BSR set to: 0
  4138  000528  90D8               	bcf	status,0,c
  4139  00052A  3763               	rlcf	___fladd@b& (0+255),f,b
  4140  00052C  3764               	rlcf	(___fladd@b+1)& (0+255),f,b
  4141  00052E  3765               	rlcf	(___fladd@b+2)& (0+255),f,b
  4142  000530  3766               	rlcf	(___fladd@b+3)& (0+255),f,b
  4143  000532                     
  4144                           ; BSR set to: 0
  4145  000532  AF72               	btfss	___fladd@grs& (0+255),7,b
  4146  000534  EF9E  F002         	goto	u2961
  4147  000538  EFA0  F002         	goto	u2960
  4148  00053C                     u2961:
  4149  00053C  EFA1  F002         	goto	l2563
  4150  000540                     u2960:
  4151  000540                     
  4152                           ; BSR set to: 0
  4153  000540  8163               	bsf	___fladd@b& (0+255),0,b
  4154  000542                     l2563:
  4155                           
  4156                           ; BSR set to: 0
  4157  000542  A172               	btfss	___fladd@grs& (0+255),0,b
  4158  000544  EFA6  F002         	goto	u2971
  4159  000548  EFA8  F002         	goto	u2970
  4160  00054C                     u2971:
  4161  00054C  EFAC  F002         	goto	l2567
  4162  000550                     u2970:
  4163  000550                     
  4164                           ; BSR set to: 0
  4165  000550  80D8               	bsf	status,0,c
  4166  000552  3772               	rlcf	___fladd@grs& (0+255),f,b
  4167  000554  EFAE  F002         	goto	l2569
  4168  000558                     l2567:
  4169                           
  4170                           ; BSR set to: 0
  4171  000558  90D8               	bcf	status,0,c
  4172  00055A  3772               	rlcf	___fladd@grs& (0+255),f,b
  4173  00055C                     l2569:
  4174                           
  4175                           ; BSR set to: 0
  4176  00055C  5171               	movf	___fladd@bexp& (0+255),w,b
  4177  00055E  B4D8               	btfsc	status,2,c
  4178  000560  EFB4  F002         	goto	u2981
  4179  000564  EFB6  F002         	goto	u2980
  4180  000568                     u2981:
  4181  000568  EFB7  F002         	goto	l2573
  4182  00056C                     u2980:
  4183  00056C                     
  4184                           ; BSR set to: 0
  4185  00056C  0771               	decf	___fladd@bexp& (0+255),f,b
  4186  00056E                     l2573:
  4187                           
  4188                           ; BSR set to: 0
  4189  00056E  AF65               	btfss	(___fladd@b+2)& (0+255),7,b
  4190  000570  EFBC  F002         	goto	u2991
  4191  000574  EFBE  F002         	goto	u2990
  4192  000578                     u2991:
  4193  000578  EF94  F002         	goto	l2557
  4194  00057C                     u2990:
  4195  00057C                     l2575:
  4196                           
  4197                           ; BSR set to: 0
  4198  00057C  0E00               	movlw	0
  4199  00057E  6F70               	movwf	___fladd@aexp& (0+255),b
  4200  000580                     
  4201                           ; BSR set to: 0
  4202  000580  AF72               	btfss	___fladd@grs& (0+255),7,b
  4203  000582  EFC5  F002         	goto	u3001
  4204  000586  EFC7  F002         	goto	u3000
  4205  00058A                     u3001:
  4206  00058A  EFDF  F002         	goto	l756
  4207  00058E                     u3000:
  4208  00058E                     
  4209                           ; BSR set to: 0
  4210  00058E  C072  F06B         	movff	___fladd@grs,??___fladd
  4211  000592  0E7F               	movlw	127
  4212  000594  176B               	andwf	??___fladd& (0+255),f,b
  4213  000596  B4D8               	btfsc	status,2,c
  4214  000598  EFD0  F002         	goto	u3011
  4215  00059C  EFD2  F002         	goto	u3010
  4216  0005A0                     u3011:
  4217  0005A0  EFD6  F002         	goto	l757
  4218  0005A4                     u3010:
  4219  0005A4                     l2581:
  4220                           
  4221                           ; BSR set to: 0
  4222  0005A4  0E01               	movlw	1
  4223  0005A6  6F70               	movwf	___fladd@aexp& (0+255),b
  4224  0005A8  EFDF  F002         	goto	l756
  4225  0005AC                     l757:
  4226                           
  4227                           ; BSR set to: 0
  4228  0005AC  A163               	btfss	___fladd@b& (0+255),0,b
  4229  0005AE  EFDB  F002         	goto	u3021
  4230  0005B2  EFDD  F002         	goto	u3020
  4231  0005B6                     u3021:
  4232  0005B6  EFDF  F002         	goto	l756
  4233  0005BA                     u3020:
  4234  0005BA  EFD2  F002         	goto	l2581
  4235  0005BE                     l756:
  4236                           
  4237                           ; BSR set to: 0
  4238  0005BE  5170               	movf	___fladd@aexp& (0+255),w,b
  4239  0005C0  B4D8               	btfsc	status,2,c
  4240  0005C2  EFE5  F002         	goto	u3031
  4241  0005C6  EFE7  F002         	goto	u3030
  4242  0005CA                     u3031:
  4243  0005CA  EF12  F003         	goto	l2593
  4244  0005CE                     u3030:
  4245  0005CE                     
  4246                           ; BSR set to: 0
  4247  0005CE  0E01               	movlw	1
  4248  0005D0  2763               	addwf	___fladd@b& (0+255),f,b
  4249  0005D2  0E00               	movlw	0
  4250  0005D4  2364               	addwfc	(___fladd@b+1)& (0+255),f,b
  4251  0005D6  2365               	addwfc	(___fladd@b+2)& (0+255),f,b
  4252  0005D8  2366               	addwfc	(___fladd@b+3)& (0+255),f,b
  4253  0005DA                     
  4254                           ; BSR set to: 0
  4255  0005DA  A166               	btfss	(___fladd@b+3)& (0+255),0,b
  4256  0005DC  EFF2  F002         	goto	u3041
  4257  0005E0  EFF4  F002         	goto	u3040
  4258  0005E4                     u3041:
  4259  0005E4  EF12  F003         	goto	l2593
  4260  0005E8                     u3040:
  4261  0005E8                     
  4262                           ; BSR set to: 0
  4263  0005E8  C063  F06B         	movff	___fladd@b,??___fladd
  4264  0005EC  C064  F06C         	movff	___fladd@b+1,??___fladd+1
  4265  0005F0  C065  F06D         	movff	___fladd@b+2,??___fladd+2
  4266  0005F4  C066  F06E         	movff	___fladd@b+3,??___fladd+3
  4267  0005F8  356E               	rlcf	(??___fladd+3)& (0+255),w,b
  4268  0005FA  336E               	rrcf	(??___fladd+3)& (0+255),f,b
  4269  0005FC  336D               	rrcf	(??___fladd+2)& (0+255),f,b
  4270  0005FE  336C               	rrcf	(??___fladd+1)& (0+255),f,b
  4271  000600  336B               	rrcf	??___fladd& (0+255),f,b
  4272  000602  C06B  F063         	movff	??___fladd,___fladd@b
  4273  000606  C06C  F064         	movff	??___fladd+1,___fladd@b+1
  4274  00060A  C06D  F065         	movff	??___fladd+2,___fladd@b+2
  4275  00060E  C06E  F066         	movff	??___fladd+3,___fladd@b+3
  4276  000612  2971               	incf	___fladd@bexp& (0+255),w,b
  4277  000614  B4D8               	btfsc	status,2,c
  4278  000616  EF0F  F003         	goto	u3051
  4279  00061A  EF11  F003         	goto	u3050
  4280  00061E                     u3051:
  4281  00061E  EF12  F003         	goto	l2593
  4282  000622                     u3050:
  4283  000622                     
  4284                           ; BSR set to: 0
  4285  000622  2B71               	incf	___fladd@bexp& (0+255),f,b
  4286  000624                     l2593:
  4287                           
  4288                           ; BSR set to: 0
  4289  000624  2971               	incf	___fladd@bexp& (0+255),w,b
  4290  000626  B4D8               	btfsc	status,2,c
  4291  000628  EF18  F003         	goto	u3061
  4292  00062C  EF1A  F003         	goto	u3060
  4293  000630                     u3061:
  4294  000630  EF22  F003         	goto	l2597
  4295  000634                     u3060:
  4296  000634                     
  4297                           ; BSR set to: 0
  4298  000634  5171               	movf	___fladd@bexp& (0+255),w,b
  4299  000636  A4D8               	btfss	status,2,c
  4300  000638  EF20  F003         	goto	u3071
  4301  00063C  EF22  F003         	goto	u3070
  4302  000640                     u3071:
  4303  000640  EF34  F003         	goto	l2601
  4304  000644                     u3070:
  4305  000644                     l2597:
  4306                           
  4307                           ; BSR set to: 0
  4308  000644  0E00               	movlw	0
  4309  000646  6F63               	movwf	___fladd@b& (0+255),b
  4310  000648  0E00               	movlw	0
  4311  00064A  6F64               	movwf	(___fladd@b+1)& (0+255),b
  4312  00064C  0E00               	movlw	0
  4313  00064E  6F65               	movwf	(___fladd@b+2)& (0+255),b
  4314  000650  0E00               	movlw	0
  4315  000652  6F66               	movwf	(___fladd@b+3)& (0+255),b
  4316  000654  5171               	movf	___fladd@bexp& (0+255),w,b
  4317  000656  A4D8               	btfss	status,2,c
  4318  000658  EF30  F003         	goto	u3081
  4319  00065C  EF32  F003         	goto	u3080
  4320  000660                     u3081:
  4321  000660  EF34  F003         	goto	l2601
  4322  000664                     u3080:
  4323  000664                     
  4324                           ; BSR set to: 0
  4325  000664  0E00               	movlw	0
  4326  000666  6F6F               	movwf	___fladd@signs& (0+255),b
  4327  000668                     l2601:
  4328                           
  4329                           ; BSR set to: 0
  4330  000668  A171               	btfss	___fladd@bexp& (0+255),0,b
  4331  00066A  EF39  F003         	goto	u3091
  4332  00066E  EF3B  F003         	goto	u3090
  4333  000672                     u3091:
  4334  000672  EF3E  F003         	goto	l2605
  4335  000676                     u3090:
  4336  000676                     
  4337                           ; BSR set to: 0
  4338  000676  8F65               	bsf	(___fladd@b+2)& (0+255),7,b
  4339  000678  EF3F  F003         	goto	l2607
  4340  00067C                     l2605:
  4341                           
  4342                           ; BSR set to: 0
  4343  00067C  9F65               	bcf	(___fladd@b+2)& (0+255),7,b
  4344  00067E                     l2607:
  4345                           
  4346                           ; BSR set to: 0
  4347  00067E  90D8               	bcf	status,0,c
  4348  000680  3171               	rrcf	___fladd@bexp& (0+255),w,b
  4349  000682  6F66               	movwf	(___fladd@b+3)& (0+255),b
  4350  000684                     
  4351                           ; BSR set to: 0
  4352  000684  AF6F               	btfss	___fladd@signs& (0+255),7,b
  4353  000686  EF47  F003         	goto	u3101
  4354  00068A  EF49  F003         	goto	u3100
  4355  00068E                     u3101:
  4356  00068E  EF4A  F003         	goto	l2613
  4357  000692                     u3100:
  4358  000692                     
  4359                           ; BSR set to: 0
  4360  000692  8F66               	bsf	(___fladd@b+3)& (0+255),7,b
  4361  000694                     l2613:
  4362                           
  4363                           ; BSR set to: 0
  4364  000694  C063  F063         	movff	___fladd@b,?___fladd
  4365  000698  C064  F064         	movff	___fladd@b+1,?___fladd+1
  4366  00069C  C065  F065         	movff	___fladd@b+2,?___fladd+2
  4367  0006A0  C066  F066         	movff	___fladd@b+3,?___fladd+3
  4368  0006A4                     l739:
  4369                           
  4370                           ; BSR set to: 0
  4371  0006A4  0012               	return		;funcret
  4372  0006A6                     __end_of___fladd:
  4373                           	callstack 0
  4374                           
  4375 ;; *************** function _Configuracion_Registros *****************
  4376 ;; Defined at:
  4377 ;;		line 115 in file "Programacion.c"
  4378 ;; Parameters:    Size  Location     Type
  4379 ;;		None
  4380 ;; Auto vars:     Size  Location     Type
  4381 ;;		None
  4382 ;; Return value:  Size  Location     Type
  4383 ;;                  1    wreg      void 
  4384 ;; Registers used:
  4385 ;;		wreg, status,2
  4386 ;; Tracked objects:
  4387 ;;		On entry : 0/0
  4388 ;;		On exit  : 0/0
  4389 ;;		Unchanged: 0/0
  4390 ;; Data sizes:     COMRAM   BANK0   BANK1   BANK2   BANK3   BANK4   BANK5   BANK6   BANK7
  4391 ;;      Params:         0       0       0       0       0       0       0       0       0
  4392 ;;      Locals:         0       0       0       0       0       0       0       0       0
  4393 ;;      Temps:          0       0       0       0       0       0       0       0       0
  4394 ;;      Totals:         0       0       0       0       0       0       0       0       0
  4395 ;;Total ram usage:        0 bytes
  4396 ;; Hardware stack levels used:    1
  4397 ;; Hardware stack levels required when called:    4
  4398 ;; This function calls:
  4399 ;;		Nothing
  4400 ;; This function is called by:
  4401 ;;		_main
  4402 ;; This function uses a non-reentrant model
  4403 ;;
  4404                           
  4405                           	psect	text9
  4406  002B48                     __ptext9:
  4407                           	callstack 0
  4408  002B48                     _Configuracion_Registros:
  4409                           	callstack 26
  4410  002B48                     
  4411                           ;Programacion.c: 117:     INTCONbits.GIEH=1;
  4412  002B48  0E00               	movlw	0
  4413  002B4A  6EC2               	movwf	194,c	;volatile
  4414                           
  4415                           ;Programacion.c: 118:     INTCONbits.GIEL=1;
  4416  002B4C  0E1B               	movlw	27
  4417  002B4E  6EC1               	movwf	193,c	;volatile
  4418                           
  4419                           ;Programacion.c: 119:     INTCON3bits.INT1IP=1;
  4420  002B50  0E94               	movlw	148
  4421  002B52  6EC0               	movwf	192,c	;volatile
  4422  002B54                     
  4423                           ;Programacion.c: 121:     INTCON2bits.RBIP=0;
  4424  002B54  9EF2               	bcf	242,7,c	;volatile
  4425  002B56                     
  4426                           ;Programacion.c: 122:     INTCON2bits.NOT_RBPU=0;
  4427  002B56  88F2               	bsf	242,4,c	;volatile
  4428  002B58                     
  4429                           ;Programacion.c: 123:     INTCONbits.INT0IF=0;
  4430  002B58  86F0               	bsf	240,3,c	;volatile
  4431  002B5A                     
  4432                           ;Programacion.c: 124:     INTCON3bits.INT1IF=0;
  4433  002B5A  88F0               	bsf	240,4,c	;volatile
  4434  002B5C                     
  4435                           ;Programacion.c: 125:     INTCON3bits.INT2IF=0;
  4436  002B5C  86F2               	bsf	242,3,c	;volatile
  4437  002B5E                     
  4438                           ;Programacion.c: 126:     INTCONbits.RBIF=0;
  4439  002B5E  8CF1               	bsf	241,6,c	;volatile
  4440  002B60                     
  4441                           ;Programacion.c: 127: }
  4442  002B60  8AF1               	bsf	241,5,c	;volatile
  4443  002B62                     
  4444                           ;Programacion.c: 128: void Temp (void)
  4445  002B62  88F1               	bsf	241,4,c	;volatile
  4446  002B64                     
  4447                           ;Programacion.c: 129: {
  4448  002B64  8ED0               	bsf	208,7,c	;volatile
  4449  002B66                     
  4450                           ;Programacion.c: 130:     ADCON0bits.ADON=1;
  4451  002B66  8EF2               	bsf	242,7,c	;volatile
  4452  002B68                     
  4453                           ;Programacion.c: 131:     ADCON0bits.GO_DONE=1;
  4454  002B68  8CF2               	bsf	242,6,c	;volatile
  4455  002B6A                     
  4456                           ;Programacion.c: 132:     while (ADCON0bits.GO_DONE==1)
  4457  002B6A  8CF0               	bsf	240,6,c	;volatile
  4458  002B6C                     
  4459                           ;Programacion.c: 133:     {
  4460  002B6C  9EF0               	bcf	240,7,c	;volatile
  4461  002B6E                     
  4462                           ;Programacion.c: 134:         float tempt=0;
  4463  002B6E  90F1               	bcf	241,0,c	;volatile
  4464  002B70                     
  4465                           ;Programacion.c: 135:         float temp=0;
  4466  002B70  9EF1               	bcf	241,7,c	;volatile
  4467  002B72                     
  4468                           ;Programacion.c: 136: 
  4469  002B72  92F2               	bcf	242,1,c	;volatile
  4470  002B74                     
  4471                           ;Programacion.c: 137:         tempt=ADRESL+(ADRESH*256);
  4472  002B74  90F0               	bcf	240,0,c	;volatile
  4473  002B76                     
  4474                           ;Programacion.c: 138:         temp=(tempt+1)*150/1024;
  4475  002B76  92F0               	bcf	240,1,c	;volatile
  4476  002B78                     
  4477                           ;Programacion.c: 139: 
  4478  002B78  90F2               	bcf	242,0,c	;volatile
  4479  002B7A  0012               	return		;funcret
  4480  002B7C                     __end_of_Configuracion_Registros:
  4481                           	callstack 0
  4482                           
  4483 ;; *************** function _ISR_RB *****************
  4484 ;; Defined at:
  4485 ;;		line 357 in file "Programacion.c"
  4486 ;; Parameters:    Size  Location     Type
  4487 ;;		None
  4488 ;; Auto vars:     Size  Location     Type
  4489 ;;		None
  4490 ;; Return value:  Size  Location     Type
  4491 ;;                  1    wreg      void 
  4492 ;; Registers used:
  4493 ;;		wreg, status,2, status,0
  4494 ;; Tracked objects:
  4495 ;;		On entry : 0/0
  4496 ;;		On exit  : 0/0
  4497 ;;		Unchanged: 0/0
  4498 ;; Data sizes:     COMRAM   BANK0   BANK1   BANK2   BANK3   BANK4   BANK5   BANK6   BANK7
  4499 ;;      Params:         0       0       0       0       0       0       0       0       0
  4500 ;;      Locals:         0       0       0       0       0       0       0       0       0
  4501 ;;      Temps:          0       3       0       0       0       0       0       0       0
  4502 ;;      Totals:         0       3       0       0       0       0       0       0       0
  4503 ;;Total ram usage:        3 bytes
  4504 ;; Hardware stack levels used:    1
  4505 ;; Hardware stack levels required when called:    3
  4506 ;; This function calls:
  4507 ;;		Nothing
  4508 ;; This function is called by:
  4509 ;;		Interrupt level 1
  4510 ;; This function uses a non-reentrant model
  4511 ;;
  4512                           
  4513                           	psect	intcodelo
  4514  000018                     __pintcodelo:
  4515                           	callstack 0
  4516  000018                     _ISR_RB:
  4517                           	callstack 25
  4518                           
  4519                           ;incstack = 0
  4520  000018  8057               	bsf	int$flags,0,c	;set compiler interrupt flag (level 1)
  4521  00001A  CFD8 F060          	movff	status,??_ISR_RB
  4522  00001E  CFE8 F061          	movff	wreg,??_ISR_RB+1
  4523  000022  CFE0 F062          	movff	bsr,??_ISR_RB+2
  4524  000026                     
  4525                           ;Programacion.c: 359:     {
  4526  000026  A2F0               	btfss	240,1,c	;volatile
  4527  000028  EF18  F000         	goto	i1u520_21
  4528  00002C  EF1A  F000         	goto	i1u520_20
  4529  000030                     i1u520_21:
  4530  000030  EF2D  F000         	goto	i1l175
  4531  000034                     i1u520_20:
  4532  000034  EF1D  F000         	goto	i1l176
  4533  000038                     i1l177:
  4534                           
  4535                           ;Programacion.c: 362:         {;Programacion.c: 363:             if (PORTBbits.RB4==0) {
      +                          num=1;}
  4536  000038  8A83               	bsf	131,5,c	;volatile
  4537  00003A                     i1l176:
  4538                           
  4539                           ;Programacion.c: 361:         if (PORTCbits.RC0==0)
  4540  00003A  B681               	btfsc	129,3,c	;volatile
  4541  00003C  EF22  F000         	goto	i1u521_21
  4542  000040  EF24  F000         	goto	i1u521_20
  4543  000044                     i1u521_21:
  4544  000044  EF1C  F000         	goto	i1l177
  4545  000048                     i1u521_20:
  4546  000048                     
  4547                           ;Programacion.c: 365:             if (PORTBbits.RB6==0) {num=7;}
  4548  000048  B681               	btfsc	129,3,c	;volatile
  4549  00004A  EF29  F000         	goto	i1u522_21
  4550  00004E  EF2B  F000         	goto	i1u522_20
  4551  000052                     i1u522_21:
  4552  000052  EF2D  F000         	goto	i1l175
  4553  000056                     i1u522_20:
  4554  000056                     
  4555                           ;Programacion.c: 366:             if (PORTBbits.RB7==0) {opc='*';};Programacion.c: 367: 
      +                                  }
  4556  000056  92F0               	bcf	240,1,c	;volatile
  4557                           
  4558                           ;Programacion.c: 368:         if (PORTCbits.RC1==0)
  4559  000058  9A83               	bcf	131,5,c	;volatile
  4560  00005A                     i1l175:
  4561                           
  4562                           ;Programacion.c: 371:             if (PORTBbits.RB5==0) {num=5;}
  4563  00005A  A0F2               	btfss	242,0,c	;volatile
  4564  00005C  EF32  F000         	goto	i1u523_21
  4565  000060  EF34  F000         	goto	i1u523_20
  4566  000064                     i1u523_21:
  4567  000064  EFE8  F000         	goto	i1l199
  4568  000068                     i1u523_20:
  4569  000068                     
  4570                           ;Programacion.c: 372:             if (PORTBbits.RB6==0) {num=8;};Programacion.c: 373:   
      +                                    if (PORTBbits.RB7==0) {num=0;}
  4571  000068  0100               	movlb	0	; () banked
  4572  00006A  4BB9               	infsnz	_cont1& (0+255),f,b
  4573  00006C  2BBA               	incf	(_cont1+1)& (0+255),f,b
  4574  00006E                     
  4575                           ; BSR set to: 0
  4576                           ;Programacion.c: 374:         }
  4577  00006E  B082               	btfsc	130,0,c	;volatile
  4578  000070  EF3C  F000         	goto	i1u524_21
  4579  000074  EF3E  F000         	goto	i1u524_20
  4580  000078                     i1u524_21:
  4581  000078  EF68  F000         	goto	i1l3883
  4582  00007C                     i1u524_20:
  4583  00007C                     
  4584                           ; BSR set to: 0
  4585                           ;Programacion.c: 375:         if (PORTCbits.RC2==0);Programacion.c: 376:         {
  4586  00007C  B881               	btfsc	129,4,c	;volatile
  4587  00007E  EF43  F000         	goto	i1u525_21
  4588  000082  EF45  F000         	goto	i1u525_20
  4589  000086                     i1u525_21:
  4590  000086  EF49  F000         	goto	i1l3871
  4591  00008A                     i1u525_20:
  4592  00008A                     
  4593                           ; BSR set to: 0
  4594  00008A  0E00               	movlw	0
  4595  00008C  6FC6               	movwf	(_num+1)& (0+255),b
  4596  00008E  0E01               	movlw	1
  4597  000090  6FC5               	movwf	_num& (0+255),b
  4598  000092                     i1l3871:
  4599                           
  4600                           ; BSR set to: 0
  4601                           ;Programacion.c: 377:             if (PORTBbits.RB4==0) {num=3;}
  4602  000092  BA81               	btfsc	129,5,c	;volatile
  4603  000094  EF4E  F000         	goto	i1u526_21
  4604  000098  EF50  F000         	goto	i1u526_20
  4605  00009C                     i1u526_21:
  4606  00009C  EF54  F000         	goto	i1l3875
  4607  0000A0                     i1u526_20:
  4608  0000A0                     
  4609                           ; BSR set to: 0
  4610  0000A0  0E00               	movlw	0
  4611  0000A2  6FC6               	movwf	(_num+1)& (0+255),b
  4612  0000A4  0E04               	movlw	4
  4613  0000A6  6FC5               	movwf	_num& (0+255),b
  4614  0000A8                     i1l3875:
  4615                           
  4616                           ; BSR set to: 0
  4617                           ;Programacion.c: 378:             if (PORTBbits.RB5==0) {num=6;}
  4618  0000A8  BC81               	btfsc	129,6,c	;volatile
  4619  0000AA  EF59  F000         	goto	i1u527_21
  4620  0000AE  EF5B  F000         	goto	i1u527_20
  4621  0000B2                     i1u527_21:
  4622  0000B2  EF5F  F000         	goto	i1l3879
  4623  0000B6                     i1u527_20:
  4624  0000B6                     
  4625                           ; BSR set to: 0
  4626  0000B6  0E00               	movlw	0
  4627  0000B8  6FC6               	movwf	(_num+1)& (0+255),b
  4628  0000BA  0E07               	movlw	7
  4629  0000BC  6FC5               	movwf	_num& (0+255),b
  4630  0000BE                     i1l3879:
  4631                           
  4632                           ; BSR set to: 0
  4633                           ;Programacion.c: 379:             if (PORTBbits.RB6==0) {num=9;}
  4634  0000BE  BE81               	btfsc	129,7,c	;volatile
  4635  0000C0  EF64  F000         	goto	i1u528_21
  4636  0000C4  EF66  F000         	goto	i1u528_20
  4637  0000C8                     i1u528_21:
  4638  0000C8  EF68  F000         	goto	i1l3883
  4639  0000CC                     i1u528_20:
  4640  0000CC                     
  4641                           ; BSR set to: 0
  4642  0000CC  0E2A               	movlw	42
  4643  0000CE  6FC7               	movwf	_opc& (0+255),b
  4644  0000D0                     i1l3883:
  4645                           
  4646                           ; BSR set to: 0
  4647                           ;Programacion.c: 381:         }
  4648  0000D0  B282               	btfsc	130,1,c	;volatile
  4649  0000D2  EF6D  F000         	goto	i1u529_21
  4650  0000D6  EF6F  F000         	goto	i1u529_20
  4651  0000DA                     i1u529_21:
  4652  0000DA  EF9B  F000         	goto	i1l3901
  4653  0000DE                     i1u529_20:
  4654  0000DE                     
  4655                           ; BSR set to: 0
  4656                           ;Programacion.c: 382:         while (PORTBbits.RB4==0||PORTBbits.RB5==0||PORTBbits.RB6==
      +                          0||PORTBbits.RB7==0);;Programacion.c: 383:         INTCONbits.RBIF=0;
  4657  0000DE  B881               	btfsc	129,4,c	;volatile
  4658  0000E0  EF74  F000         	goto	i1u530_21
  4659  0000E4  EF76  F000         	goto	i1u530_20
  4660  0000E8                     i1u530_21:
  4661  0000E8  EF7A  F000         	goto	i1l3889
  4662  0000EC                     i1u530_20:
  4663  0000EC                     
  4664                           ; BSR set to: 0
  4665  0000EC  0E00               	movlw	0
  4666  0000EE  6FC6               	movwf	(_num+1)& (0+255),b
  4667  0000F0  0E02               	movlw	2
  4668  0000F2  6FC5               	movwf	_num& (0+255),b
  4669  0000F4                     i1l3889:
  4670                           
  4671                           ; BSR set to: 0
  4672                           ;Programacion.c: 384:     }
  4673  0000F4  BA81               	btfsc	129,5,c	;volatile
  4674  0000F6  EF7F  F000         	goto	i1u531_21
  4675  0000FA  EF81  F000         	goto	i1u531_20
  4676  0000FE                     i1u531_21:
  4677  0000FE  EF85  F000         	goto	i1l3893
  4678  000102                     i1u531_20:
  4679  000102                     
  4680                           ; BSR set to: 0
  4681  000102  0E00               	movlw	0
  4682  000104  6FC6               	movwf	(_num+1)& (0+255),b
  4683  000106  0E05               	movlw	5
  4684  000108  6FC5               	movwf	_num& (0+255),b
  4685  00010A                     i1l3893:
  4686                           
  4687                           ; BSR set to: 0
  4688                           ;Programacion.c: 385: }
  4689  00010A  BC81               	btfsc	129,6,c	;volatile
  4690  00010C  EF8A  F000         	goto	i1u532_21
  4691  000110  EF8C  F000         	goto	i1u532_20
  4692  000114                     i1u532_21:
  4693  000114  EF90  F000         	goto	i1l3897
  4694  000118                     i1u532_20:
  4695  000118                     
  4696                           ; BSR set to: 0
  4697  000118  0E00               	movlw	0
  4698  00011A  6FC6               	movwf	(_num+1)& (0+255),b
  4699  00011C  0E08               	movlw	8
  4700  00011E  6FC5               	movwf	_num& (0+255),b
  4701  000120                     i1l3897:
  4702                           
  4703                           ; BSR set to: 0
  4704  000120  BE81               	btfsc	129,7,c	;volatile
  4705  000122  EF95  F000         	goto	i1u533_21
  4706  000126  EF97  F000         	goto	i1u533_20
  4707  00012A                     i1u533_21:
  4708  00012A  EF9B  F000         	goto	i1l3901
  4709  00012E                     i1u533_20:
  4710  00012E                     
  4711                           ; BSR set to: 0
  4712  00012E  0E00               	movlw	0
  4713  000130  6FC6               	movwf	(_num+1)& (0+255),b
  4714  000132  0E00               	movlw	0
  4715  000134  6FC5               	movwf	_num& (0+255),b
  4716  000136                     i1l3901:
  4717                           
  4718                           ; BSR set to: 0
  4719  000136  B482               	btfsc	130,2,c	;volatile
  4720  000138  EFA0  F000         	goto	i1u534_21
  4721  00013C  EFA2  F000         	goto	i1u534_20
  4722  000140                     i1u534_21:
  4723  000140  EFCB  F000         	goto	i1l196
  4724  000144                     i1u534_20:
  4725  000144                     
  4726                           ; BSR set to: 0
  4727  000144  B881               	btfsc	129,4,c	;volatile
  4728  000146  EFA7  F000         	goto	i1u535_21
  4729  00014A  EFA9  F000         	goto	i1u535_20
  4730  00014E                     i1u535_21:
  4731  00014E  EFAD  F000         	goto	i1l3907
  4732  000152                     i1u535_20:
  4733  000152                     
  4734                           ; BSR set to: 0
  4735  000152  0E00               	movlw	0
  4736  000154  6FC6               	movwf	(_num+1)& (0+255),b
  4737  000156  0E03               	movlw	3
  4738  000158  6FC5               	movwf	_num& (0+255),b
  4739  00015A                     i1l3907:
  4740                           
  4741                           ; BSR set to: 0
  4742  00015A  BA81               	btfsc	129,5,c	;volatile
  4743  00015C  EFB2  F000         	goto	i1u536_21
  4744  000160  EFB4  F000         	goto	i1u536_20
  4745  000164                     i1u536_21:
  4746  000164  EFB8  F000         	goto	i1l3911
  4747  000168                     i1u536_20:
  4748  000168                     
  4749                           ; BSR set to: 0
  4750  000168  0E00               	movlw	0
  4751  00016A  6FC6               	movwf	(_num+1)& (0+255),b
  4752  00016C  0E06               	movlw	6
  4753  00016E  6FC5               	movwf	_num& (0+255),b
  4754  000170                     i1l3911:
  4755                           
  4756                           ; BSR set to: 0
  4757  000170  BC81               	btfsc	129,6,c	;volatile
  4758  000172  EFBD  F000         	goto	i1u537_21
  4759  000176  EFBF  F000         	goto	i1u537_20
  4760  00017A                     i1u537_21:
  4761  00017A  EFC3  F000         	goto	i1l3915
  4762  00017E                     i1u537_20:
  4763  00017E                     
  4764                           ; BSR set to: 0
  4765  00017E  0E00               	movlw	0
  4766  000180  6FC6               	movwf	(_num+1)& (0+255),b
  4767  000182  0E09               	movlw	9
  4768  000184  6FC5               	movwf	_num& (0+255),b
  4769  000186                     i1l3915:
  4770                           
  4771                           ; BSR set to: 0
  4772  000186  BE81               	btfsc	129,7,c	;volatile
  4773  000188  EFC8  F000         	goto	i1u538_21
  4774  00018C  EFCA  F000         	goto	i1u538_20
  4775  000190                     i1u538_21:
  4776  000190  EFCB  F000         	goto	i1l196
  4777  000194                     i1u538_20:
  4778  000194                     
  4779                           ; BSR set to: 0
  4780  000194  8A80               	bsf	128,5,c	;volatile
  4781  000196                     i1l196:
  4782  000196  A881               	btfss	129,4,c	;volatile
  4783  000198  EFD0  F000         	goto	i1u539_21
  4784  00019C  EFD2  F000         	goto	i1u539_20
  4785  0001A0                     i1u539_21:
  4786  0001A0  EFCB  F000         	goto	i1l196
  4787  0001A4                     i1u539_20:
  4788  0001A4  AA81               	btfss	129,5,c	;volatile
  4789  0001A6  EFD7  F000         	goto	i1u540_21
  4790  0001AA  EFD9  F000         	goto	i1u540_20
  4791  0001AE                     i1u540_21:
  4792  0001AE  EFCB  F000         	goto	i1l196
  4793  0001B2                     i1u540_20:
  4794  0001B2  AC81               	btfss	129,6,c	;volatile
  4795  0001B4  EFDE  F000         	goto	i1u541_21
  4796  0001B8  EFE0  F000         	goto	i1u541_20
  4797  0001BC                     i1u541_21:
  4798  0001BC  EFCB  F000         	goto	i1l196
  4799  0001C0                     i1u541_20:
  4800  0001C0  AE81               	btfss	129,7,c	;volatile
  4801  0001C2  EFE5  F000         	goto	i1u542_21
  4802  0001C6  EFE7  F000         	goto	i1u542_20
  4803  0001CA                     i1u542_21:
  4804  0001CA  EFCB  F000         	goto	i1l196
  4805  0001CE                     i1u542_20:
  4806  0001CE  90F2               	bcf	242,0,c	;volatile
  4807  0001D0                     i1l199:
  4808  0001D0  C062  FFE0         	movff	??_ISR_RB+2,bsr
  4809  0001D4  C061  FFE8         	movff	??_ISR_RB+1,wreg
  4810  0001D8  C060  FFD8         	movff	??_ISR_RB,status
  4811  0001DC  9057               	bcf	int$flags,0,c	;clear compiler interrupt flag (level 1)
  4812  0001DE  0010               	retfie	
  4813  0001E0                     __end_of_ISR_RB:
  4814                           	callstack 0
  4815                           
  4816 ;; *************** function _ISR_EX0_1 *****************
  4817 ;; Defined at:
  4818 ;;		line 311 in file "Programacion.c"
  4819 ;; Parameters:    Size  Location     Type
  4820 ;;		None
  4821 ;; Auto vars:     Size  Location     Type
  4822 ;;  i               2   82[COMRAM] int 
  4823 ;;  i               2   84[COMRAM] int 
  4824 ;; Return value:  Size  Location     Type
  4825 ;;                  1    wreg      void 
  4826 ;; Registers used:
  4827 ;;		wreg, status,2, status,0, prodl, prodh, cstack
  4828 ;; Tracked objects:
  4829 ;;		On entry : 0/0
  4830 ;;		On exit  : 0/0
  4831 ;;		Unchanged: 0/0
  4832 ;; Data sizes:     COMRAM   BANK0   BANK1   BANK2   BANK3   BANK4   BANK5   BANK6   BANK7
  4833 ;;      Params:         0       0       0       0       0       0       0       0       0
  4834 ;;      Locals:         4       0       0       0       0       0       0       0       0
  4835 ;;      Temps:          4       0       0       0       0       0       0       0       0
  4836 ;;      Totals:         8       0       0       0       0       0       0       0       0
  4837 ;;Total ram usage:        8 bytes
  4838 ;; Hardware stack levels used:    1
  4839 ;; Hardware stack levels required when called:    2
  4840 ;; This function calls:
  4841 ;;		i2_Temp
  4842 ;;		i2_dec
  4843 ;;		i2_und
  4844 ;; This function is called by:
  4845 ;;		Interrupt level 2
  4846 ;; This function uses a non-reentrant model
  4847 ;;
  4848                           
  4849                           	psect	intcode
  4850  000008                     __pintcode:
  4851                           	callstack 0
  4852  000008                     _ISR_EX0_1:
  4853                           	callstack 25
  4854                           
  4855                           ;incstack = 0
  4856  000008  8257               	bsf	int$flags,1,c	;set compiler interrupt flag (level 2)
  4857  00000A  ED34  F010         	call	int_func,f	;refresh shadow registers
  4858                           
  4859                           	psect	intcode_body
  4860  002068                     __pintcode_body:
  4861                           	callstack 25
  4862  002068                     int_func:
  4863                           	callstack 25
  4864  002068  0006               	pop		; remove dummy address from shadow register refresh
  4865  00206A  CFF3 F051          	movff	prodl,??_ISR_EX0_1+2
  4866  00206E  CFF4 F052          	movff	prodh,??_ISR_EX0_1+3
  4867  002072                     
  4868                           ;Programacion.c: 313:             PORTDbits.RD5=1;
  4869  002072  A2F2               	btfss	242,1,c	;volatile
  4870  002074  EF3E  F010         	goto	i2u514_41
  4871  002078  EF40  F010         	goto	i2u514_40
  4872  00207C                     i2u514_41:
  4873  00207C  EFDA  F010         	goto	i2l159
  4874  002080                     i2u514_40:
  4875  002080                     
  4876                           ;Programacion.c: 314:             _delay((unsigned long)((300)*(4000000/4000.0)));;Progr
      +                          amacion.c: 315:             PORTDbits.RD5=0;
  4877  002080  92F2               	bcf	242,1,c	;volatile
  4878  002082                     
  4879                           ;Programacion.c: 316:             _delay((unsigned long)((300)*(4000000/4000.0)));
  4880  002082  0E00               	movlw	0
  4881  002084  6E56               	movwf	(ISR_EX0_1@i+1)^0,c
  4882  002086  0E00               	movlw	0
  4883  002088  6E55               	movwf	ISR_EX0_1@i^0,c
  4884  00208A                     i2l3819:
  4885                           
  4886                           ;Programacion.c: 317:             PORTDbits.RD6=1;;Programacion.c: 318:             _del
      +                          ay((unsigned long)((300)*(4000000/4000.0)));
  4887  00208A  C055  F001         	movff	ISR_EX0_1@i,i2und@x
  4888  00208E  C056  F002         	movff	ISR_EX0_1@i+1,i2und@x+1
  4889  002092  EC3E  F012         	call	i2_und	;wreg free
  4890                           
  4891                           ;Programacion.c: 319:             PORTDbits.RD6=0;
  4892  002096  C055  F001         	movff	ISR_EX0_1@i,i2dec@y
  4893  00209A  C056  F002         	movff	ISR_EX0_1@i+1,i2dec@y+1
  4894  00209E  ECDD  F012         	call	i2_dec	;wreg free
  4895  0020A2                     
  4896                           ;Programacion.c: 320:             _delay((unsigned long)((300)*(4000000/4000.0)));
  4897  0020A2  0E03               	movlw	3
  4898  0020A4  6E50               	movwf	(??_ISR_EX0_1+1)^0,c
  4899  0020A6  0E8A               	movlw	138
  4900  0020A8  6E4F               	movwf	??_ISR_EX0_1^0,c
  4901  0020AA  0E56               	movlw	86
  4902  0020AC                     i2u545_47:
  4903  0020AC  2EE8               	decfsz	wreg,f,c
  4904  0020AE  D7FE               	bra	i2u545_47
  4905  0020B0  2E4F               	decfsz	??_ISR_EX0_1^0,f,c
  4906  0020B2  D7FC               	bra	i2u545_47
  4907  0020B4  2E50               	decfsz	(??_ISR_EX0_1+1)^0,f,c
  4908  0020B6  D7FA               	bra	i2u545_47
  4909  0020B8                     
  4910                           ;Programacion.c: 321:             PORTDbits.RD7=1;
  4911  0020B8  4A55               	infsnz	ISR_EX0_1@i^0,f,c
  4912  0020BA  2A56               	incf	(ISR_EX0_1@i+1)^0,f,c
  4913  0020BC  BE56               	btfsc	(ISR_EX0_1@i+1)^0,7,c
  4914  0020BE  EF6A  F010         	goto	i2u515_41
  4915  0020C2  5056               	movf	(ISR_EX0_1@i+1)^0,w,c
  4916  0020C4  E109               	bnz	i2u515_40
  4917  0020C6  0E0A               	movlw	10
  4918  0020C8  5C55               	subwf	ISR_EX0_1@i^0,w,c
  4919  0020CA  A0D8               	btfss	status,0,c
  4920  0020CC  EF6A  F010         	goto	i2u515_41
  4921  0020D0  EF6C  F010         	goto	i2u515_40
  4922  0020D4                     i2u515_41:
  4923  0020D4  EF45  F010         	goto	i2l3819
  4924  0020D8                     i2u515_40:
  4925  0020D8                     
  4926                           ;Programacion.c: 322:             _delay((unsigned long)((300)*(4000000/4000.0)));
  4927  0020D8  0E00               	movlw	0
  4928  0020DA  6E02               	movwf	(i2und@x+1)^0,c
  4929  0020DC  0E00               	movlw	0
  4930  0020DE  6E01               	movwf	i2und@x^0,c
  4931  0020E0  EC3E  F012         	call	i2_und	;wreg free
  4932                           
  4933                           ;Programacion.c: 323:             PORTDbits.RD7=0;
  4934  0020E4  0E00               	movlw	0
  4935  0020E6  6E02               	movwf	(i2dec@y+1)^0,c
  4936  0020E8  0E00               	movlw	0
  4937  0020EA  6E01               	movwf	i2dec@y^0,c
  4938  0020EC  ECDD  F012         	call	i2_dec	;wreg free
  4939  0020F0                     
  4940                           ;Programacion.c: 324:             _delay((unsigned long)((300)*(4000000/4000.0)));
  4941  0020F0  0E00               	movlw	0
  4942  0020F2  6E54               	movwf	(ISR_EX0_1@i_729+1)^0,c
  4943  0020F4  0E00               	movlw	0
  4944  0020F6  6E53               	movwf	ISR_EX0_1@i_729^0,c
  4945  0020F8                     i2l162:
  4946                           
  4947                           ;Programacion.c: 325:         };Programacion.c: 326:     }
  4948  0020F8  8A83               	bsf	131,5,c	;volatile
  4949  0020FA                     
  4950                           ;Programacion.c: 327:     if (INTCON3bits.INT1IF==1)
  4951  0020FA  0E02               	movlw	2
  4952  0020FC  6E50               	movwf	(??_ISR_EX0_1+1)^0,c
  4953  0020FE  0E86               	movlw	134
  4954  002100  6E4F               	movwf	??_ISR_EX0_1^0,c
  4955  002102  0E99               	movlw	153
  4956  002104                     i2u546_47:
  4957  002104  2EE8               	decfsz	wreg,f,c
  4958  002106  D7FE               	bra	i2u546_47
  4959  002108  2E4F               	decfsz	??_ISR_EX0_1^0,f,c
  4960  00210A  D7FC               	bra	i2u546_47
  4961  00210C  2E50               	decfsz	(??_ISR_EX0_1+1)^0,f,c
  4962  00210E  D7FA               	bra	i2u546_47
  4963  002110  F000               	nop	
  4964  002112                     
  4965                           ;Programacion.c: 328:     {
  4966  002112  9A83               	bcf	131,5,c	;volatile
  4967                           
  4968                           ;Programacion.c: 329:         while (PORTDbits.RD4==1)
  4969  002114  0E02               	movlw	2
  4970  002116  6E50               	movwf	(??_ISR_EX0_1+1)^0,c
  4971  002118  0E86               	movlw	134
  4972  00211A  6E4F               	movwf	??_ISR_EX0_1^0,c
  4973  00211C  0E99               	movlw	153
  4974  00211E                     i2u547_47:
  4975  00211E  2EE8               	decfsz	wreg,f,c
  4976  002120  D7FE               	bra	i2u547_47
  4977  002122  2E4F               	decfsz	??_ISR_EX0_1^0,f,c
  4978  002124  D7FC               	bra	i2u547_47
  4979  002126  2E50               	decfsz	(??_ISR_EX0_1+1)^0,f,c
  4980  002128  D7FA               	bra	i2u547_47
  4981  00212A  F000               	nop	
  4982  00212C                     
  4983                           ;Programacion.c: 330:         {
  4984  00212C  8C83               	bsf	131,6,c	;volatile
  4985                           
  4986                           ;Programacion.c: 331:             Temp ();
  4987  00212E  0E02               	movlw	2
  4988  002130  6E50               	movwf	(??_ISR_EX0_1+1)^0,c
  4989  002132  0E86               	movlw	134
  4990  002134  6E4F               	movwf	??_ISR_EX0_1^0,c
  4991  002136  0E99               	movlw	153
  4992  002138                     i2u548_47:
  4993  002138  2EE8               	decfsz	wreg,f,c
  4994  00213A  D7FE               	bra	i2u548_47
  4995  00213C  2E4F               	decfsz	??_ISR_EX0_1^0,f,c
  4996  00213E  D7FC               	bra	i2u548_47
  4997  002140  2E50               	decfsz	(??_ISR_EX0_1+1)^0,f,c
  4998  002142  D7FA               	bra	i2u548_47
  4999  002144  F000               	nop	
  5000  002146                     
  5001                           ;Programacion.c: 332:         }
  5002  002146  9C83               	bcf	131,6,c	;volatile
  5003                           
  5004                           ;Programacion.c: 333:         if (PORTBbits.RB2==0)
  5005  002148  0E02               	movlw	2
  5006  00214A  6E50               	movwf	(??_ISR_EX0_1+1)^0,c
  5007  00214C  0E86               	movlw	134
  5008  00214E  6E4F               	movwf	??_ISR_EX0_1^0,c
  5009  002150  0E99               	movlw	153
  5010  002152                     i2u549_47:
  5011  002152  2EE8               	decfsz	wreg,f,c
  5012  002154  D7FE               	bra	i2u549_47
  5013  002156  2E4F               	decfsz	??_ISR_EX0_1^0,f,c
  5014  002158  D7FC               	bra	i2u549_47
  5015  00215A  2E50               	decfsz	(??_ISR_EX0_1+1)^0,f,c
  5016  00215C  D7FA               	bra	i2u549_47
  5017  00215E  F000               	nop	
  5018  002160                     
  5019                           ;Programacion.c: 334:         {
  5020  002160  8E83               	bsf	131,7,c	;volatile
  5021                           
  5022                           ;Programacion.c: 335:             PORTDbits.RD7=0;
  5023  002162  0E02               	movlw	2
  5024  002164  6E50               	movwf	(??_ISR_EX0_1+1)^0,c
  5025  002166  0E86               	movlw	134
  5026  002168  6E4F               	movwf	??_ISR_EX0_1^0,c
  5027  00216A  0E99               	movlw	153
  5028  00216C                     i2u550_47:
  5029  00216C  2EE8               	decfsz	wreg,f,c
  5030  00216E  D7FE               	bra	i2u550_47
  5031  002170  2E4F               	decfsz	??_ISR_EX0_1^0,f,c
  5032  002172  D7FC               	bra	i2u550_47
  5033  002174  2E50               	decfsz	(??_ISR_EX0_1+1)^0,f,c
  5034  002176  D7FA               	bra	i2u550_47
  5035  002178  F000               	nop	
  5036  00217A                     
  5037                           ;Programacion.c: 336:             INTCON3bits.INT1IF=0;
  5038  00217A  9E83               	bcf	131,7,c	;volatile
  5039                           
  5040                           ;Programacion.c: 337:         }
  5041  00217C  0E02               	movlw	2
  5042  00217E  6E50               	movwf	(??_ISR_EX0_1+1)^0,c
  5043  002180  0E86               	movlw	134
  5044  002182  6E4F               	movwf	??_ISR_EX0_1^0,c
  5045  002184  0E99               	movlw	153
  5046  002186                     i2u551_47:
  5047  002186  2EE8               	decfsz	wreg,f,c
  5048  002188  D7FE               	bra	i2u551_47
  5049  00218A  2E4F               	decfsz	??_ISR_EX0_1^0,f,c
  5050  00218C  D7FC               	bra	i2u551_47
  5051  00218E  2E50               	decfsz	(??_ISR_EX0_1+1)^0,f,c
  5052  002190  D7FA               	bra	i2u551_47
  5053  002192  F000               	nop	
  5054  002194                     
  5055                           ;Programacion.c: 338:         else
  5056  002194  4A53               	infsnz	ISR_EX0_1@i_729^0,f,c
  5057  002196  2A54               	incf	(ISR_EX0_1@i_729+1)^0,f,c
  5058  002198  BE54               	btfsc	(ISR_EX0_1@i_729+1)^0,7,c
  5059  00219A  EFD8  F010         	goto	i2u516_41
  5060  00219E  5054               	movf	(ISR_EX0_1@i_729+1)^0,w,c
  5061  0021A0  E109               	bnz	i2u516_40
  5062  0021A2  0E03               	movlw	3
  5063  0021A4  5C53               	subwf	ISR_EX0_1@i_729^0,w,c
  5064  0021A6  A0D8               	btfss	status,0,c
  5065  0021A8  EFD8  F010         	goto	i2u516_41
  5066  0021AC  EFDA  F010         	goto	i2u516_40
  5067  0021B0                     i2u516_41:
  5068  0021B0  EF7C  F010         	goto	i2l162
  5069  0021B4                     i2u516_40:
  5070  0021B4                     i2l159:
  5071                           
  5072                           ;Programacion.c: 340:             PORTDbits.RD7=1;
  5073  0021B4  A0F0               	btfss	240,0,c	;volatile
  5074  0021B6  EFDF  F010         	goto	i2u517_41
  5075  0021BA  EFE1  F010         	goto	i2u517_40
  5076  0021BE                     i2u517_41:
  5077  0021BE  EFF8  F010         	goto	i2l170
  5078  0021C2                     i2u517_40:
  5079  0021C2  EFE5  F010         	goto	i2l3853
  5080  0021C6                     i2l3851:
  5081                           
  5082                           ;Programacion.c: 343: };Programacion.c: 344: void __attribute__((picinterrupt(("low_prio
      +                          rity")))) ISR_RB(void)
  5083  0021C6  EC10  F014         	call	i2_Temp	;wreg free
  5084  0021CA                     i2l3853:
  5085                           
  5086                           ;Programacion.c: 342:     }
  5087  0021CA  B883               	btfsc	131,4,c	;volatile
  5088  0021CC  EFEA  F010         	goto	i2u518_41
  5089  0021D0  EFEC  F010         	goto	i2u518_40
  5090  0021D4                     i2u518_41:
  5091  0021D4  EFE3  F010         	goto	i2l3851
  5092  0021D8                     i2u518_40:
  5093  0021D8                     
  5094                           ;Programacion.c: 346:     if (INTCON3bits.INT2IF==1)
  5095  0021D8  B481               	btfsc	129,2,c	;volatile
  5096  0021DA  EFF1  F010         	goto	i2u519_41
  5097  0021DE  EFF3  F010         	goto	i2u519_40
  5098  0021E2                     i2u519_41:
  5099  0021E2  EFF7  F010         	goto	i2l168
  5100  0021E6                     i2u519_40:
  5101  0021E6                     
  5102                           ;Programacion.c: 347:     {;Programacion.c: 348:         while (PORTBbits.RB3==1)
  5103  0021E6  9E83               	bcf	131,7,c	;volatile
  5104                           
  5105                           ;Programacion.c: 349:         {
  5106  0021E8  90F0               	bcf	240,0,c	;volatile
  5107                           
  5108                           ;Programacion.c: 350:             PORTDbits.RD5=1;
  5109  0021EA  EFF8  F010         	goto	i2l170
  5110  0021EE                     i2l168:
  5111                           
  5112                           ;Programacion.c: 352:         if (PORTBbits.RB3==0);Programacion.c: 353:         {
  5113  0021EE  8E83               	bsf	131,7,c	;volatile
  5114  0021F0                     i2l170:
  5115  0021F0  C052  FFF4         	movff	??_ISR_EX0_1+3,prodh
  5116  0021F4  C051  FFF3         	movff	??_ISR_EX0_1+2,prodl
  5117  0021F8  9257               	bcf	int$flags,1,c	;clear compiler interrupt flag (level 2)
  5118  0021FA  0011               	retfie		f
  5119  0021FC                     __end_of_ISR_EX0_1:
  5120                           	callstack 0
  5121                           
  5122 ;; *************** function i2_und *****************
  5123 ;; Defined at:
  5124 ;;		line 165 in file "Programacion.c"
  5125 ;; Parameters:    Size  Location     Type
  5126 ;;  x               2    0[COMRAM] int 
  5127 ;; Auto vars:     Size  Location     Type
  5128 ;;		None
  5129 ;; Return value:  Size  Location     Type
  5130 ;;                  1    wreg      void 
  5131 ;; Registers used:
  5132 ;;		wreg, status,2, status,0
  5133 ;; Tracked objects:
  5134 ;;		On entry : 0/0
  5135 ;;		On exit  : 0/0
  5136 ;;		Unchanged: 0/0
  5137 ;; Data sizes:     COMRAM   BANK0   BANK1   BANK2   BANK3   BANK4   BANK5   BANK6   BANK7
  5138 ;;      Params:         2       0       0       0       0       0       0       0       0
  5139 ;;      Locals:         0       0       0       0       0       0       0       0       0
  5140 ;;      Temps:          0       0       0       0       0       0       0       0       0
  5141 ;;      Totals:         2       0       0       0       0       0       0       0       0
  5142 ;;Total ram usage:        2 bytes
  5143 ;; Hardware stack levels used:    1
  5144 ;; This function calls:
  5145 ;;		Nothing
  5146 ;; This function is called by:
  5147 ;;		_ISR_EX0_1
  5148 ;; This function uses a non-reentrant model
  5149 ;;
  5150                           
  5151                           	psect	text12
  5152  00247C                     __ptext12:
  5153                           	callstack 0
  5154  00247C                     i2_und:
  5155                           	callstack 26
  5156  00247C                     
  5157                           ;Programacion.c: 165:         PORTDbits.RD2=0;;Programacion.c: 166:         PORTDbits.RD
      +                          3=0;;Programacion.c: 167:     }
  5158  00247C  5001               	movf	i2und@x^0,w,c
  5159  00247E  1002               	iorwf	(i2und@x+1)^0,w,c
  5160  002480  A4D8               	btfss	status,2,c
  5161  002482  EF45  F012         	goto	i2u488_41
  5162  002486  EF47  F012         	goto	i2u488_40
  5163  00248A                     i2u488_41:
  5164  00248A  EF4D  F012         	goto	i2l3639
  5165  00248E                     i2u488_40:
  5166  00248E                     
  5167                           ;Programacion.c: 168:     else if (x==2);Programacion.c: 169:     {
  5168  00248E  9083               	bcf	131,0,c	;volatile
  5169                           
  5170                           ;Programacion.c: 170:         PORTDbits.RD0=0;
  5171  002490  9283               	bcf	131,1,c	;volatile
  5172                           
  5173                           ;Programacion.c: 171:         PORTDbits.RD1=1;
  5174  002492  9483               	bcf	131,2,c	;volatile
  5175                           
  5176                           ;Programacion.c: 172:         PORTDbits.RD2=0;
  5177  002494  9683               	bcf	131,3,c	;volatile
  5178                           
  5179                           ;Programacion.c: 173:         PORTDbits.RD3=0;
  5180  002496  EFDC  F012         	goto	i2l132
  5181  00249A                     i2l3639:
  5182  00249A  0401               	decf	i2und@x^0,w,c
  5183  00249C  1002               	iorwf	(i2und@x+1)^0,w,c
  5184  00249E  A4D8               	btfss	status,2,c
  5185  0024A0  EF54  F012         	goto	i2u489_41
  5186  0024A4  EF56  F012         	goto	i2u489_40
  5187  0024A8                     i2u489_41:
  5188  0024A8  EF5C  F012         	goto	i2l3643
  5189  0024AC                     i2u489_40:
  5190  0024AC                     
  5191                           ;Programacion.c: 175:     else if (x==3);Programacion.c: 176:     {
  5192  0024AC  8083               	bsf	131,0,c	;volatile
  5193                           
  5194                           ;Programacion.c: 177:         PORTDbits.RD0=1;
  5195  0024AE  9283               	bcf	131,1,c	;volatile
  5196                           
  5197                           ;Programacion.c: 178:         PORTDbits.RD1=1;
  5198  0024B0  9483               	bcf	131,2,c	;volatile
  5199                           
  5200                           ;Programacion.c: 179:         PORTDbits.RD2=0;
  5201  0024B2  9683               	bcf	131,3,c	;volatile
  5202                           
  5203                           ;Programacion.c: 180:         PORTDbits.RD3=0;
  5204  0024B4  EFDC  F012         	goto	i2l132
  5205  0024B8                     i2l3643:
  5206  0024B8  0E02               	movlw	2
  5207  0024BA  1801               	xorwf	i2und@x^0,w,c
  5208  0024BC  1002               	iorwf	(i2und@x+1)^0,w,c
  5209  0024BE  A4D8               	btfss	status,2,c
  5210  0024C0  EF64  F012         	goto	i2u490_41
  5211  0024C4  EF66  F012         	goto	i2u490_40
  5212  0024C8                     i2u490_41:
  5213  0024C8  EF6C  F012         	goto	i2l3647
  5214  0024CC                     i2u490_40:
  5215  0024CC                     
  5216                           ;Programacion.c: 182:     else if (x==4);Programacion.c: 183:     {
  5217  0024CC  9083               	bcf	131,0,c	;volatile
  5218                           
  5219                           ;Programacion.c: 184:         PORTDbits.RD0=0;
  5220  0024CE  8283               	bsf	131,1,c	;volatile
  5221                           
  5222                           ;Programacion.c: 185:         PORTDbits.RD1=0;
  5223  0024D0  9483               	bcf	131,2,c	;volatile
  5224                           
  5225                           ;Programacion.c: 186:         PORTDbits.RD2=1;
  5226  0024D2  9683               	bcf	131,3,c	;volatile
  5227                           
  5228                           ;Programacion.c: 187:         PORTDbits.RD3=0;
  5229  0024D4  EFDC  F012         	goto	i2l132
  5230  0024D8                     i2l3647:
  5231  0024D8  0E03               	movlw	3
  5232  0024DA  1801               	xorwf	i2und@x^0,w,c
  5233  0024DC  1002               	iorwf	(i2und@x+1)^0,w,c
  5234  0024DE  A4D8               	btfss	status,2,c
  5235  0024E0  EF74  F012         	goto	i2u491_41
  5236  0024E4  EF76  F012         	goto	i2u491_40
  5237  0024E8                     i2u491_41:
  5238  0024E8  EF7C  F012         	goto	i2l3651
  5239  0024EC                     i2u491_40:
  5240  0024EC                     
  5241                           ;Programacion.c: 189:     else if (x==5);Programacion.c: 190:     {
  5242  0024EC  8083               	bsf	131,0,c	;volatile
  5243                           
  5244                           ;Programacion.c: 191:         PORTDbits.RD0=1;
  5245  0024EE  8283               	bsf	131,1,c	;volatile
  5246                           
  5247                           ;Programacion.c: 192:         PORTDbits.RD1=0;
  5248  0024F0  9483               	bcf	131,2,c	;volatile
  5249                           
  5250                           ;Programacion.c: 193:         PORTDbits.RD2=1;
  5251  0024F2  9683               	bcf	131,3,c	;volatile
  5252                           
  5253                           ;Programacion.c: 194:         PORTDbits.RD3=0;
  5254  0024F4  EFDC  F012         	goto	i2l132
  5255  0024F8                     i2l3651:
  5256  0024F8  0E04               	movlw	4
  5257  0024FA  1801               	xorwf	i2und@x^0,w,c
  5258  0024FC  1002               	iorwf	(i2und@x+1)^0,w,c
  5259  0024FE  A4D8               	btfss	status,2,c
  5260  002500  EF84  F012         	goto	i2u492_41
  5261  002504  EF86  F012         	goto	i2u492_40
  5262  002508                     i2u492_41:
  5263  002508  EF8C  F012         	goto	i2l3655
  5264  00250C                     i2u492_40:
  5265  00250C                     
  5266                           ;Programacion.c: 196:     else if (x==6);Programacion.c: 197:     {
  5267  00250C  9083               	bcf	131,0,c	;volatile
  5268                           
  5269                           ;Programacion.c: 198:         PORTDbits.RD0=0;
  5270  00250E  9283               	bcf	131,1,c	;volatile
  5271                           
  5272                           ;Programacion.c: 199:         PORTDbits.RD1=1;
  5273  002510  8483               	bsf	131,2,c	;volatile
  5274                           
  5275                           ;Programacion.c: 200:         PORTDbits.RD2=1;
  5276  002512  9683               	bcf	131,3,c	;volatile
  5277                           
  5278                           ;Programacion.c: 201:         PORTDbits.RD3=0;
  5279  002514  EFDC  F012         	goto	i2l132
  5280  002518                     i2l3655:
  5281  002518  0E05               	movlw	5
  5282  00251A  1801               	xorwf	i2und@x^0,w,c
  5283  00251C  1002               	iorwf	(i2und@x+1)^0,w,c
  5284  00251E  A4D8               	btfss	status,2,c
  5285  002520  EF94  F012         	goto	i2u493_41
  5286  002524  EF96  F012         	goto	i2u493_40
  5287  002528                     i2u493_41:
  5288  002528  EF9C  F012         	goto	i2l3659
  5289  00252C                     i2u493_40:
  5290  00252C                     
  5291                           ;Programacion.c: 203:     else if (x==7);Programacion.c: 204:     {
  5292  00252C  8083               	bsf	131,0,c	;volatile
  5293                           
  5294                           ;Programacion.c: 205:         PORTDbits.RD0=1;
  5295  00252E  9283               	bcf	131,1,c	;volatile
  5296                           
  5297                           ;Programacion.c: 206:         PORTDbits.RD1=1;
  5298  002530  8483               	bsf	131,2,c	;volatile
  5299                           
  5300                           ;Programacion.c: 207:         PORTDbits.RD2=1;
  5301  002532  9683               	bcf	131,3,c	;volatile
  5302                           
  5303                           ;Programacion.c: 208:         PORTDbits.RD3=0;
  5304  002534  EFDC  F012         	goto	i2l132
  5305  002538                     i2l3659:
  5306  002538  0E06               	movlw	6
  5307  00253A  1801               	xorwf	i2und@x^0,w,c
  5308  00253C  1002               	iorwf	(i2und@x+1)^0,w,c
  5309  00253E  A4D8               	btfss	status,2,c
  5310  002540  EFA4  F012         	goto	i2u494_41
  5311  002544  EFA6  F012         	goto	i2u494_40
  5312  002548                     i2u494_41:
  5313  002548  EFAC  F012         	goto	i2l3663
  5314  00254C                     i2u494_40:
  5315  00254C                     
  5316                           ;Programacion.c: 210:     else if (x==8);Programacion.c: 211:     {
  5317  00254C  9083               	bcf	131,0,c	;volatile
  5318                           
  5319                           ;Programacion.c: 212:         PORTDbits.RD0=0;
  5320  00254E  8283               	bsf	131,1,c	;volatile
  5321                           
  5322                           ;Programacion.c: 213:         PORTDbits.RD1=0;
  5323  002550  8483               	bsf	131,2,c	;volatile
  5324                           
  5325                           ;Programacion.c: 214:         PORTDbits.RD2=0;
  5326  002552  9683               	bcf	131,3,c	;volatile
  5327                           
  5328                           ;Programacion.c: 215:         PORTDbits.RD3=1;
  5329  002554  EFDC  F012         	goto	i2l132
  5330  002558                     i2l3663:
  5331  002558  0E07               	movlw	7
  5332  00255A  1801               	xorwf	i2und@x^0,w,c
  5333  00255C  1002               	iorwf	(i2und@x+1)^0,w,c
  5334  00255E  A4D8               	btfss	status,2,c
  5335  002560  EFB4  F012         	goto	i2u495_41
  5336  002564  EFB6  F012         	goto	i2u495_40
  5337  002568                     i2u495_41:
  5338  002568  EFBC  F012         	goto	i2l3667
  5339  00256C                     i2u495_40:
  5340  00256C                     
  5341                           ;Programacion.c: 217:     else if (x==9);Programacion.c: 218:     {
  5342  00256C  8083               	bsf	131,0,c	;volatile
  5343                           
  5344                           ;Programacion.c: 219:         PORTDbits.RD0=1;
  5345  00256E  8283               	bsf	131,1,c	;volatile
  5346                           
  5347                           ;Programacion.c: 220:         PORTDbits.RD1=0;
  5348  002570  8483               	bsf	131,2,c	;volatile
  5349                           
  5350                           ;Programacion.c: 221:         PORTDbits.RD2=0;
  5351  002572  9683               	bcf	131,3,c	;volatile
  5352                           
  5353                           ;Programacion.c: 222:         PORTDbits.RD3=1;
  5354  002574  EFDC  F012         	goto	i2l132
  5355  002578                     i2l3667:
  5356  002578  0E08               	movlw	8
  5357  00257A  1801               	xorwf	i2und@x^0,w,c
  5358  00257C  1002               	iorwf	(i2und@x+1)^0,w,c
  5359  00257E  A4D8               	btfss	status,2,c
  5360  002580  EFC4  F012         	goto	i2u496_41
  5361  002584  EFC6  F012         	goto	i2u496_40
  5362  002588                     i2u496_41:
  5363  002588  EFCC  F012         	goto	i2l3671
  5364  00258C                     i2u496_40:
  5365  00258C                     
  5366                           ;Programacion.c: 224: };Programacion.c: 225: void dec (int y)
  5367  00258C  9083               	bcf	131,0,c	;volatile
  5368                           
  5369                           ;Programacion.c: 226: {
  5370  00258E  9283               	bcf	131,1,c	;volatile
  5371                           
  5372                           ;Programacion.c: 227:     if (y==0)
  5373  002590  9483               	bcf	131,2,c	;volatile
  5374                           
  5375                           ;Programacion.c: 228:     {
  5376  002592  8683               	bsf	131,3,c	;volatile
  5377                           
  5378                           ;Programacion.c: 229:         PORTAbits.RA4=0;
  5379  002594  EFDC  F012         	goto	i2l132
  5380  002598                     i2l3671:
  5381  002598  0E09               	movlw	9
  5382  00259A  1801               	xorwf	i2und@x^0,w,c
  5383  00259C  1002               	iorwf	(i2und@x+1)^0,w,c
  5384  00259E  A4D8               	btfss	status,2,c
  5385  0025A0  EFD4  F012         	goto	i2u497_41
  5386  0025A4  EFD6  F012         	goto	i2u497_40
  5387  0025A8                     i2u497_41:
  5388  0025A8  EFDC  F012         	goto	i2l126
  5389  0025AC                     i2u497_40:
  5390  0025AC                     
  5391                           ;Programacion.c: 231:         PORTEbits.RE0=0;;Programacion.c: 232:         PORTEbits.RE
      +                          1=0;
  5392  0025AC  8083               	bsf	131,0,c	;volatile
  5393                           
  5394                           ;Programacion.c: 233:     }
  5395  0025AE  9283               	bcf	131,1,c	;volatile
  5396                           
  5397                           ;Programacion.c: 234:     else if (y==1)
  5398  0025B0  9483               	bcf	131,2,c	;volatile
  5399                           
  5400                           ;Programacion.c: 235:     {
  5401  0025B2  8683               	bsf	131,3,c	;volatile
  5402  0025B4  EFDC  F012         	goto	i2l132
  5403  0025B8                     i2l126:
  5404  0025B8                     i2l132:
  5405  0025B8  0012               	return		;funcret
  5406  0025BA                     __end_ofi2_und:
  5407                           	callstack 0
  5408                           
  5409 ;; *************** function i2_dec *****************
  5410 ;; Defined at:
  5411 ;;		line 238 in file "Programacion.c"
  5412 ;; Parameters:    Size  Location     Type
  5413 ;;  y               2    0[COMRAM] int 
  5414 ;; Auto vars:     Size  Location     Type
  5415 ;;		None
  5416 ;; Return value:  Size  Location     Type
  5417 ;;                  1    wreg      void 
  5418 ;; Registers used:
  5419 ;;		wreg, status,2, status,0
  5420 ;; Tracked objects:
  5421 ;;		On entry : 0/0
  5422 ;;		On exit  : 0/0
  5423 ;;		Unchanged: 0/0
  5424 ;; Data sizes:     COMRAM   BANK0   BANK1   BANK2   BANK3   BANK4   BANK5   BANK6   BANK7
  5425 ;;      Params:         2       0       0       0       0       0       0       0       0
  5426 ;;      Locals:         0       0       0       0       0       0       0       0       0
  5427 ;;      Temps:          0       0       0       0       0       0       0       0       0
  5428 ;;      Totals:         2       0       0       0       0       0       0       0       0
  5429 ;;Total ram usage:        2 bytes
  5430 ;; Hardware stack levels used:    1
  5431 ;; This function calls:
  5432 ;;		Nothing
  5433 ;; This function is called by:
  5434 ;;		_ISR_EX0_1
  5435 ;; This function uses a non-reentrant model
  5436 ;;
  5437                           
  5438                           	psect	text13
  5439  0025BA                     __ptext13:
  5440                           	callstack 0
  5441  0025BA                     i2_dec:
  5442                           	callstack 26
  5443  0025BA                     
  5444                           ;Programacion.c: 238:         PORTEbits.RE0=0;;Programacion.c: 239:         PORTEbits.RE
      +                          1=0;;Programacion.c: 240:     }
  5445  0025BA  5001               	movf	i2dec@y^0,w,c
  5446  0025BC  1002               	iorwf	(i2dec@y+1)^0,w,c
  5447  0025BE  A4D8               	btfss	status,2,c
  5448  0025C0  EFE4  F012         	goto	i2u498_41
  5449  0025C4  EFE6  F012         	goto	i2u498_40
  5450  0025C8                     i2u498_41:
  5451  0025C8  EFEC  F012         	goto	i2l3679
  5452  0025CC                     i2u498_40:
  5453  0025CC                     
  5454                           ;Programacion.c: 241:     else if (y==2);Programacion.c: 242:     {
  5455  0025CC  9880               	bcf	128,4,c	;volatile
  5456                           
  5457                           ;Programacion.c: 243:         PORTAbits.RA4=0;
  5458  0025CE  9A80               	bcf	128,5,c	;volatile
  5459                           
  5460                           ;Programacion.c: 244:         PORTAbits.RA5=1;
  5461  0025D0  9084               	bcf	132,0,c	;volatile
  5462                           
  5463                           ;Programacion.c: 245:         PORTEbits.RE0=0;
  5464  0025D2  9284               	bcf	132,1,c	;volatile
  5465                           
  5466                           ;Programacion.c: 246:         PORTEbits.RE1=0;
  5467  0025D4  EF7B  F013         	goto	i2l154
  5468  0025D8                     i2l3679:
  5469  0025D8  0401               	decf	i2dec@y^0,w,c
  5470  0025DA  1002               	iorwf	(i2dec@y+1)^0,w,c
  5471  0025DC  A4D8               	btfss	status,2,c
  5472  0025DE  EFF3  F012         	goto	i2u499_41
  5473  0025E2  EFF5  F012         	goto	i2u499_40
  5474  0025E6                     i2u499_41:
  5475  0025E6  EFFB  F012         	goto	i2l3683
  5476  0025EA                     i2u499_40:
  5477  0025EA                     
  5478                           ;Programacion.c: 248:     else if (y==3);Programacion.c: 249:     {
  5479  0025EA  8880               	bsf	128,4,c	;volatile
  5480                           
  5481                           ;Programacion.c: 250:         PORTAbits.RA4=1;
  5482  0025EC  9A80               	bcf	128,5,c	;volatile
  5483                           
  5484                           ;Programacion.c: 251:         PORTAbits.RA5=1;
  5485  0025EE  9084               	bcf	132,0,c	;volatile
  5486                           
  5487                           ;Programacion.c: 252:         PORTEbits.RE0=0;
  5488  0025F0  9284               	bcf	132,1,c	;volatile
  5489                           
  5490                           ;Programacion.c: 253:         PORTEbits.RE1=0;
  5491  0025F2  EF7B  F013         	goto	i2l154
  5492  0025F6                     i2l3683:
  5493  0025F6  0E02               	movlw	2
  5494  0025F8  1801               	xorwf	i2dec@y^0,w,c
  5495  0025FA  1002               	iorwf	(i2dec@y+1)^0,w,c
  5496  0025FC  A4D8               	btfss	status,2,c
  5497  0025FE  EF03  F013         	goto	i2u500_41
  5498  002602  EF05  F013         	goto	i2u500_40
  5499  002606                     i2u500_41:
  5500  002606  EF0B  F013         	goto	i2l3687
  5501  00260A                     i2u500_40:
  5502  00260A                     
  5503                           ;Programacion.c: 255:     else if (y==4);Programacion.c: 256:     {
  5504  00260A  9880               	bcf	128,4,c	;volatile
  5505                           
  5506                           ;Programacion.c: 257:         PORTAbits.RA4=0;
  5507  00260C  8A80               	bsf	128,5,c	;volatile
  5508                           
  5509                           ;Programacion.c: 258:         PORTAbits.RA5=0;
  5510  00260E  9084               	bcf	132,0,c	;volatile
  5511                           
  5512                           ;Programacion.c: 259:         PORTEbits.RE0=1;
  5513  002610  9284               	bcf	132,1,c	;volatile
  5514                           
  5515                           ;Programacion.c: 260:         PORTEbits.RE1=0;
  5516  002612  EF7B  F013         	goto	i2l154
  5517  002616                     i2l3687:
  5518  002616  0E03               	movlw	3
  5519  002618  1801               	xorwf	i2dec@y^0,w,c
  5520  00261A  1002               	iorwf	(i2dec@y+1)^0,w,c
  5521  00261C  A4D8               	btfss	status,2,c
  5522  00261E  EF13  F013         	goto	i2u501_41
  5523  002622  EF15  F013         	goto	i2u501_40
  5524  002626                     i2u501_41:
  5525  002626  EF1B  F013         	goto	i2l3691
  5526  00262A                     i2u501_40:
  5527  00262A                     
  5528                           ;Programacion.c: 262:     else if (y==5);Programacion.c: 263:     {
  5529  00262A  8880               	bsf	128,4,c	;volatile
  5530                           
  5531                           ;Programacion.c: 264:         PORTAbits.RA4=1;
  5532  00262C  8A80               	bsf	128,5,c	;volatile
  5533                           
  5534                           ;Programacion.c: 265:         PORTAbits.RA5=0;
  5535  00262E  9084               	bcf	132,0,c	;volatile
  5536                           
  5537                           ;Programacion.c: 266:         PORTEbits.RE0=1;
  5538  002630  9284               	bcf	132,1,c	;volatile
  5539                           
  5540                           ;Programacion.c: 267:         PORTEbits.RE1=0;
  5541  002632  EF7B  F013         	goto	i2l154
  5542  002636                     i2l3691:
  5543  002636  0E04               	movlw	4
  5544  002638  1801               	xorwf	i2dec@y^0,w,c
  5545  00263A  1002               	iorwf	(i2dec@y+1)^0,w,c
  5546  00263C  A4D8               	btfss	status,2,c
  5547  00263E  EF23  F013         	goto	i2u502_41
  5548  002642  EF25  F013         	goto	i2u502_40
  5549  002646                     i2u502_41:
  5550  002646  EF2B  F013         	goto	i2l3695
  5551  00264A                     i2u502_40:
  5552  00264A                     
  5553                           ;Programacion.c: 269:     else if (y==6);Programacion.c: 270:     {
  5554  00264A  9880               	bcf	128,4,c	;volatile
  5555                           
  5556                           ;Programacion.c: 271:         PORTAbits.RA4=0;
  5557  00264C  9A80               	bcf	128,5,c	;volatile
  5558                           
  5559                           ;Programacion.c: 272:         PORTAbits.RA5=1;
  5560  00264E  8084               	bsf	132,0,c	;volatile
  5561                           
  5562                           ;Programacion.c: 273:         PORTEbits.RE0=1;
  5563  002650  9284               	bcf	132,1,c	;volatile
  5564                           
  5565                           ;Programacion.c: 274:         PORTEbits.RE1=0;
  5566  002652  EF7B  F013         	goto	i2l154
  5567  002656                     i2l3695:
  5568  002656  0E05               	movlw	5
  5569  002658  1801               	xorwf	i2dec@y^0,w,c
  5570  00265A  1002               	iorwf	(i2dec@y+1)^0,w,c
  5571  00265C  A4D8               	btfss	status,2,c
  5572  00265E  EF33  F013         	goto	i2u503_41
  5573  002662  EF35  F013         	goto	i2u503_40
  5574  002666                     i2u503_41:
  5575  002666  EF3B  F013         	goto	i2l3699
  5576  00266A                     i2u503_40:
  5577  00266A                     
  5578                           ;Programacion.c: 276:     else if (y==7);Programacion.c: 277:     {
  5579  00266A  8880               	bsf	128,4,c	;volatile
  5580                           
  5581                           ;Programacion.c: 278:         PORTAbits.RA4=1;
  5582  00266C  9A80               	bcf	128,5,c	;volatile
  5583                           
  5584                           ;Programacion.c: 279:         PORTAbits.RA5=1;
  5585  00266E  8084               	bsf	132,0,c	;volatile
  5586                           
  5587                           ;Programacion.c: 280:         PORTEbits.RE0=1;
  5588  002670  9284               	bcf	132,1,c	;volatile
  5589                           
  5590                           ;Programacion.c: 281:         PORTEbits.RE1=0;
  5591  002672  EF7B  F013         	goto	i2l154
  5592  002676                     i2l3699:
  5593  002676  0E06               	movlw	6
  5594  002678  1801               	xorwf	i2dec@y^0,w,c
  5595  00267A  1002               	iorwf	(i2dec@y+1)^0,w,c
  5596  00267C  A4D8               	btfss	status,2,c
  5597  00267E  EF43  F013         	goto	i2u504_41
  5598  002682  EF45  F013         	goto	i2u504_40
  5599  002686                     i2u504_41:
  5600  002686  EF4B  F013         	goto	i2l3703
  5601  00268A                     i2u504_40:
  5602  00268A                     
  5603                           ;Programacion.c: 283:     else if (y==8);Programacion.c: 284:     {
  5604  00268A  9880               	bcf	128,4,c	;volatile
  5605                           
  5606                           ;Programacion.c: 285:         PORTAbits.RA4=0;
  5607  00268C  8A80               	bsf	128,5,c	;volatile
  5608                           
  5609                           ;Programacion.c: 286:         PORTAbits.RA5=0;
  5610  00268E  8084               	bsf	132,0,c	;volatile
  5611                           
  5612                           ;Programacion.c: 287:         PORTEbits.RE0=0;
  5613  002690  9284               	bcf	132,1,c	;volatile
  5614                           
  5615                           ;Programacion.c: 288:         PORTEbits.RE1=1;
  5616  002692  EF7B  F013         	goto	i2l154
  5617  002696                     i2l3703:
  5618  002696  0E07               	movlw	7
  5619  002698  1801               	xorwf	i2dec@y^0,w,c
  5620  00269A  1002               	iorwf	(i2dec@y+1)^0,w,c
  5621  00269C  A4D8               	btfss	status,2,c
  5622  00269E  EF53  F013         	goto	i2u505_41
  5623  0026A2  EF55  F013         	goto	i2u505_40
  5624  0026A6                     i2u505_41:
  5625  0026A6  EF5B  F013         	goto	i2l3707
  5626  0026AA                     i2u505_40:
  5627  0026AA                     
  5628                           ;Programacion.c: 290:     else if (y==9);Programacion.c: 291:     {
  5629  0026AA  8880               	bsf	128,4,c	;volatile
  5630                           
  5631                           ;Programacion.c: 292:         PORTAbits.RA4=1;
  5632  0026AC  8A80               	bsf	128,5,c	;volatile
  5633                           
  5634                           ;Programacion.c: 293:         PORTAbits.RA5=0;
  5635  0026AE  8084               	bsf	132,0,c	;volatile
  5636                           
  5637                           ;Programacion.c: 294:         PORTEbits.RE0=0;
  5638  0026B0  9284               	bcf	132,1,c	;volatile
  5639                           
  5640                           ;Programacion.c: 295:         PORTEbits.RE1=1;
  5641  0026B2  EF7B  F013         	goto	i2l154
  5642  0026B6                     i2l3707:
  5643  0026B6  0E08               	movlw	8
  5644  0026B8  1801               	xorwf	i2dec@y^0,w,c
  5645  0026BA  1002               	iorwf	(i2dec@y+1)^0,w,c
  5646  0026BC  A4D8               	btfss	status,2,c
  5647  0026BE  EF63  F013         	goto	i2u506_41
  5648  0026C2  EF65  F013         	goto	i2u506_40
  5649  0026C6                     i2u506_41:
  5650  0026C6  EF6B  F013         	goto	i2l3711
  5651  0026CA                     i2u506_40:
  5652  0026CA                     
  5653                           ;Programacion.c: 297: };Programacion.c: 298: void __attribute__((picinterrupt(("high_pri
      +                          ority")))) ISR_EX0_1(void)
  5654  0026CA  9880               	bcf	128,4,c	;volatile
  5655                           
  5656                           ;Programacion.c: 299: {
  5657  0026CC  9A80               	bcf	128,5,c	;volatile
  5658                           
  5659                           ;Programacion.c: 300:     if (INTCONbits.INT0IF==1)
  5660  0026CE  9084               	bcf	132,0,c	;volatile
  5661                           
  5662                           ;Programacion.c: 301:     {
  5663  0026D0  8284               	bsf	132,1,c	;volatile
  5664                           
  5665                           ;Programacion.c: 302:         INTCONbits.INT0IF=0;
  5666  0026D2  EF7B  F013         	goto	i2l154
  5667  0026D6                     i2l3711:
  5668  0026D6  0E09               	movlw	9
  5669  0026D8  1801               	xorwf	i2dec@y^0,w,c
  5670  0026DA  1002               	iorwf	(i2dec@y+1)^0,w,c
  5671  0026DC  A4D8               	btfss	status,2,c
  5672  0026DE  EF73  F013         	goto	i2u507_41
  5673  0026E2  EF75  F013         	goto	i2u507_40
  5674  0026E6                     i2u507_41:
  5675  0026E6  EF7B  F013         	goto	i2l148
  5676  0026EA                     i2u507_40:
  5677  0026EA                     
  5678                           ;Programacion.c: 304:         {;Programacion.c: 305:             und(i);
  5679  0026EA  8880               	bsf	128,4,c	;volatile
  5680                           
  5681                           ;Programacion.c: 306:             dec(i);
  5682  0026EC  9A80               	bcf	128,5,c	;volatile
  5683                           
  5684                           ;Programacion.c: 307:             _delay((unsigned long)((500)*(4000000/4000.0)));
  5685  0026EE  9084               	bcf	132,0,c	;volatile
  5686                           
  5687                           ;Programacion.c: 308:         }
  5688  0026F0  8284               	bsf	132,1,c	;volatile
  5689  0026F2  EF7B  F013         	goto	i2l154
  5690  0026F6                     i2l148:
  5691  0026F6                     i2l154:
  5692  0026F6  0012               	return		;funcret
  5693  0026F8                     __end_ofi2_dec:
  5694                           	callstack 0
  5695                           
  5696 ;; *************** function i2_Temp *****************
  5697 ;; Defined at:
  5698 ;;		line 141 in file "Programacion.c"
  5699 ;; Parameters:    Size  Location     Type
  5700 ;;		None
  5701 ;; Auto vars:     Size  Location     Type
  5702 ;;  temp            4   74[COMRAM] float 
  5703 ;;  tempt           4   70[COMRAM] float 
  5704 ;; Return value:  Size  Location     Type
  5705 ;;                  1    wreg      void 
  5706 ;; Registers used:
  5707 ;;		wreg, status,2, status,0, prodl, prodh, cstack
  5708 ;; Tracked objects:
  5709 ;;		On entry : 0/0
  5710 ;;		On exit  : 0/0
  5711 ;;		Unchanged: 0/0
  5712 ;; Data sizes:     COMRAM   BANK0   BANK1   BANK2   BANK3   BANK4   BANK5   BANK6   BANK7
  5713 ;;      Params:         0       0       0       0       0       0       0       0       0
  5714 ;;      Locals:         8       0       0       0       0       0       0       0       0
  5715 ;;      Temps:          4       0       0       0       0       0       0       0       0
  5716 ;;      Totals:        12       0       0       0       0       0       0       0       0
  5717 ;;Total ram usage:       12 bytes
  5718 ;; Hardware stack levels used:    1
  5719 ;; Hardware stack levels required when called:    1
  5720 ;; This function calls:
  5721 ;;		i2___fladd
  5722 ;;		i2___fldiv
  5723 ;;		i2___flge
  5724 ;;		i2___flmul
  5725 ;;		i2___xxtofl
  5726 ;; This function is called by:
  5727 ;;		_ISR_EX0_1
  5728 ;; This function uses a non-reentrant model
  5729 ;;
  5730                           
  5731                           	psect	text14
  5732  002820                     __ptext14:
  5733                           	callstack 0
  5734  002820                     i2_Temp:
  5735                           	callstack 25
  5736  002820                     
  5737                           ;Programacion.c: 143:             PORTDbits.RD7=1;
  5738  002820  80C2               	bsf	194,0,c	;volatile
  5739                           
  5740                           ;Programacion.c: 144:         }
  5741  002822  82C2               	bsf	194,1,c	;volatile
  5742                           
  5743                           ;Programacion.c: 145:         else
  5744  002824  EF97  F014         	goto	i2l105
  5745  002828                     i2l3625:
  5746                           
  5747                           ;Programacion.c: 148:             PORTDbits.RD7=0;
  5748  002828  0E00               	movlw	0
  5749  00282A  6E4B               	movwf	i2Temp@temp^0,c
  5750  00282C  0E00               	movlw	0
  5751  00282E  6E4C               	movwf	(i2Temp@temp+1)^0,c
  5752  002830  0E00               	movlw	0
  5753  002832  6E4D               	movwf	(i2Temp@temp+2)^0,c
  5754  002834  0E00               	movlw	0
  5755  002836  6E4E               	movwf	(i2Temp@temp+3)^0,c
  5756  002838                     
  5757                           ;Programacion.c: 150:     }
  5758  002838  50C4               	movf	196,w,c	;volatile
  5759  00283A  6E44               	movwf	(??i2_Temp+1)^0,c
  5760  00283C  6A43               	clrf	??i2_Temp^0,c
  5761  00283E  50C3               	movf	195,w,c	;volatile
  5762  002840  6E45               	movwf	(??i2_Temp+2)^0,c
  5763  002842  6A46               	clrf	(??i2_Temp+3)^0,c
  5764  002844  5043               	movf	??i2_Temp^0,w,c
  5765  002846  2645               	addwf	(??i2_Temp+2)^0,f,c
  5766  002848  5044               	movf	(??i2_Temp+1)^0,w,c
  5767  00284A  2246               	addwfc	(??i2_Temp+3)^0,f,c
  5768  00284C  C045  F001         	movff	??i2_Temp+2,i2___xxtofl@val
  5769  002850  C046  F002         	movff	??i2_Temp+3,i2___xxtofl@val+1
  5770  002854  0E00               	movlw	0
  5771  002856  BE02               	btfsc	(i2___xxtofl@val+1)^0,7,c
  5772  002858  0EFF               	movlw	-1
  5773  00285A  6E03               	movwf	(i2___xxtofl@val+2)^0,c
  5774  00285C  6E04               	movwf	(i2___xxtofl@val+3)^0,c
  5775  00285E  0E01               	movlw	1
  5776  002860  EC5A  F00F         	call	i2___xxtofl
  5777  002864  C001  F047         	movff	?i2___xxtofl,i2Temp@tempt
  5778  002868  C002  F048         	movff	?i2___xxtofl+1,i2Temp@tempt+1
  5779  00286C  C003  F049         	movff	?i2___xxtofl+2,i2Temp@tempt+2
  5780  002870  C004  F04A         	movff	?i2___xxtofl+3,i2Temp@tempt+3
  5781  002874                     
  5782                           ;Programacion.c: 151: }
  5783  002874  0E00               	movlw	0
  5784  002876  6E15               	movwf	i2___flmul@a^0,c
  5785  002878  0E00               	movlw	0
  5786  00287A  6E16               	movwf	(i2___flmul@a+1)^0,c
  5787  00287C  0E16               	movlw	22
  5788  00287E  6E17               	movwf	(i2___flmul@a+2)^0,c
  5789  002880  0E43               	movlw	67
  5790  002882  6E18               	movwf	(i2___flmul@a+3)^0,c
  5791  002884  0E00               	movlw	0
  5792  002886  6E05               	movwf	i2___fladd@a^0,c
  5793  002888  0E00               	movlw	0
  5794  00288A  6E06               	movwf	(i2___fladd@a+1)^0,c
  5795  00288C  0E80               	movlw	128
  5796  00288E  6E07               	movwf	(i2___fladd@a+2)^0,c
  5797  002890  0E3F               	movlw	63
  5798  002892  6E08               	movwf	(i2___fladd@a+3)^0,c
  5799  002894  C047  F001         	movff	i2Temp@tempt,i2___fladd@b
  5800  002898  C048  F002         	movff	i2Temp@tempt+1,i2___fladd@b+1
  5801  00289C  C049  F003         	movff	i2Temp@tempt+2,i2___fladd@b+2
  5802  0028A0  C04A  F004         	movff	i2Temp@tempt+3,i2___fladd@b+3
  5803  0028A4  EC53  F003         	call	i2___fladd	;wreg free
  5804  0028A8  C001  F011         	movff	?i2___fladd,i2___flmul@b
  5805  0028AC  C002  F012         	movff	?i2___fladd+1,i2___flmul@b+1
  5806  0028B0  C003  F013         	movff	?i2___fladd+2,i2___flmul@b+2
  5807  0028B4  C004  F014         	movff	?i2___fladd+3,i2___flmul@b+3
  5808  0028B8  ECC9  F007         	call	i2___flmul	;wreg free
  5809  0028BC  C011  F02A         	movff	?i2___flmul,i2___fldiv@b
  5810  0028C0  C012  F02B         	movff	?i2___flmul+1,i2___fldiv@b+1
  5811  0028C4  C013  F02C         	movff	?i2___flmul+2,i2___fldiv@b+2
  5812  0028C8  C014  F02D         	movff	?i2___flmul+3,i2___fldiv@b+3
  5813  0028CC  0E00               	movlw	0
  5814  0028CE  6E2E               	movwf	i2___fldiv@a^0,c
  5815  0028D0  0E00               	movlw	0
  5816  0028D2  6E2F               	movwf	(i2___fldiv@a+1)^0,c
  5817  0028D4  0E80               	movlw	128
  5818  0028D6  6E30               	movwf	(i2___fldiv@a+2)^0,c
  5819  0028D8  0E44               	movlw	68
  5820  0028DA  6E31               	movwf	(i2___fldiv@a+3)^0,c
  5821  0028DC  ECAC  F00B         	call	i2___fldiv	;wreg free
  5822  0028E0  C02A  F04B         	movff	?i2___fldiv,i2Temp@temp
  5823  0028E4  C02B  F04C         	movff	?i2___fldiv+1,i2Temp@temp+1
  5824  0028E8  C02C  F04D         	movff	?i2___fldiv+2,i2Temp@temp+2
  5825  0028EC  C02D  F04E         	movff	?i2___fldiv+3,i2Temp@temp+3
  5826  0028F0                     
  5827                           ;Programacion.c: 153: {
  5828  0028F0  0E00               	movlw	0
  5829  0028F2  6E01               	movwf	i2___flge@ff1^0,c
  5830  0028F4  0E00               	movlw	0
  5831  0028F6  6E02               	movwf	(i2___flge@ff1+1)^0,c
  5832  0028F8  0E70               	movlw	112
  5833  0028FA  6E03               	movwf	(i2___flge@ff1+2)^0,c
  5834  0028FC  0E42               	movlw	66
  5835  0028FE  6E04               	movwf	(i2___flge@ff1+3)^0,c
  5836  002900  C04B  F005         	movff	i2Temp@temp,i2___flge@ff2
  5837  002904  C04C  F006         	movff	i2Temp@temp+1,i2___flge@ff2+1
  5838  002908  C04D  F007         	movff	i2Temp@temp+2,i2___flge@ff2+2
  5839  00290C  C04E  F008         	movff	i2Temp@temp+3,i2___flge@ff2+3
  5840  002910  EC22  F015         	call	i2___flge	;wreg free
  5841  002914  B0D8               	btfsc	status,0,c
  5842  002916  EF8F  F014         	goto	i2u486_41
  5843  00291A  EF91  F014         	goto	i2u486_40
  5844  00291E                     i2u486_41:
  5845  00291E  EF95  F014         	goto	i2l107
  5846  002922                     i2u486_40:
  5847  002922                     
  5848                           ;Programacion.c: 154:     if (x==0);Programacion.c: 155:     {
  5849  002922  8883               	bsf	131,4,c	;volatile
  5850                           
  5851                           ;Programacion.c: 156:         PORTDbits.RD0=0;
  5852  002924  8E83               	bsf	131,7,c	;volatile
  5853                           
  5854                           ;Programacion.c: 157:         PORTDbits.RD1=0;
  5855  002926  EF97  F014         	goto	i2l105
  5856  00292A                     i2l107:
  5857                           
  5858                           ;Programacion.c: 159:         PORTDbits.RD3=0;;Programacion.c: 160:     }
  5859  00292A  9883               	bcf	131,4,c	;volatile
  5860                           
  5861                           ;Programacion.c: 161:     else if (x==1)
  5862  00292C  9E83               	bcf	131,7,c	;volatile
  5863  00292E                     i2l105:
  5864                           
  5865                           ;Programacion.c: 145:         else
  5866  00292E  B2C2               	btfsc	194,1,c	;volatile
  5867  002930  EF9C  F014         	goto	i2u487_41
  5868  002934  EF9E  F014         	goto	i2u487_40
  5869  002938                     i2u487_41:
  5870  002938  EF14  F014         	goto	i2l3625
  5871  00293C                     i2u487_40:
  5872  00293C  0012               	return		;funcret
  5873  00293E                     __end_ofi2_Temp:
  5874                           	callstack 0
  5875                           
  5876 ;; *************** function i2___xxtofl *****************
  5877 ;; Defined at:
  5878 ;;		line 10 in file "C:\Program Files\Microchip\xc8\v2.20\pic\sources\c99\common\xxtofl.c"
  5879 ;; Parameters:    Size  Location     Type
  5880 ;;  sign            1    wreg     unsigned char 
  5881 ;;  val             4    0[COMRAM] long 
  5882 ;; Auto vars:     Size  Location     Type
  5883 ;;  sign            1    8[COMRAM] unsigned char 
  5884 ;;  arg             4   10[COMRAM] unsigned long 
  5885 ;;  exp             1    9[COMRAM] unsigned char 
  5886 ;; Return value:  Size  Location     Type
  5887 ;;                  4    0[COMRAM] unsigned char 
  5888 ;; Registers used:
  5889 ;;		wreg, status,2, status,0
  5890 ;; Tracked objects:
  5891 ;;		On entry : 0/0
  5892 ;;		On exit  : 0/0
  5893 ;;		Unchanged: 0/0
  5894 ;; Data sizes:     COMRAM   BANK0   BANK1   BANK2   BANK3   BANK4   BANK5   BANK6   BANK7
  5895 ;;      Params:         4       0       0       0       0       0       0       0       0
  5896 ;;      Locals:         6       0       0       0       0       0       0       0       0
  5897 ;;      Temps:          4       0       0       0       0       0       0       0       0
  5898 ;;      Totals:        14       0       0       0       0       0       0       0       0
  5899 ;;Total ram usage:       14 bytes
  5900 ;; Hardware stack levels used:    1
  5901 ;; This function calls:
  5902 ;;		Nothing
  5903 ;; This function is called by:
  5904 ;;		i2_Temp
  5905 ;; This function uses a non-reentrant model
  5906 ;;
  5907                           
  5908                           	psect	text15
  5909  001EB4                     __ptext15:
  5910                           	callstack 0
  5911  001EB4                     i2___xxtofl:
  5912                           	callstack 25
  5913                           
  5914                           ;incstack = 0
  5915                           ;i2___xxtofl@sign stored from wreg
  5916  001EB4  6E09               	movwf	i2___xxtofl@sign^0,c
  5917  001EB6  5009               	movf	i2___xxtofl@sign^0,w,c
  5918  001EB8  B4D8               	btfsc	status,2,c
  5919  001EBA  EF61  F00F         	goto	i2u454_41
  5920  001EBE  EF63  F00F         	goto	i2u454_40
  5921  001EC2                     i2u454_41:
  5922  001EC2  EF85  F00F         	goto	i2l857
  5923  001EC6                     i2u454_40:
  5924  001EC6  BE04               	btfsc	(i2___xxtofl@val+3)^0,7,c
  5925  001EC8  EF6A  F00F         	goto	i2u455_40
  5926  001ECC  EF68  F00F         	goto	i2u455_41
  5927  001ED0                     i2u455_41:
  5928  001ED0  EF85  F00F         	goto	i2l857
  5929  001ED4                     i2u455_40:
  5930  001ED4  C001  F005         	movff	i2___xxtofl@val,??i2___xxtofl
  5931  001ED8  C002  F006         	movff	i2___xxtofl@val+1,??i2___xxtofl+1
  5932  001EDC  C003  F007         	movff	i2___xxtofl@val+2,??i2___xxtofl+2
  5933  001EE0  C004  F008         	movff	i2___xxtofl@val+3,??i2___xxtofl+3
  5934  001EE4  1E05               	comf	??i2___xxtofl^0,f,c
  5935  001EE6  1E06               	comf	(??i2___xxtofl+1)^0,f,c
  5936  001EE8  1E07               	comf	(??i2___xxtofl+2)^0,f,c
  5937  001EEA  1E08               	comf	(??i2___xxtofl+3)^0,f,c
  5938  001EEC  2A05               	incf	??i2___xxtofl^0,f,c
  5939  001EEE  0E00               	movlw	0
  5940  001EF0  2206               	addwfc	(??i2___xxtofl+1)^0,f,c
  5941  001EF2  2207               	addwfc	(??i2___xxtofl+2)^0,f,c
  5942  001EF4  2208               	addwfc	(??i2___xxtofl+3)^0,f,c
  5943  001EF6  C005  F00B         	movff	??i2___xxtofl,i2___xxtofl@arg
  5944  001EFA  C006  F00C         	movff	??i2___xxtofl+1,i2___xxtofl@arg+1
  5945  001EFE  C007  F00D         	movff	??i2___xxtofl+2,i2___xxtofl@arg+2
  5946  001F02  C008  F00E         	movff	??i2___xxtofl+3,i2___xxtofl@arg+3
  5947  001F06  EF8D  F00F         	goto	i2l3451
  5948  001F0A                     i2l857:
  5949  001F0A  C001  F00B         	movff	i2___xxtofl@val,i2___xxtofl@arg
  5950  001F0E  C002  F00C         	movff	i2___xxtofl@val+1,i2___xxtofl@arg+1
  5951  001F12  C003  F00D         	movff	i2___xxtofl@val+2,i2___xxtofl@arg+2
  5952  001F16  C004  F00E         	movff	i2___xxtofl@val+3,i2___xxtofl@arg+3
  5953  001F1A                     i2l3451:
  5954  001F1A  5001               	movf	i2___xxtofl@val^0,w,c
  5955  001F1C  1002               	iorwf	(i2___xxtofl@val+1)^0,w,c
  5956  001F1E  1003               	iorwf	(i2___xxtofl@val+2)^0,w,c
  5957  001F20  1004               	iorwf	(i2___xxtofl@val+3)^0,w,c
  5958  001F22  A4D8               	btfss	status,2,c
  5959  001F24  EF96  F00F         	goto	i2u456_41
  5960  001F28  EF98  F00F         	goto	i2u456_40
  5961  001F2C                     i2u456_41:
  5962  001F2C  EFA2  F00F         	goto	i2l3457
  5963  001F30                     i2u456_40:
  5964  001F30  0E00               	movlw	0
  5965  001F32  6E01               	movwf	?i2___xxtofl^0,c
  5966  001F34  0E00               	movlw	0
  5967  001F36  6E02               	movwf	(?i2___xxtofl+1)^0,c
  5968  001F38  0E00               	movlw	0
  5969  001F3A  6E03               	movwf	(?i2___xxtofl+2)^0,c
  5970  001F3C  0E00               	movlw	0
  5971  001F3E  6E04               	movwf	(?i2___xxtofl+3)^0,c
  5972  001F40  EF33  F010         	goto	i2l860
  5973  001F44                     i2l3457:
  5974  001F44  0E96               	movlw	150
  5975  001F46  6E0A               	movwf	i2___xxtofl@exp^0,c
  5976  001F48  EFAC  F00F         	goto	i2l3461
  5977  001F4C                     i2l3459:
  5978  001F4C  2A0A               	incf	i2___xxtofl@exp^0,f,c
  5979  001F4E  90D8               	bcf	status,0,c
  5980  001F50  320E               	rrcf	(i2___xxtofl@arg+3)^0,f,c
  5981  001F52  320D               	rrcf	(i2___xxtofl@arg+2)^0,f,c
  5982  001F54  320C               	rrcf	(i2___xxtofl@arg+1)^0,f,c
  5983  001F56  320B               	rrcf	i2___xxtofl@arg^0,f,c
  5984  001F58                     i2l3461:
  5985  001F58  0E00               	movlw	0
  5986  001F5A  140B               	andwf	i2___xxtofl@arg^0,w,c
  5987  001F5C  6E05               	movwf	??i2___xxtofl^0,c
  5988  001F5E  0E00               	movlw	0
  5989  001F60  140C               	andwf	(i2___xxtofl@arg+1)^0,w,c
  5990  001F62  6E06               	movwf	(??i2___xxtofl+1)^0,c
  5991  001F64  0E00               	movlw	0
  5992  001F66  140D               	andwf	(i2___xxtofl@arg+2)^0,w,c
  5993  001F68  6E07               	movwf	(??i2___xxtofl+2)^0,c
  5994  001F6A  0EFE               	movlw	254
  5995  001F6C  140E               	andwf	(i2___xxtofl@arg+3)^0,w,c
  5996  001F6E  6E08               	movwf	(??i2___xxtofl+3)^0,c
  5997  001F70  5005               	movf	??i2___xxtofl^0,w,c
  5998  001F72  1006               	iorwf	(??i2___xxtofl+1)^0,w,c
  5999  001F74  1007               	iorwf	(??i2___xxtofl+2)^0,w,c
  6000  001F76  1008               	iorwf	(??i2___xxtofl+3)^0,w,c
  6001  001F78  A4D8               	btfss	status,2,c
  6002  001F7A  EFC1  F00F         	goto	i2u457_41
  6003  001F7E  EFC3  F00F         	goto	i2u457_40
  6004  001F82                     i2u457_41:
  6005  001F82  EFA6  F00F         	goto	i2l3459
  6006  001F86                     i2u457_40:
  6007  001F86  EFD1  F00F         	goto	i2l864
  6008  001F8A                     i2l3463:
  6009  001F8A  2A0A               	incf	i2___xxtofl@exp^0,f,c
  6010  001F8C  0E01               	movlw	1
  6011  001F8E  260B               	addwf	i2___xxtofl@arg^0,f,c
  6012  001F90  0E00               	movlw	0
  6013  001F92  220C               	addwfc	(i2___xxtofl@arg+1)^0,f,c
  6014  001F94  220D               	addwfc	(i2___xxtofl@arg+2)^0,f,c
  6015  001F96  220E               	addwfc	(i2___xxtofl@arg+3)^0,f,c
  6016  001F98  90D8               	bcf	status,0,c
  6017  001F9A  320E               	rrcf	(i2___xxtofl@arg+3)^0,f,c
  6018  001F9C  320D               	rrcf	(i2___xxtofl@arg+2)^0,f,c
  6019  001F9E  320C               	rrcf	(i2___xxtofl@arg+1)^0,f,c
  6020  001FA0  320B               	rrcf	i2___xxtofl@arg^0,f,c
  6021  001FA2                     i2l864:
  6022  001FA2  0E00               	movlw	0
  6023  001FA4  140B               	andwf	i2___xxtofl@arg^0,w,c
  6024  001FA6  6E05               	movwf	??i2___xxtofl^0,c
  6025  001FA8  0E00               	movlw	0
  6026  001FAA  140C               	andwf	(i2___xxtofl@arg+1)^0,w,c
  6027  001FAC  6E06               	movwf	(??i2___xxtofl+1)^0,c
  6028  001FAE  0E00               	movlw	0
  6029  001FB0  140D               	andwf	(i2___xxtofl@arg+2)^0,w,c
  6030  001FB2  6E07               	movwf	(??i2___xxtofl+2)^0,c
  6031  001FB4  0EFF               	movlw	255
  6032  001FB6  140E               	andwf	(i2___xxtofl@arg+3)^0,w,c
  6033  001FB8  6E08               	movwf	(??i2___xxtofl+3)^0,c
  6034  001FBA  5005               	movf	??i2___xxtofl^0,w,c
  6035  001FBC  1006               	iorwf	(??i2___xxtofl+1)^0,w,c
  6036  001FBE  1007               	iorwf	(??i2___xxtofl+2)^0,w,c
  6037  001FC0  1008               	iorwf	(??i2___xxtofl+3)^0,w,c
  6038  001FC2  A4D8               	btfss	status,2,c
  6039  001FC4  EFE6  F00F         	goto	i2u458_41
  6040  001FC8  EFE8  F00F         	goto	i2u458_40
  6041  001FCC                     i2u458_41:
  6042  001FCC  EFC5  F00F         	goto	i2l3463
  6043  001FD0                     i2u458_40:
  6044  001FD0  EFF0  F00F         	goto	i2l3471
  6045  001FD4                     i2l3469:
  6046  001FD4  060A               	decf	i2___xxtofl@exp^0,f,c
  6047  001FD6  90D8               	bcf	status,0,c
  6048  001FD8  360B               	rlcf	i2___xxtofl@arg^0,f,c
  6049  001FDA  360C               	rlcf	(i2___xxtofl@arg+1)^0,f,c
  6050  001FDC  360D               	rlcf	(i2___xxtofl@arg+2)^0,f,c
  6051  001FDE  360E               	rlcf	(i2___xxtofl@arg+3)^0,f,c
  6052  001FE0                     i2l3471:
  6053  001FE0  BE0D               	btfsc	(i2___xxtofl@arg+2)^0,7,c
  6054  001FE2  EFF5  F00F         	goto	i2u459_41
  6055  001FE6  EFF7  F00F         	goto	i2u459_40
  6056  001FEA                     i2u459_41:
  6057  001FEA  EFFF  F00F         	goto	i2l871
  6058  001FEE                     i2u459_40:
  6059  001FEE  0E02               	movlw	2
  6060  001FF0  600A               	cpfslt	i2___xxtofl@exp^0,c
  6061  001FF2  EFFD  F00F         	goto	i2u460_41
  6062  001FF6  EFFF  F00F         	goto	i2u460_40
  6063  001FFA                     i2u460_41:
  6064  001FFA  EFEA  F00F         	goto	i2l3469
  6065  001FFE                     i2u460_40:
  6066  001FFE                     i2l871:
  6067  001FFE  B00A               	btfsc	i2___xxtofl@exp^0,0,c
  6068  002000  EF04  F010         	goto	i2u461_41
  6069  002004  EF06  F010         	goto	i2u461_40
  6070  002008                     i2u461_41:
  6071  002008  EF07  F010         	goto	i2l3477
  6072  00200C                     i2u461_40:
  6073  00200C  9E0D               	bcf	(i2___xxtofl@arg+2)^0,7,c
  6074  00200E                     i2l3477:
  6075  00200E  90D8               	bcf	status,0,c
  6076  002010  320A               	rrcf	i2___xxtofl@exp^0,f,c
  6077  002012  C00A  F005         	movff	i2___xxtofl@exp,??i2___xxtofl
  6078  002016  6A06               	clrf	(??i2___xxtofl+1)^0,c
  6079  002018  6A07               	clrf	(??i2___xxtofl+2)^0,c
  6080  00201A  6A08               	clrf	(??i2___xxtofl+3)^0,c
  6081  00201C  C005  F008         	movff	??i2___xxtofl,??i2___xxtofl+3
  6082  002020  6A07               	clrf	(??i2___xxtofl+2)^0,c
  6083  002022  6A06               	clrf	(??i2___xxtofl+1)^0,c
  6084  002024  6A05               	clrf	??i2___xxtofl^0,c
  6085  002026  5005               	movf	??i2___xxtofl^0,w,c
  6086  002028  120B               	iorwf	i2___xxtofl@arg^0,f,c
  6087  00202A  5006               	movf	(??i2___xxtofl+1)^0,w,c
  6088  00202C  120C               	iorwf	(i2___xxtofl@arg+1)^0,f,c
  6089  00202E  5007               	movf	(??i2___xxtofl+2)^0,w,c
  6090  002030  120D               	iorwf	(i2___xxtofl@arg+2)^0,f,c
  6091  002032  5008               	movf	(??i2___xxtofl+3)^0,w,c
  6092  002034  120E               	iorwf	(i2___xxtofl@arg+3)^0,f,c
  6093  002036  5009               	movf	i2___xxtofl@sign^0,w,c
  6094  002038  B4D8               	btfsc	status,2,c
  6095  00203A  EF21  F010         	goto	i2u462_41
  6096  00203E  EF23  F010         	goto	i2u462_40
  6097  002042                     i2u462_41:
  6098  002042  EF2B  F010         	goto	i2l3487
  6099  002046                     i2u462_40:
  6100  002046  BE04               	btfsc	(i2___xxtofl@val+3)^0,7,c
  6101  002048  EF2A  F010         	goto	i2u463_40
  6102  00204C  EF28  F010         	goto	i2u463_41
  6103  002050                     i2u463_41:
  6104  002050  EF2B  F010         	goto	i2l3487
  6105  002054                     i2u463_40:
  6106  002054  8E0E               	bsf	(i2___xxtofl@arg+3)^0,7,c
  6107  002056                     i2l3487:
  6108  002056  C00B  F001         	movff	i2___xxtofl@arg,?i2___xxtofl
  6109  00205A  C00C  F002         	movff	i2___xxtofl@arg+1,?i2___xxtofl+1
  6110  00205E  C00D  F003         	movff	i2___xxtofl@arg+2,?i2___xxtofl+2
  6111  002062  C00E  F004         	movff	i2___xxtofl@arg+3,?i2___xxtofl+3
  6112  002066                     i2l860:
  6113  002066  0012               	return		;funcret
  6114  002068                     __end_ofi2___xxtofl:
  6115                           	callstack 0
  6116                           
  6117 ;; *************** function i2___flmul *****************
  6118 ;; Defined at:
  6119 ;;		line 8 in file "C:\Program Files\Microchip\xc8\v2.20\pic\sources\c99\common\sprcmul.c"
  6120 ;; Parameters:    Size  Location     Type
  6121 ;;  b               4   16[COMRAM] unsigned char 
  6122 ;;  a               4   20[COMRAM] unsigned char 
  6123 ;; Auto vars:     Size  Location     Type
  6124 ;;  prod            4   35[COMRAM] struct .
  6125 ;;  grs             4   29[COMRAM] unsigned long 
  6126 ;;  temp            2   39[COMRAM] struct .
  6127 ;;  bexp            1   34[COMRAM] unsigned char 
  6128 ;;  aexp            1   33[COMRAM] unsigned char 
  6129 ;;  sign            1   28[COMRAM] unsigned char 
  6130 ;; Return value:  Size  Location     Type
  6131 ;;                  4   16[COMRAM] unsigned char 
  6132 ;; Registers used:
  6133 ;;		wreg, status,2, status,0, prodl, prodh
  6134 ;; Tracked objects:
  6135 ;;		On entry : 0/0
  6136 ;;		On exit  : 0/0
  6137 ;;		Unchanged: 0/0
  6138 ;; Data sizes:     COMRAM   BANK0   BANK1   BANK2   BANK3   BANK4   BANK5   BANK6   BANK7
  6139 ;;      Params:         8       0       0       0       0       0       0       0       0
  6140 ;;      Locals:        13       0       0       0       0       0       0       0       0
  6141 ;;      Temps:          4       0       0       0       0       0       0       0       0
  6142 ;;      Totals:        25       0       0       0       0       0       0       0       0
  6143 ;;Total ram usage:       25 bytes
  6144 ;; Hardware stack levels used:    1
  6145 ;; This function calls:
  6146 ;;		Nothing
  6147 ;; This function is called by:
  6148 ;;		i2_Temp
  6149 ;; This function uses a non-reentrant model
  6150 ;;
  6151                           
  6152                           	psect	text16
  6153  000F92                     __ptext16:
  6154                           	callstack 0
  6155  000F92                     i2___flmul:
  6156                           	callstack 25
  6157  000F92  5014               	movf	(i2___flmul@b+3)^0,w,c
  6158  000F94  0B80               	andlw	128
  6159  000F96  6E1D               	movwf	i2___flmul@sign^0,c
  6160  000F98  5014               	movf	(i2___flmul@b+3)^0,w,c
  6161  000F9A  2414               	addwf	(i2___flmul@b+3)^0,w,c
  6162  000F9C  6E23               	movwf	i2___flmul@bexp^0,c
  6163  000F9E  AE13               	btfss	(i2___flmul@b+2)^0,7,c
  6164  000FA0  EFD4  F007         	goto	i2u435_41
  6165  000FA4  EFD6  F007         	goto	i2u435_40
  6166  000FA8                     i2u435_41:
  6167  000FA8  EFD7  F007         	goto	i2l3321
  6168  000FAC                     i2u435_40:
  6169  000FAC  8023               	bsf	i2___flmul@bexp^0,0,c
  6170  000FAE                     i2l3321:
  6171  000FAE  5023               	movf	i2___flmul@bexp^0,w,c
  6172  000FB0  B4D8               	btfsc	status,2,c
  6173  000FB2  EFDD  F007         	goto	i2u436_41
  6174  000FB6  EFDF  F007         	goto	i2u436_40
  6175  000FBA                     i2u436_41:
  6176  000FBA  EFF2  F007         	goto	i2l3329
  6177  000FBE                     i2u436_40:
  6178  000FBE  2823               	incf	i2___flmul@bexp^0,w,c
  6179  000FC0  A4D8               	btfss	status,2,c
  6180  000FC2  EFE5  F007         	goto	i2u437_41
  6181  000FC6  EFE7  F007         	goto	i2u437_40
  6182  000FCA                     i2u437_41:
  6183  000FCA  EFEF  F007         	goto	i2l3327
  6184  000FCE                     i2u437_40:
  6185  000FCE  0E00               	movlw	0
  6186  000FD0  6E11               	movwf	i2___flmul@b^0,c
  6187  000FD2  0E00               	movlw	0
  6188  000FD4  6E12               	movwf	(i2___flmul@b+1)^0,c
  6189  000FD6  0E00               	movlw	0
  6190  000FD8  6E13               	movwf	(i2___flmul@b+2)^0,c
  6191  000FDA  0E00               	movlw	0
  6192  000FDC  6E14               	movwf	(i2___flmul@b+3)^0,c
  6193  000FDE                     i2l3327:
  6194  000FDE  8E13               	bsf	(i2___flmul@b+2)^0,7,c
  6195  000FE0  EFFA  F007         	goto	i2l3331
  6196  000FE4                     i2l3329:
  6197  000FE4  0E00               	movlw	0
  6198  000FE6  6E11               	movwf	i2___flmul@b^0,c
  6199  000FE8  0E00               	movlw	0
  6200  000FEA  6E12               	movwf	(i2___flmul@b+1)^0,c
  6201  000FEC  0E00               	movlw	0
  6202  000FEE  6E13               	movwf	(i2___flmul@b+2)^0,c
  6203  000FF0  0E00               	movlw	0
  6204  000FF2  6E14               	movwf	(i2___flmul@b+3)^0,c
  6205  000FF4                     i2l3331:
  6206  000FF4  5018               	movf	(i2___flmul@a+3)^0,w,c
  6207  000FF6  0B80               	andlw	128
  6208  000FF8  1A1D               	xorwf	i2___flmul@sign^0,f,c
  6209  000FFA  5018               	movf	(i2___flmul@a+3)^0,w,c
  6210  000FFC  2418               	addwf	(i2___flmul@a+3)^0,w,c
  6211  000FFE  6E22               	movwf	i2___flmul@aexp^0,c
  6212  001000  AE17               	btfss	(i2___flmul@a+2)^0,7,c
  6213  001002  EF05  F008         	goto	i2u438_41
  6214  001006  EF07  F008         	goto	i2u438_40
  6215  00100A                     i2u438_41:
  6216  00100A  EF08  F008         	goto	i2l3339
  6217  00100E                     i2u438_40:
  6218  00100E  8022               	bsf	i2___flmul@aexp^0,0,c
  6219  001010                     i2l3339:
  6220  001010  5022               	movf	i2___flmul@aexp^0,w,c
  6221  001012  B4D8               	btfsc	status,2,c
  6222  001014  EF0E  F008         	goto	i2u439_41
  6223  001018  EF10  F008         	goto	i2u439_40
  6224  00101C                     i2u439_41:
  6225  00101C  EF23  F008         	goto	i2l3347
  6226  001020                     i2u439_40:
  6227  001020  2822               	incf	i2___flmul@aexp^0,w,c
  6228  001022  A4D8               	btfss	status,2,c
  6229  001024  EF16  F008         	goto	i2u440_41
  6230  001028  EF18  F008         	goto	i2u440_40
  6231  00102C                     i2u440_41:
  6232  00102C  EF20  F008         	goto	i2l3345
  6233  001030                     i2u440_40:
  6234  001030  0E00               	movlw	0
  6235  001032  6E15               	movwf	i2___flmul@a^0,c
  6236  001034  0E00               	movlw	0
  6237  001036  6E16               	movwf	(i2___flmul@a+1)^0,c
  6238  001038  0E00               	movlw	0
  6239  00103A  6E17               	movwf	(i2___flmul@a+2)^0,c
  6240  00103C  0E00               	movlw	0
  6241  00103E  6E18               	movwf	(i2___flmul@a+3)^0,c
  6242  001040                     i2l3345:
  6243  001040  8E17               	bsf	(i2___flmul@a+2)^0,7,c
  6244  001042  EF2B  F008         	goto	i2l816
  6245  001046                     i2l3347:
  6246  001046  0E00               	movlw	0
  6247  001048  6E15               	movwf	i2___flmul@a^0,c
  6248  00104A  0E00               	movlw	0
  6249  00104C  6E16               	movwf	(i2___flmul@a+1)^0,c
  6250  00104E  0E00               	movlw	0
  6251  001050  6E17               	movwf	(i2___flmul@a+2)^0,c
  6252  001052  0E00               	movlw	0
  6253  001054  6E18               	movwf	(i2___flmul@a+3)^0,c
  6254  001056                     i2l816:
  6255  001056  5022               	movf	i2___flmul@aexp^0,w,c
  6256  001058  B4D8               	btfsc	status,2,c
  6257  00105A  EF31  F008         	goto	i2u441_41
  6258  00105E  EF33  F008         	goto	i2u441_40
  6259  001062                     i2u441_41:
  6260  001062  EF3B  F008         	goto	i2l3351
  6261  001066                     i2u441_40:
  6262  001066  5023               	movf	i2___flmul@bexp^0,w,c
  6263  001068  A4D8               	btfss	status,2,c
  6264  00106A  EF39  F008         	goto	i2u442_41
  6265  00106E  EF3B  F008         	goto	i2u442_40
  6266  001072                     i2u442_41:
  6267  001072  EF45  F008         	goto	i2l3355
  6268  001076                     i2u442_40:
  6269  001076                     i2l3351:
  6270  001076  0E00               	movlw	0
  6271  001078  6E11               	movwf	?i2___flmul^0,c
  6272  00107A  0E00               	movlw	0
  6273  00107C  6E12               	movwf	(?i2___flmul+1)^0,c
  6274  00107E  0E00               	movlw	0
  6275  001080  6E13               	movwf	(?i2___flmul+2)^0,c
  6276  001082  0E00               	movlw	0
  6277  001084  6E14               	movwf	(?i2___flmul+3)^0,c
  6278  001086  EFDD  F009         	goto	i2l820
  6279  00108A                     i2l3355:
  6280  00108A  5017               	movf	(i2___flmul@a+2)^0,w,c
  6281  00108C  0211               	mulwf	i2___flmul@b^0,c
  6282  00108E  CFF3 F028          	movff	prodl,i2___flmul@temp
  6283  001092  CFF4 F029          	movff	prodh,i2___flmul@temp+1
  6284  001096  5028               	movf	i2___flmul@temp^0,w,c
  6285  001098  6E1E               	movwf	i2___flmul@grs^0,c
  6286  00109A  6A1F               	clrf	(i2___flmul@grs+1)^0,c
  6287  00109C  6A20               	clrf	(i2___flmul@grs+2)^0,c
  6288  00109E  6A21               	clrf	(i2___flmul@grs+3)^0,c
  6289  0010A0  5029               	movf	(i2___flmul@temp+1)^0,w,c
  6290  0010A2  6E24               	movwf	i2___flmul@prod^0,c
  6291  0010A4  6A25               	clrf	(i2___flmul@prod+1)^0,c
  6292  0010A6  6A26               	clrf	(i2___flmul@prod+2)^0,c
  6293  0010A8  6A27               	clrf	(i2___flmul@prod+3)^0,c
  6294  0010AA  5016               	movf	(i2___flmul@a+1)^0,w,c
  6295  0010AC  0212               	mulwf	(i2___flmul@b+1)^0,c
  6296  0010AE  CFF3 F028          	movff	prodl,i2___flmul@temp
  6297  0010B2  CFF4 F029          	movff	prodh,i2___flmul@temp+1
  6298  0010B6  5028               	movf	i2___flmul@temp^0,w,c
  6299  0010B8  261E               	addwf	i2___flmul@grs^0,f,c
  6300  0010BA  0E00               	movlw	0
  6301  0010BC  221F               	addwfc	(i2___flmul@grs+1)^0,f,c
  6302  0010BE  2220               	addwfc	(i2___flmul@grs+2)^0,f,c
  6303  0010C0  2221               	addwfc	(i2___flmul@grs+3)^0,f,c
  6304  0010C2  5029               	movf	(i2___flmul@temp+1)^0,w,c
  6305  0010C4  2624               	addwf	i2___flmul@prod^0,f,c
  6306  0010C6  0E00               	movlw	0
  6307  0010C8  2225               	addwfc	(i2___flmul@prod+1)^0,f,c
  6308  0010CA  2226               	addwfc	(i2___flmul@prod+2)^0,f,c
  6309  0010CC  2227               	addwfc	(i2___flmul@prod+3)^0,f,c
  6310  0010CE  5015               	movf	i2___flmul@a^0,w,c
  6311  0010D0  0213               	mulwf	(i2___flmul@b+2)^0,c
  6312  0010D2  CFF3 F028          	movff	prodl,i2___flmul@temp
  6313  0010D6  CFF4 F029          	movff	prodh,i2___flmul@temp+1
  6314  0010DA  5028               	movf	i2___flmul@temp^0,w,c
  6315  0010DC  261E               	addwf	i2___flmul@grs^0,f,c
  6316  0010DE  0E00               	movlw	0
  6317  0010E0  221F               	addwfc	(i2___flmul@grs+1)^0,f,c
  6318  0010E2  2220               	addwfc	(i2___flmul@grs+2)^0,f,c
  6319  0010E4  2221               	addwfc	(i2___flmul@grs+3)^0,f,c
  6320  0010E6  5029               	movf	(i2___flmul@temp+1)^0,w,c
  6321  0010E8  2624               	addwf	i2___flmul@prod^0,f,c
  6322  0010EA  0E00               	movlw	0
  6323  0010EC  2225               	addwfc	(i2___flmul@prod+1)^0,f,c
  6324  0010EE  2226               	addwfc	(i2___flmul@prod+2)^0,f,c
  6325  0010F0  2227               	addwfc	(i2___flmul@prod+3)^0,f,c
  6326  0010F2  C020  F021         	movff	i2___flmul@grs+2,i2___flmul@grs+3
  6327  0010F6  C01F  F020         	movff	i2___flmul@grs+1,i2___flmul@grs+2
  6328  0010FA  C01E  F01F         	movff	i2___flmul@grs,i2___flmul@grs+1
  6329  0010FE  6A1E               	clrf	i2___flmul@grs^0,c
  6330  001100  5015               	movf	i2___flmul@a^0,w,c
  6331  001102  0212               	mulwf	(i2___flmul@b+1)^0,c
  6332  001104  CFF3 F028          	movff	prodl,i2___flmul@temp
  6333  001108  CFF4 F029          	movff	prodh,i2___flmul@temp+1
  6334  00110C  5028               	movf	i2___flmul@temp^0,w,c
  6335  00110E  261E               	addwf	i2___flmul@grs^0,f,c
  6336  001110  5029               	movf	(i2___flmul@temp+1)^0,w,c
  6337  001112  221F               	addwfc	(i2___flmul@grs+1)^0,f,c
  6338  001114  0E00               	movlw	0
  6339  001116  2220               	addwfc	(i2___flmul@grs+2)^0,f,c
  6340  001118  0E00               	movlw	0
  6341  00111A  2221               	addwfc	(i2___flmul@grs+3)^0,f,c
  6342  00111C  5016               	movf	(i2___flmul@a+1)^0,w,c
  6343  00111E  0211               	mulwf	i2___flmul@b^0,c
  6344  001120  CFF3 F028          	movff	prodl,i2___flmul@temp
  6345  001124  CFF4 F029          	movff	prodh,i2___flmul@temp+1
  6346  001128  5028               	movf	i2___flmul@temp^0,w,c
  6347  00112A  261E               	addwf	i2___flmul@grs^0,f,c
  6348  00112C  5029               	movf	(i2___flmul@temp+1)^0,w,c
  6349  00112E  221F               	addwfc	(i2___flmul@grs+1)^0,f,c
  6350  001130  0E00               	movlw	0
  6351  001132  2220               	addwfc	(i2___flmul@grs+2)^0,f,c
  6352  001134  0E00               	movlw	0
  6353  001136  2221               	addwfc	(i2___flmul@grs+3)^0,f,c
  6354  001138  C020  F021         	movff	i2___flmul@grs+2,i2___flmul@grs+3
  6355  00113C  C01F  F020         	movff	i2___flmul@grs+1,i2___flmul@grs+2
  6356  001140  C01E  F01F         	movff	i2___flmul@grs,i2___flmul@grs+1
  6357  001144  6A1E               	clrf	i2___flmul@grs^0,c
  6358  001146  5015               	movf	i2___flmul@a^0,w,c
  6359  001148  0211               	mulwf	i2___flmul@b^0,c
  6360  00114A  CFF3 F028          	movff	prodl,i2___flmul@temp
  6361  00114E  CFF4 F029          	movff	prodh,i2___flmul@temp+1
  6362  001152  5028               	movf	i2___flmul@temp^0,w,c
  6363  001154  261E               	addwf	i2___flmul@grs^0,f,c
  6364  001156  5029               	movf	(i2___flmul@temp+1)^0,w,c
  6365  001158  221F               	addwfc	(i2___flmul@grs+1)^0,f,c
  6366  00115A  0E00               	movlw	0
  6367  00115C  2220               	addwfc	(i2___flmul@grs+2)^0,f,c
  6368  00115E  0E00               	movlw	0
  6369  001160  2221               	addwfc	(i2___flmul@grs+3)^0,f,c
  6370  001162  5017               	movf	(i2___flmul@a+2)^0,w,c
  6371  001164  0212               	mulwf	(i2___flmul@b+1)^0,c
  6372  001166  CFF3 F028          	movff	prodl,i2___flmul@temp
  6373  00116A  CFF4 F029          	movff	prodh,i2___flmul@temp+1
  6374  00116E  5028               	movf	i2___flmul@temp^0,w,c
  6375  001170  2624               	addwf	i2___flmul@prod^0,f,c
  6376  001172  5029               	movf	(i2___flmul@temp+1)^0,w,c
  6377  001174  2225               	addwfc	(i2___flmul@prod+1)^0,f,c
  6378  001176  0E00               	movlw	0
  6379  001178  2226               	addwfc	(i2___flmul@prod+2)^0,f,c
  6380  00117A  0E00               	movlw	0
  6381  00117C  2227               	addwfc	(i2___flmul@prod+3)^0,f,c
  6382  00117E  5016               	movf	(i2___flmul@a+1)^0,w,c
  6383  001180  0213               	mulwf	(i2___flmul@b+2)^0,c
  6384  001182  CFF3 F028          	movff	prodl,i2___flmul@temp
  6385  001186  CFF4 F029          	movff	prodh,i2___flmul@temp+1
  6386  00118A  5028               	movf	i2___flmul@temp^0,w,c
  6387  00118C  2624               	addwf	i2___flmul@prod^0,f,c
  6388  00118E  5029               	movf	(i2___flmul@temp+1)^0,w,c
  6389  001190  2225               	addwfc	(i2___flmul@prod+1)^0,f,c
  6390  001192  0E00               	movlw	0
  6391  001194  2226               	addwfc	(i2___flmul@prod+2)^0,f,c
  6392  001196  0E00               	movlw	0
  6393  001198  2227               	addwfc	(i2___flmul@prod+3)^0,f,c
  6394  00119A  5017               	movf	(i2___flmul@a+2)^0,w,c
  6395  00119C  0213               	mulwf	(i2___flmul@b+2)^0,c
  6396  00119E  CFF3 F028          	movff	prodl,i2___flmul@temp
  6397  0011A2  CFF4 F029          	movff	prodh,i2___flmul@temp+1
  6398  0011A6  5028               	movf	i2___flmul@temp^0,w,c
  6399  0011A8  6E19               	movwf	??i2___flmul^0,c
  6400  0011AA  5029               	movf	(i2___flmul@temp+1)^0,w,c
  6401  0011AC  6E1A               	movwf	(??i2___flmul+1)^0,c
  6402  0011AE  6A1B               	clrf	(??i2___flmul+2)^0,c
  6403  0011B0  6A1C               	clrf	(??i2___flmul+3)^0,c
  6404  0011B2  C01B  F01C         	movff	??i2___flmul+2,??i2___flmul+3
  6405  0011B6  C01A  F01B         	movff	??i2___flmul+1,??i2___flmul+2
  6406  0011BA  C019  F01A         	movff	??i2___flmul,??i2___flmul+1
  6407  0011BE  6A19               	clrf	??i2___flmul^0,c
  6408  0011C0  5019               	movf	??i2___flmul^0,w,c
  6409  0011C2  2624               	addwf	i2___flmul@prod^0,f,c
  6410  0011C4  501A               	movf	(??i2___flmul+1)^0,w,c
  6411  0011C6  2225               	addwfc	(i2___flmul@prod+1)^0,f,c
  6412  0011C8  501B               	movf	(??i2___flmul+2)^0,w,c
  6413  0011CA  2226               	addwfc	(i2___flmul@prod+2)^0,f,c
  6414  0011CC  501C               	movf	(??i2___flmul+3)^0,w,c
  6415  0011CE  2227               	addwfc	(i2___flmul@prod+3)^0,f,c
  6416  0011D0  C01E  F019         	movff	i2___flmul@grs,??i2___flmul
  6417  0011D4  C01F  F01A         	movff	i2___flmul@grs+1,??i2___flmul+1
  6418  0011D8  C020  F01B         	movff	i2___flmul@grs+2,??i2___flmul+2
  6419  0011DC  C021  F01C         	movff	i2___flmul@grs+3,??i2___flmul+3
  6420  0011E0  0E19               	movlw	25
  6421  0011E2  EFF8  F008         	goto	i2u443_40
  6422  0011E6                     i2u443_45:
  6423  0011E6  90D8               	bcf	status,0,c
  6424  0011E8  321C               	rrcf	(??i2___flmul+3)^0,f,c
  6425  0011EA  321B               	rrcf	(??i2___flmul+2)^0,f,c
  6426  0011EC  321A               	rrcf	(??i2___flmul+1)^0,f,c
  6427  0011EE  3219               	rrcf	??i2___flmul^0,f,c
  6428  0011F0                     i2u443_40:
  6429  0011F0  2EE8               	decfsz	wreg,f,c
  6430  0011F2  EFF3  F008         	goto	i2u443_45
  6431  0011F6  5019               	movf	??i2___flmul^0,w,c
  6432  0011F8  2624               	addwf	i2___flmul@prod^0,f,c
  6433  0011FA  501A               	movf	(??i2___flmul+1)^0,w,c
  6434  0011FC  2225               	addwfc	(i2___flmul@prod+1)^0,f,c
  6435  0011FE  501B               	movf	(??i2___flmul+2)^0,w,c
  6436  001200  2226               	addwfc	(i2___flmul@prod+2)^0,f,c
  6437  001202  501C               	movf	(??i2___flmul+3)^0,w,c
  6438  001204  2227               	addwfc	(i2___flmul@prod+3)^0,f,c
  6439  001206  C020  F021         	movff	i2___flmul@grs+2,i2___flmul@grs+3
  6440  00120A  C01F  F020         	movff	i2___flmul@grs+1,i2___flmul@grs+2
  6441  00120E  C01E  F01F         	movff	i2___flmul@grs,i2___flmul@grs+1
  6442  001212  6A1E               	clrf	i2___flmul@grs^0,c
  6443  001214  5022               	movf	i2___flmul@aexp^0,w,c
  6444  001216  C023  F019         	movff	i2___flmul@bexp,??i2___flmul
  6445  00121A  6A1A               	clrf	(??i2___flmul+1)^0,c
  6446  00121C  2619               	addwf	??i2___flmul^0,f,c
  6447  00121E  0E00               	movlw	0
  6448  001220  221A               	addwfc	(??i2___flmul+1)^0,f,c
  6449  001222  0E82               	movlw	130
  6450  001224  2419               	addwf	??i2___flmul^0,w,c
  6451  001226  6E28               	movwf	i2___flmul@temp^0,c
  6452  001228  0EFF               	movlw	255
  6453  00122A  201A               	addwfc	(??i2___flmul+1)^0,w,c
  6454  00122C  6E29               	movwf	(i2___flmul@temp+1)^0,c
  6455  00122E  EF2E  F009         	goto	i2l3403
  6456  001232                     i2l3397:
  6457  001232  90D8               	bcf	status,0,c
  6458  001234  3624               	rlcf	i2___flmul@prod^0,f,c
  6459  001236  3625               	rlcf	(i2___flmul@prod+1)^0,f,c
  6460  001238  3626               	rlcf	(i2___flmul@prod+2)^0,f,c
  6461  00123A  3627               	rlcf	(i2___flmul@prod+3)^0,f,c
  6462  00123C  AE21               	btfss	(i2___flmul@grs+3)^0,7,c
  6463  00123E  EF23  F009         	goto	i2u444_41
  6464  001242  EF25  F009         	goto	i2u444_40
  6465  001246                     i2u444_41:
  6466  001246  EF26  F009         	goto	i2l823
  6467  00124A                     i2u444_40:
  6468  00124A  8024               	bsf	i2___flmul@prod^0,0,c
  6469  00124C                     i2l823:
  6470  00124C  90D8               	bcf	status,0,c
  6471  00124E  361E               	rlcf	i2___flmul@grs^0,f,c
  6472  001250  361F               	rlcf	(i2___flmul@grs+1)^0,f,c
  6473  001252  3620               	rlcf	(i2___flmul@grs+2)^0,f,c
  6474  001254  3621               	rlcf	(i2___flmul@grs+3)^0,f,c
  6475  001256  0628               	decf	i2___flmul@temp^0,f,c
  6476  001258  A0D8               	btfss	status,0,c
  6477  00125A  0629               	decf	(i2___flmul@temp+1)^0,f,c
  6478  00125C                     i2l3403:
  6479  00125C  AE26               	btfss	(i2___flmul@prod+2)^0,7,c
  6480  00125E  EF33  F009         	goto	i2u445_41
  6481  001262  EF35  F009         	goto	i2u445_40
  6482  001266                     i2u445_41:
  6483  001266  EF19  F009         	goto	i2l3397
  6484  00126A                     i2u445_40:
  6485  00126A  0E00               	movlw	0
  6486  00126C  6E22               	movwf	i2___flmul@aexp^0,c
  6487  00126E  AE21               	btfss	(i2___flmul@grs+3)^0,7,c
  6488  001270  EF3C  F009         	goto	i2u446_41
  6489  001274  EF3E  F009         	goto	i2u446_40
  6490  001278                     i2u446_41:
  6491  001278  EF62  F009         	goto	i2l825
  6492  00127C                     i2u446_40:
  6493  00127C  0EFF               	movlw	255
  6494  00127E  141E               	andwf	i2___flmul@grs^0,w,c
  6495  001280  6E19               	movwf	??i2___flmul^0,c
  6496  001282  0EFF               	movlw	255
  6497  001284  141F               	andwf	(i2___flmul@grs+1)^0,w,c
  6498  001286  6E1A               	movwf	(??i2___flmul+1)^0,c
  6499  001288  0EFF               	movlw	255
  6500  00128A  1420               	andwf	(i2___flmul@grs+2)^0,w,c
  6501  00128C  6E1B               	movwf	(??i2___flmul+2)^0,c
  6502  00128E  0E7F               	movlw	127
  6503  001290  1421               	andwf	(i2___flmul@grs+3)^0,w,c
  6504  001292  6E1C               	movwf	(??i2___flmul+3)^0,c
  6505  001294  5019               	movf	??i2___flmul^0,w,c
  6506  001296  101A               	iorwf	(??i2___flmul+1)^0,w,c
  6507  001298  101B               	iorwf	(??i2___flmul+2)^0,w,c
  6508  00129A  101C               	iorwf	(??i2___flmul+3)^0,w,c
  6509  00129C  B4D8               	btfsc	status,2,c
  6510  00129E  EF53  F009         	goto	i2u447_41
  6511  0012A2  EF55  F009         	goto	i2u447_40
  6512  0012A6                     i2u447_41:
  6513  0012A6  EF59  F009         	goto	i2l826
  6514  0012AA                     i2u447_40:
  6515  0012AA                     i2l3411:
  6516  0012AA  0E01               	movlw	1
  6517  0012AC  6E22               	movwf	i2___flmul@aexp^0,c
  6518  0012AE  EF62  F009         	goto	i2l825
  6519  0012B2                     i2l826:
  6520  0012B2  A024               	btfss	i2___flmul@prod^0,0,c
  6521  0012B4  EF5E  F009         	goto	i2u448_41
  6522  0012B8  EF60  F009         	goto	i2u448_40
  6523  0012BC                     i2u448_41:
  6524  0012BC  EF62  F009         	goto	i2l825
  6525  0012C0                     i2u448_40:
  6526  0012C0  EF55  F009         	goto	i2l3411
  6527  0012C4                     i2l825:
  6528  0012C4  5022               	movf	i2___flmul@aexp^0,w,c
  6529  0012C6  B4D8               	btfsc	status,2,c
  6530  0012C8  EF68  F009         	goto	i2u449_41
  6531  0012CC  EF6A  F009         	goto	i2u449_40
  6532  0012D0                     i2u449_41:
  6533  0012D0  EF8E  F009         	goto	i2l3423
  6534  0012D4                     i2u449_40:
  6535  0012D4  0E01               	movlw	1
  6536  0012D6  2624               	addwf	i2___flmul@prod^0,f,c
  6537  0012D8  0E00               	movlw	0
  6538  0012DA  2225               	addwfc	(i2___flmul@prod+1)^0,f,c
  6539  0012DC  2226               	addwfc	(i2___flmul@prod+2)^0,f,c
  6540  0012DE  2227               	addwfc	(i2___flmul@prod+3)^0,f,c
  6541  0012E0  A027               	btfss	(i2___flmul@prod+3)^0,0,c
  6542  0012E2  EF75  F009         	goto	i2u450_41
  6543  0012E6  EF77  F009         	goto	i2u450_40
  6544  0012EA                     i2u450_41:
  6545  0012EA  EF8E  F009         	goto	i2l3423
  6546  0012EE                     i2u450_40:
  6547  0012EE  C024  F019         	movff	i2___flmul@prod,??i2___flmul
  6548  0012F2  C025  F01A         	movff	i2___flmul@prod+1,??i2___flmul+1
  6549  0012F6  C026  F01B         	movff	i2___flmul@prod+2,??i2___flmul+2
  6550  0012FA  C027  F01C         	movff	i2___flmul@prod+3,??i2___flmul+3
  6551  0012FE  341C               	rlcf	(??i2___flmul+3)^0,w,c
  6552  001300  321C               	rrcf	(??i2___flmul+3)^0,f,c
  6553  001302  321B               	rrcf	(??i2___flmul+2)^0,f,c
  6554  001304  321A               	rrcf	(??i2___flmul+1)^0,f,c
  6555  001306  3219               	rrcf	??i2___flmul^0,f,c
  6556  001308  C019  F024         	movff	??i2___flmul,i2___flmul@prod
  6557  00130C  C01A  F025         	movff	??i2___flmul+1,i2___flmul@prod+1
  6558  001310  C01B  F026         	movff	??i2___flmul+2,i2___flmul@prod+2
  6559  001314  C01C  F027         	movff	??i2___flmul+3,i2___flmul@prod+3
  6560  001318  4A28               	infsnz	i2___flmul@temp^0,f,c
  6561  00131A  2A29               	incf	(i2___flmul@temp+1)^0,f,c
  6562  00131C                     i2l3423:
  6563  00131C  BE29               	btfsc	(i2___flmul@temp+1)^0,7,c
  6564  00131E  EF99  F009         	goto	i2u451_41
  6565  001322  5029               	movf	(i2___flmul@temp+1)^0,w,c
  6566  001324  E108               	bnz	i2u451_40
  6567  001326  2828               	incf	i2___flmul@temp^0,w,c
  6568  001328  A0D8               	btfss	status,0,c
  6569  00132A  EF99  F009         	goto	i2u451_41
  6570  00132E  EF9B  F009         	goto	i2u451_40
  6571  001332                     i2u451_41:
  6572  001332  EFA5  F009         	goto	i2l3427
  6573  001336                     i2u451_40:
  6574  001336  0E00               	movlw	0
  6575  001338  6E24               	movwf	i2___flmul@prod^0,c
  6576  00133A  0E00               	movlw	0
  6577  00133C  6E25               	movwf	(i2___flmul@prod+1)^0,c
  6578  00133E  0E80               	movlw	128
  6579  001340  6E26               	movwf	(i2___flmul@prod+2)^0,c
  6580  001342  0E7F               	movlw	127
  6581  001344  6E27               	movwf	(i2___flmul@prod+3)^0,c
  6582  001346  EFD3  F009         	goto	i2l3439
  6583  00134A                     i2l3427:
  6584  00134A  BE29               	btfsc	(i2___flmul@temp+1)^0,7,c
  6585  00134C  EFB2  F009         	goto	i2u452_40
  6586  001350  5029               	movf	(i2___flmul@temp+1)^0,w,c
  6587  001352  E106               	bnz	i2u452_41
  6588  001354  0428               	decf	i2___flmul@temp^0,w,c
  6589  001356  B0D8               	btfsc	status,0,c
  6590  001358  EFB0  F009         	goto	i2u452_41
  6591  00135C  EFB2  F009         	goto	i2u452_40
  6592  001360                     i2u452_41:
  6593  001360  EFBE  F009         	goto	i2l833
  6594  001364                     i2u452_40:
  6595  001364  0E00               	movlw	0
  6596  001366  6E24               	movwf	i2___flmul@prod^0,c
  6597  001368  0E00               	movlw	0
  6598  00136A  6E25               	movwf	(i2___flmul@prod+1)^0,c
  6599  00136C  0E00               	movlw	0
  6600  00136E  6E26               	movwf	(i2___flmul@prod+2)^0,c
  6601  001370  0E00               	movlw	0
  6602  001372  6E27               	movwf	(i2___flmul@prod+3)^0,c
  6603  001374  0E00               	movlw	0
  6604  001376  6E1D               	movwf	i2___flmul@sign^0,c
  6605  001378  EFD3  F009         	goto	i2l3439
  6606  00137C                     i2l833:
  6607  00137C  C028  F023         	movff	i2___flmul@temp,i2___flmul@bexp
  6608  001380  0EFF               	movlw	255
  6609  001382  1624               	andwf	i2___flmul@prod^0,f,c
  6610  001384  0EFF               	movlw	255
  6611  001386  1625               	andwf	(i2___flmul@prod+1)^0,f,c
  6612  001388  0E7F               	movlw	127
  6613  00138A  1626               	andwf	(i2___flmul@prod+2)^0,f,c
  6614  00138C  0E00               	movlw	0
  6615  00138E  1627               	andwf	(i2___flmul@prod+3)^0,f,c
  6616  001390  A023               	btfss	i2___flmul@bexp^0,0,c
  6617  001392  EFCD  F009         	goto	i2u453_41
  6618  001396  EFCF  F009         	goto	i2u453_40
  6619  00139A                     i2u453_41:
  6620  00139A  EFD0  F009         	goto	i2l3437
  6621  00139E                     i2u453_40:
  6622  00139E  8E26               	bsf	(i2___flmul@prod+2)^0,7,c
  6623  0013A0                     i2l3437:
  6624  0013A0  90D8               	bcf	status,0,c
  6625  0013A2  3023               	rrcf	i2___flmul@bexp^0,w,c
  6626  0013A4  6E27               	movwf	(i2___flmul@prod+3)^0,c
  6627  0013A6                     i2l3439:
  6628  0013A6  501D               	movf	i2___flmul@sign^0,w,c
  6629  0013A8  1227               	iorwf	(i2___flmul@prod+3)^0,f,c
  6630  0013AA  C024  F011         	movff	i2___flmul@prod,?i2___flmul
  6631  0013AE  C025  F012         	movff	i2___flmul@prod+1,?i2___flmul+1
  6632  0013B2  C026  F013         	movff	i2___flmul@prod+2,?i2___flmul+2
  6633  0013B6  C027  F014         	movff	i2___flmul@prod+3,?i2___flmul+3
  6634  0013BA                     i2l820:
  6635  0013BA  0012               	return		;funcret
  6636  0013BC                     __end_ofi2___flmul:
  6637                           	callstack 0
  6638                           
  6639 ;; *************** function i2___flge *****************
  6640 ;; Defined at:
  6641 ;;		line 4 in file "C:\Program Files\Microchip\xc8\v2.20\pic\sources\c99\common\flge.c"
  6642 ;; Parameters:    Size  Location     Type
  6643 ;;  ff1             4    0[COMRAM] unsigned char 
  6644 ;;  ff2             4    4[COMRAM] unsigned char 
  6645 ;; Auto vars:     Size  Location     Type
  6646 ;;		None
  6647 ;; Return value:  Size  Location     Type
  6648 ;;		None               void
  6649 ;; Registers used:
  6650 ;;		wreg, status,2, status,0
  6651 ;; Tracked objects:
  6652 ;;		On entry : 0/0
  6653 ;;		On exit  : 0/0
  6654 ;;		Unchanged: 0/0
  6655 ;; Data sizes:     COMRAM   BANK0   BANK1   BANK2   BANK3   BANK4   BANK5   BANK6   BANK7
  6656 ;;      Params:         8       0       0       0       0       0       0       0       0
  6657 ;;      Locals:         0       0       0       0       0       0       0       0       0
  6658 ;;      Temps:          4       0       0       0       0       0       0       0       0
  6659 ;;      Totals:        12       0       0       0       0       0       0       0       0
  6660 ;;Total ram usage:       12 bytes
  6661 ;; Hardware stack levels used:    1
  6662 ;; This function calls:
  6663 ;;		Nothing
  6664 ;; This function is called by:
  6665 ;;		i2_Temp
  6666 ;; This function uses a non-reentrant model
  6667 ;;
  6668                           
  6669                           	psect	text17
  6670  002A44                     __ptext17:
  6671                           	callstack 0
  6672  002A44                     i2___flge:
  6673                           	callstack 25
  6674  002A44  0E00               	movlw	0
  6675  002A46  1401               	andwf	i2___flge@ff1^0,w,c
  6676  002A48  6E09               	movwf	??i2___flge^0,c
  6677  002A4A  0E00               	movlw	0
  6678  002A4C  1402               	andwf	(i2___flge@ff1+1)^0,w,c
  6679  002A4E  6E0A               	movwf	(??i2___flge+1)^0,c
  6680  002A50  0E80               	movlw	128
  6681  002A52  1403               	andwf	(i2___flge@ff1+2)^0,w,c
  6682  002A54  6E0B               	movwf	(??i2___flge+2)^0,c
  6683  002A56  0E7F               	movlw	127
  6684  002A58  1404               	andwf	(i2___flge@ff1+3)^0,w,c
  6685  002A5A  6E0C               	movwf	(??i2___flge+3)^0,c
  6686  002A5C  5009               	movf	??i2___flge^0,w,c
  6687  002A5E  100A               	iorwf	(??i2___flge+1)^0,w,c
  6688  002A60  100B               	iorwf	(??i2___flge+2)^0,w,c
  6689  002A62  100C               	iorwf	(??i2___flge+3)^0,w,c
  6690  002A64  A4D8               	btfss	status,2,c
  6691  002A66  EF37  F015         	goto	i2u368_41
  6692  002A6A  EF39  F015         	goto	i2u368_40
  6693  002A6E                     i2u368_41:
  6694  002A6E  EF41  F015         	goto	i2l2957
  6695  002A72                     i2u368_40:
  6696  002A72  0E00               	movlw	0
  6697  002A74  6E01               	movwf	i2___flge@ff1^0,c
  6698  002A76  0E00               	movlw	0
  6699  002A78  6E02               	movwf	(i2___flge@ff1+1)^0,c
  6700  002A7A  0E00               	movlw	0
  6701  002A7C  6E03               	movwf	(i2___flge@ff1+2)^0,c
  6702  002A7E  0E00               	movlw	0
  6703  002A80  6E04               	movwf	(i2___flge@ff1+3)^0,c
  6704  002A82                     i2l2957:
  6705  002A82  0E00               	movlw	0
  6706  002A84  1405               	andwf	i2___flge@ff2^0,w,c
  6707  002A86  6E09               	movwf	??i2___flge^0,c
  6708  002A88  0E00               	movlw	0
  6709  002A8A  1406               	andwf	(i2___flge@ff2+1)^0,w,c
  6710  002A8C  6E0A               	movwf	(??i2___flge+1)^0,c
  6711  002A8E  0E80               	movlw	128
  6712  002A90  1407               	andwf	(i2___flge@ff2+2)^0,w,c
  6713  002A92  6E0B               	movwf	(??i2___flge+2)^0,c
  6714  002A94  0E7F               	movlw	127
  6715  002A96  1408               	andwf	(i2___flge@ff2+3)^0,w,c
  6716  002A98  6E0C               	movwf	(??i2___flge+3)^0,c
  6717  002A9A  5009               	movf	??i2___flge^0,w,c
  6718  002A9C  100A               	iorwf	(??i2___flge+1)^0,w,c
  6719  002A9E  100B               	iorwf	(??i2___flge+2)^0,w,c
  6720  002AA0  100C               	iorwf	(??i2___flge+3)^0,w,c
  6721  002AA2  A4D8               	btfss	status,2,c
  6722  002AA4  EF56  F015         	goto	i2u369_41
  6723  002AA8  EF58  F015         	goto	i2u369_40
  6724  002AAC                     i2u369_41:
  6725  002AAC  EF60  F015         	goto	i2l2961
  6726  002AB0                     i2u369_40:
  6727  002AB0  0E00               	movlw	0
  6728  002AB2  6E05               	movwf	i2___flge@ff2^0,c
  6729  002AB4  0E00               	movlw	0
  6730  002AB6  6E06               	movwf	(i2___flge@ff2+1)^0,c
  6731  002AB8  0E00               	movlw	0
  6732  002ABA  6E07               	movwf	(i2___flge@ff2+2)^0,c
  6733  002ABC  0E00               	movlw	0
  6734  002ABE  6E08               	movwf	(i2___flge@ff2+3)^0,c
  6735  002AC0                     i2l2961:
  6736  002AC0  AE04               	btfss	(i2___flge@ff1+3)^0,7,c
  6737  002AC2  EF65  F015         	goto	i2u370_41
  6738  002AC6  EF67  F015         	goto	i2u370_40
  6739  002ACA                     i2u370_41:
  6740  002ACA  EF70  F015         	goto	i2l2965
  6741  002ACE                     i2u370_40:
  6742  002ACE  6C01               	negf	i2___flge@ff1^0,c
  6743  002AD0  1E02               	comf	(i2___flge@ff1+1)^0,f,c
  6744  002AD2  B0D8               	btfsc	status,0,c
  6745  002AD4  2A02               	incf	(i2___flge@ff1+1)^0,f,c
  6746  002AD6  1E03               	comf	(i2___flge@ff1+2)^0,f,c
  6747  002AD8  B0D8               	btfsc	status,0,c
  6748  002ADA  2A03               	incf	(i2___flge@ff1+2)^0,f,c
  6749  002ADC  0E80               	movlw	128
  6750  002ADE  5604               	subfwb	(i2___flge@ff1+3)^0,f,c
  6751  002AE0                     i2l2965:
  6752  002AE0  AE08               	btfss	(i2___flge@ff2+3)^0,7,c
  6753  002AE2  EF75  F015         	goto	i2u371_41
  6754  002AE6  EF77  F015         	goto	i2u371_40
  6755  002AEA                     i2u371_41:
  6756  002AEA  EF80  F015         	goto	i2l467
  6757  002AEE                     i2u371_40:
  6758  002AEE  6C05               	negf	i2___flge@ff2^0,c
  6759  002AF0  1E06               	comf	(i2___flge@ff2+1)^0,f,c
  6760  002AF2  B0D8               	btfsc	status,0,c
  6761  002AF4  2A06               	incf	(i2___flge@ff2+1)^0,f,c
  6762  002AF6  1E07               	comf	(i2___flge@ff2+2)^0,f,c
  6763  002AF8  B0D8               	btfsc	status,0,c
  6764  002AFA  2A07               	incf	(i2___flge@ff2+2)^0,f,c
  6765  002AFC  0E80               	movlw	128
  6766  002AFE  5608               	subfwb	(i2___flge@ff2+3)^0,f,c
  6767  002B00                     i2l467:
  6768  002B00  0E00               	movlw	0
  6769  002B02  1A01               	xorwf	i2___flge@ff1^0,f,c
  6770  002B04  0E00               	movlw	0
  6771  002B06  1A02               	xorwf	(i2___flge@ff1+1)^0,f,c
  6772  002B08  0E00               	movlw	0
  6773  002B0A  1A03               	xorwf	(i2___flge@ff1+2)^0,f,c
  6774  002B0C  0E80               	movlw	128
  6775  002B0E  1A04               	xorwf	(i2___flge@ff1+3)^0,f,c
  6776  002B10  0E00               	movlw	0
  6777  002B12  1A05               	xorwf	i2___flge@ff2^0,f,c
  6778  002B14  0E00               	movlw	0
  6779  002B16  1A06               	xorwf	(i2___flge@ff2+1)^0,f,c
  6780  002B18  0E00               	movlw	0
  6781  002B1A  1A07               	xorwf	(i2___flge@ff2+2)^0,f,c
  6782  002B1C  0E80               	movlw	128
  6783  002B1E  1A08               	xorwf	(i2___flge@ff2+3)^0,f,c
  6784  002B20  5005               	movf	i2___flge@ff2^0,w,c
  6785  002B22  5C01               	subwf	i2___flge@ff1^0,w,c
  6786  002B24  5006               	movf	(i2___flge@ff2+1)^0,w,c
  6787  002B26  5802               	subwfb	(i2___flge@ff1+1)^0,w,c
  6788  002B28  5007               	movf	(i2___flge@ff2+2)^0,w,c
  6789  002B2A  5803               	subwfb	(i2___flge@ff1+2)^0,w,c
  6790  002B2C  5008               	movf	(i2___flge@ff2+3)^0,w,c
  6791  002B2E  5804               	subwfb	(i2___flge@ff1+3)^0,w,c
  6792  002B30  B0D8               	btfsc	status,0,c
  6793  002B32  EF9D  F015         	goto	i2u372_41
  6794  002B36  EF9F  F015         	goto	i2u372_40
  6795  002B3A                     i2u372_41:
  6796  002B3A  EFA2  F015         	goto	i2l2971
  6797  002B3E                     i2u372_40:
  6798  002B3E  90D8               	bcf	status,0,c
  6799  002B40  EFA3  F015         	goto	i2l472
  6800  002B44                     i2l2971:
  6801  002B44  80D8               	bsf	status,0,c
  6802  002B46                     i2l472:
  6803  002B46  0012               	return		;funcret
  6804  002B48                     __end_ofi2___flge:
  6805                           	callstack 0
  6806                           
  6807 ;; *************** function i2___fldiv *****************
  6808 ;; Defined at:
  6809 ;;		line 11 in file "C:\Program Files\Microchip\xc8\v2.20\pic\sources\c99\common\sprcdiv.c"
  6810 ;; Parameters:    Size  Location     Type
  6811 ;;  b               4   41[COMRAM] unsigned char 
  6812 ;;  a               4   45[COMRAM] unsigned char 
  6813 ;; Auto vars:     Size  Location     Type
  6814 ;;  grs             4   60[COMRAM] unsigned long 
  6815 ;;  rem             4   53[COMRAM] unsigned long 
  6816 ;;  new_exp         2   58[COMRAM] short 
  6817 ;;  aexp            1   65[COMRAM] unsigned char 
  6818 ;;  bexp            1   64[COMRAM] unsigned char 
  6819 ;;  sign            1   57[COMRAM] unsigned char 
  6820 ;; Return value:  Size  Location     Type
  6821 ;;                  4   41[COMRAM] unsigned char 
  6822 ;; Registers used:
  6823 ;;		wreg, status,2, status,0
  6824 ;; Tracked objects:
  6825 ;;		On entry : 0/0
  6826 ;;		On exit  : 0/0
  6827 ;;		Unchanged: 0/0
  6828 ;; Data sizes:     COMRAM   BANK0   BANK1   BANK2   BANK3   BANK4   BANK5   BANK6   BANK7
  6829 ;;      Params:         8       0       0       0       0       0       0       0       0
  6830 ;;      Locals:        13       0       0       0       0       0       0       0       0
  6831 ;;      Temps:          4       0       0       0       0       0       0       0       0
  6832 ;;      Totals:        25       0       0       0       0       0       0       0       0
  6833 ;;Total ram usage:       25 bytes
  6834 ;; Hardware stack levels used:    1
  6835 ;; This function calls:
  6836 ;;		Nothing
  6837 ;; This function is called by:
  6838 ;;		i2_Temp
  6839 ;; This function uses a non-reentrant model
  6840 ;;
  6841                           
  6842                           	psect	text18
  6843  001758                     __ptext18:
  6844                           	callstack 0
  6845  001758                     i2___fldiv:
  6846                           	callstack 25
  6847  001758  502D               	movf	(i2___fldiv@b+3)^0,w,c
  6848  00175A  0B80               	andlw	128
  6849  00175C  6E3A               	movwf	i2___fldiv@sign^0,c
  6850  00175E  502D               	movf	(i2___fldiv@b+3)^0,w,c
  6851  001760  242D               	addwf	(i2___fldiv@b+3)^0,w,c
  6852  001762  6E41               	movwf	i2___fldiv@bexp^0,c
  6853  001764  AE2C               	btfss	(i2___fldiv@b+2)^0,7,c
  6854  001766  EFB7  F00B         	goto	i2u412_41
  6855  00176A  EFB9  F00B         	goto	i2u412_40
  6856  00176E                     i2u412_41:
  6857  00176E  EFBA  F00B         	goto	i2l3183
  6858  001772                     i2u412_40:
  6859  001772  8041               	bsf	i2___fldiv@bexp^0,0,c
  6860  001774                     i2l3183:
  6861  001774  5041               	movf	i2___fldiv@bexp^0,w,c
  6862  001776  B4D8               	btfsc	status,2,c
  6863  001778  EFC0  F00B         	goto	i2u413_41
  6864  00177C  EFC2  F00B         	goto	i2u413_40
  6865  001780                     i2u413_41:
  6866  001780  EFD7  F00B         	goto	i2l3193
  6867  001784                     i2u413_40:
  6868  001784  2841               	incf	i2___fldiv@bexp^0,w,c
  6869  001786  A4D8               	btfss	status,2,c
  6870  001788  EFC8  F00B         	goto	i2u414_41
  6871  00178C  EFCA  F00B         	goto	i2u414_40
  6872  001790                     i2u414_41:
  6873  001790  EFD2  F00B         	goto	i2l3189
  6874  001794                     i2u414_40:
  6875  001794  0E00               	movlw	0
  6876  001796  6E2A               	movwf	i2___fldiv@b^0,c
  6877  001798  0E00               	movlw	0
  6878  00179A  6E2B               	movwf	(i2___fldiv@b+1)^0,c
  6879  00179C  0E00               	movlw	0
  6880  00179E  6E2C               	movwf	(i2___fldiv@b+2)^0,c
  6881  0017A0  0E00               	movlw	0
  6882  0017A2  6E2D               	movwf	(i2___fldiv@b+3)^0,c
  6883  0017A4                     i2l3189:
  6884  0017A4  8E2C               	bsf	(i2___fldiv@b+2)^0,7,c
  6885  0017A6  0E00               	movlw	0
  6886  0017A8  6E2D               	movwf	(i2___fldiv@b+3)^0,c
  6887  0017AA  EFDF  F00B         	goto	i2l3195
  6888  0017AE                     i2l3193:
  6889  0017AE  0E00               	movlw	0
  6890  0017B0  6E2A               	movwf	i2___fldiv@b^0,c
  6891  0017B2  0E00               	movlw	0
  6892  0017B4  6E2B               	movwf	(i2___fldiv@b+1)^0,c
  6893  0017B6  0E00               	movlw	0
  6894  0017B8  6E2C               	movwf	(i2___fldiv@b+2)^0,c
  6895  0017BA  0E00               	movlw	0
  6896  0017BC  6E2D               	movwf	(i2___fldiv@b+3)^0,c
  6897  0017BE                     i2l3195:
  6898  0017BE  5031               	movf	(i2___fldiv@a+3)^0,w,c
  6899  0017C0  0B80               	andlw	128
  6900  0017C2  1A3A               	xorwf	i2___fldiv@sign^0,f,c
  6901  0017C4  5031               	movf	(i2___fldiv@a+3)^0,w,c
  6902  0017C6  2431               	addwf	(i2___fldiv@a+3)^0,w,c
  6903  0017C8  6E42               	movwf	i2___fldiv@aexp^0,c
  6904  0017CA  AE30               	btfss	(i2___fldiv@a+2)^0,7,c
  6905  0017CC  EFEA  F00B         	goto	i2u415_41
  6906  0017D0  EFEC  F00B         	goto	i2u415_40
  6907  0017D4                     i2u415_41:
  6908  0017D4  EFED  F00B         	goto	i2l3203
  6909  0017D8                     i2u415_40:
  6910  0017D8  8042               	bsf	i2___fldiv@aexp^0,0,c
  6911  0017DA                     i2l3203:
  6912  0017DA  5042               	movf	i2___fldiv@aexp^0,w,c
  6913  0017DC  B4D8               	btfsc	status,2,c
  6914  0017DE  EFF3  F00B         	goto	i2u416_41
  6915  0017E2  EFF5  F00B         	goto	i2u416_40
  6916  0017E6                     i2u416_41:
  6917  0017E6  EF0A  F00C         	goto	i2l3213
  6918  0017EA                     i2u416_40:
  6919  0017EA  2842               	incf	i2___fldiv@aexp^0,w,c
  6920  0017EC  A4D8               	btfss	status,2,c
  6921  0017EE  EFFB  F00B         	goto	i2u417_41
  6922  0017F2  EFFD  F00B         	goto	i2u417_40
  6923  0017F6                     i2u417_41:
  6924  0017F6  EF05  F00C         	goto	i2l3209
  6925  0017FA                     i2u417_40:
  6926  0017FA  0E00               	movlw	0
  6927  0017FC  6E2E               	movwf	i2___fldiv@a^0,c
  6928  0017FE  0E00               	movlw	0
  6929  001800  6E2F               	movwf	(i2___fldiv@a+1)^0,c
  6930  001802  0E00               	movlw	0
  6931  001804  6E30               	movwf	(i2___fldiv@a+2)^0,c
  6932  001806  0E00               	movlw	0
  6933  001808  6E31               	movwf	(i2___fldiv@a+3)^0,c
  6934  00180A                     i2l3209:
  6935  00180A  8E30               	bsf	(i2___fldiv@a+2)^0,7,c
  6936  00180C  0E00               	movlw	0
  6937  00180E  6E31               	movwf	(i2___fldiv@a+3)^0,c
  6938  001810  EF12  F00C         	goto	i2l3215
  6939  001814                     i2l3213:
  6940  001814  0E00               	movlw	0
  6941  001816  6E2E               	movwf	i2___fldiv@a^0,c
  6942  001818  0E00               	movlw	0
  6943  00181A  6E2F               	movwf	(i2___fldiv@a+1)^0,c
  6944  00181C  0E00               	movlw	0
  6945  00181E  6E30               	movwf	(i2___fldiv@a+2)^0,c
  6946  001820  0E00               	movlw	0
  6947  001822  6E31               	movwf	(i2___fldiv@a+3)^0,c
  6948  001824                     i2l3215:
  6949  001824  502E               	movf	i2___fldiv@a^0,w,c
  6950  001826  102F               	iorwf	(i2___fldiv@a+1)^0,w,c
  6951  001828  1030               	iorwf	(i2___fldiv@a+2)^0,w,c
  6952  00182A  1031               	iorwf	(i2___fldiv@a+3)^0,w,c
  6953  00182C  A4D8               	btfss	status,2,c
  6954  00182E  EF1B  F00C         	goto	i2u418_41
  6955  001832  EF1D  F00C         	goto	i2u418_40
  6956  001836                     i2u418_41:
  6957  001836  EF35  F00C         	goto	i2l3227
  6958  00183A                     i2u418_40:
  6959  00183A  0E00               	movlw	0
  6960  00183C  6E2A               	movwf	i2___fldiv@b^0,c
  6961  00183E  0E00               	movlw	0
  6962  001840  6E2B               	movwf	(i2___fldiv@b+1)^0,c
  6963  001842  0E00               	movlw	0
  6964  001844  6E2C               	movwf	(i2___fldiv@b+2)^0,c
  6965  001846  0E00               	movlw	0
  6966  001848  6E2D               	movwf	(i2___fldiv@b+3)^0,c
  6967  00184A  0E80               	movlw	128
  6968  00184C  122C               	iorwf	(i2___fldiv@b+2)^0,f,c
  6969  00184E  0E7F               	movlw	127
  6970  001850  122D               	iorwf	(i2___fldiv@b+3)^0,f,c
  6971  001852                     i2l3221:
  6972  001852  503A               	movf	i2___fldiv@sign^0,w,c
  6973  001854  122D               	iorwf	(i2___fldiv@b+3)^0,f,c
  6974  001856  C02A  F02A         	movff	i2___fldiv@b,?i2___fldiv
  6975  00185A  C02B  F02B         	movff	i2___fldiv@b+1,?i2___fldiv+1
  6976  00185E  C02C  F02C         	movff	i2___fldiv@b+2,?i2___fldiv+2
  6977  001862  C02D  F02D         	movff	i2___fldiv@b+3,?i2___fldiv+3
  6978  001866  EF78  F00D         	goto	i2l784
  6979  00186A                     i2l3227:
  6980  00186A  5041               	movf	i2___fldiv@bexp^0,w,c
  6981  00186C  A4D8               	btfss	status,2,c
  6982  00186E  EF3B  F00C         	goto	i2u419_41
  6983  001872  EF3D  F00C         	goto	i2u419_40
  6984  001876                     i2u419_41:
  6985  001876  EF47  F00C         	goto	i2l3235
  6986  00187A                     i2u419_40:
  6987  00187A  0E00               	movlw	0
  6988  00187C  6E2A               	movwf	?i2___fldiv^0,c
  6989  00187E  0E00               	movlw	0
  6990  001880  6E2B               	movwf	(?i2___fldiv+1)^0,c
  6991  001882  0E00               	movlw	0
  6992  001884  6E2C               	movwf	(?i2___fldiv+2)^0,c
  6993  001886  0E00               	movlw	0
  6994  001888  6E2D               	movwf	(?i2___fldiv+3)^0,c
  6995  00188A  EF78  F00D         	goto	i2l784
  6996  00188E                     i2l3235:
  6997  00188E  5042               	movf	i2___fldiv@aexp^0,w,c
  6998  001890  C041  F032         	movff	i2___fldiv@bexp,??i2___fldiv
  6999  001894  6A33               	clrf	(??i2___fldiv+1)^0,c
  7000  001896  5E32               	subwf	??i2___fldiv^0,f,c
  7001  001898  0E00               	movlw	0
  7002  00189A  5A33               	subwfb	(??i2___fldiv+1)^0,f,c
  7003  00189C  0E7F               	movlw	127
  7004  00189E  2432               	addwf	??i2___fldiv^0,w,c
  7005  0018A0  6E3B               	movwf	i2___fldiv@new_exp^0,c
  7006  0018A2  0E00               	movlw	0
  7007  0018A4  2033               	addwfc	(??i2___fldiv+1)^0,w,c
  7008  0018A6  6E3C               	movwf	(i2___fldiv@new_exp+1)^0,c
  7009  0018A8  C02A  F036         	movff	i2___fldiv@b,i2___fldiv@rem
  7010  0018AC  C02B  F037         	movff	i2___fldiv@b+1,i2___fldiv@rem+1
  7011  0018B0  C02C  F038         	movff	i2___fldiv@b+2,i2___fldiv@rem+2
  7012  0018B4  C02D  F039         	movff	i2___fldiv@b+3,i2___fldiv@rem+3
  7013  0018B8  0E00               	movlw	0
  7014  0018BA  6E2A               	movwf	i2___fldiv@b^0,c
  7015  0018BC  0E00               	movlw	0
  7016  0018BE  6E2B               	movwf	(i2___fldiv@b+1)^0,c
  7017  0018C0  0E00               	movlw	0
  7018  0018C2  6E2C               	movwf	(i2___fldiv@b+2)^0,c
  7019  0018C4  0E00               	movlw	0
  7020  0018C6  6E2D               	movwf	(i2___fldiv@b+3)^0,c
  7021  0018C8  0E00               	movlw	0
  7022  0018CA  6E3D               	movwf	i2___fldiv@grs^0,c
  7023  0018CC  0E00               	movlw	0
  7024  0018CE  6E3E               	movwf	(i2___fldiv@grs+1)^0,c
  7025  0018D0  0E00               	movlw	0
  7026  0018D2  6E3F               	movwf	(i2___fldiv@grs+2)^0,c
  7027  0018D4  0E00               	movlw	0
  7028  0018D6  6E40               	movwf	(i2___fldiv@grs+3)^0,c
  7029  0018D8  0E00               	movlw	0
  7030  0018DA  6E42               	movwf	i2___fldiv@aexp^0,c
  7031  0018DC  EFA8  F00C         	goto	i2l786
  7032  0018E0                     i2l3245:
  7033  0018E0  5042               	movf	i2___fldiv@aexp^0,w,c
  7034  0018E2  B4D8               	btfsc	status,2,c
  7035  0018E4  EF76  F00C         	goto	i2u420_41
  7036  0018E8  EF78  F00C         	goto	i2u420_40
  7037  0018EC                     i2u420_41:
  7038  0018EC  EF8F  F00C         	goto	i2l3253
  7039  0018F0                     i2u420_40:
  7040  0018F0  90D8               	bcf	status,0,c
  7041  0018F2  3636               	rlcf	i2___fldiv@rem^0,f,c
  7042  0018F4  3637               	rlcf	(i2___fldiv@rem+1)^0,f,c
  7043  0018F6  3638               	rlcf	(i2___fldiv@rem+2)^0,f,c
  7044  0018F8  3639               	rlcf	(i2___fldiv@rem+3)^0,f,c
  7045  0018FA  90D8               	bcf	status,0,c
  7046  0018FC  362A               	rlcf	i2___fldiv@b^0,f,c
  7047  0018FE  362B               	rlcf	(i2___fldiv@b+1)^0,f,c
  7048  001900  362C               	rlcf	(i2___fldiv@b+2)^0,f,c
  7049  001902  362D               	rlcf	(i2___fldiv@b+3)^0,f,c
  7050  001904  AE40               	btfss	(i2___fldiv@grs+3)^0,7,c
  7051  001906  EF87  F00C         	goto	i2u421_41
  7052  00190A  EF89  F00C         	goto	i2u421_40
  7053  00190E                     i2u421_41:
  7054  00190E  EF8A  F00C         	goto	i2l789
  7055  001912                     i2u421_40:
  7056  001912  802A               	bsf	i2___fldiv@b^0,0,c
  7057  001914                     i2l789:
  7058  001914  90D8               	bcf	status,0,c
  7059  001916  363D               	rlcf	i2___fldiv@grs^0,f,c
  7060  001918  363E               	rlcf	(i2___fldiv@grs+1)^0,f,c
  7061  00191A  363F               	rlcf	(i2___fldiv@grs+2)^0,f,c
  7062  00191C  3640               	rlcf	(i2___fldiv@grs+3)^0,f,c
  7063  00191E                     i2l3253:
  7064  00191E  502E               	movf	i2___fldiv@a^0,w,c
  7065  001920  5C36               	subwf	i2___fldiv@rem^0,w,c
  7066  001922  502F               	movf	(i2___fldiv@a+1)^0,w,c
  7067  001924  5837               	subwfb	(i2___fldiv@rem+1)^0,w,c
  7068  001926  5030               	movf	(i2___fldiv@a+2)^0,w,c
  7069  001928  5838               	subwfb	(i2___fldiv@rem+2)^0,w,c
  7070  00192A  5031               	movf	(i2___fldiv@a+3)^0,w,c
  7071  00192C  5839               	subwfb	(i2___fldiv@rem+3)^0,w,c
  7072  00192E  A0D8               	btfss	status,0,c
  7073  001930  EF9C  F00C         	goto	i2u422_41
  7074  001934  EF9E  F00C         	goto	i2u422_40
  7075  001938                     i2u422_41:
  7076  001938  EFA7  F00C         	goto	i2l3259
  7077  00193C                     i2u422_40:
  7078  00193C  8C40               	bsf	(i2___fldiv@grs+3)^0,6,c
  7079  00193E  502E               	movf	i2___fldiv@a^0,w,c
  7080  001940  5E36               	subwf	i2___fldiv@rem^0,f,c
  7081  001942  502F               	movf	(i2___fldiv@a+1)^0,w,c
  7082  001944  5A37               	subwfb	(i2___fldiv@rem+1)^0,f,c
  7083  001946  5030               	movf	(i2___fldiv@a+2)^0,w,c
  7084  001948  5A38               	subwfb	(i2___fldiv@rem+2)^0,f,c
  7085  00194A  5031               	movf	(i2___fldiv@a+3)^0,w,c
  7086  00194C  5A39               	subwfb	(i2___fldiv@rem+3)^0,f,c
  7087  00194E                     i2l3259:
  7088  00194E  2A42               	incf	i2___fldiv@aexp^0,f,c
  7089  001950                     i2l786:
  7090  001950  0E19               	movlw	25
  7091  001952  6442               	cpfsgt	i2___fldiv@aexp^0,c
  7092  001954  EFAE  F00C         	goto	i2u423_41
  7093  001958  EFB0  F00C         	goto	i2u423_40
  7094  00195C                     i2u423_41:
  7095  00195C  EF70  F00C         	goto	i2l3245
  7096  001960                     i2u423_40:
  7097  001960  5036               	movf	i2___fldiv@rem^0,w,c
  7098  001962  1037               	iorwf	(i2___fldiv@rem+1)^0,w,c
  7099  001964  1038               	iorwf	(i2___fldiv@rem+2)^0,w,c
  7100  001966  1039               	iorwf	(i2___fldiv@rem+3)^0,w,c
  7101  001968  B4D8               	btfsc	status,2,c
  7102  00196A  EFB9  F00C         	goto	i2u424_41
  7103  00196E  EFBB  F00C         	goto	i2u424_40
  7104  001972                     i2u424_41:
  7105  001972  EFD3  F00C         	goto	i2l3271
  7106  001976                     i2u424_40:
  7107  001976  803D               	bsf	i2___fldiv@grs^0,0,c
  7108  001978  EFD3  F00C         	goto	i2l3271
  7109  00197C                     i2l3265:
  7110  00197C  90D8               	bcf	status,0,c
  7111  00197E  362A               	rlcf	i2___fldiv@b^0,f,c
  7112  001980  362B               	rlcf	(i2___fldiv@b+1)^0,f,c
  7113  001982  362C               	rlcf	(i2___fldiv@b+2)^0,f,c
  7114  001984  362D               	rlcf	(i2___fldiv@b+3)^0,f,c
  7115  001986  AE40               	btfss	(i2___fldiv@grs+3)^0,7,c
  7116  001988  EFC8  F00C         	goto	i2u425_41
  7117  00198C  EFCA  F00C         	goto	i2u425_40
  7118  001990                     i2u425_41:
  7119  001990  EFCB  F00C         	goto	i2l795
  7120  001994                     i2u425_40:
  7121  001994  802A               	bsf	i2___fldiv@b^0,0,c
  7122  001996                     i2l795:
  7123  001996  90D8               	bcf	status,0,c
  7124  001998  363D               	rlcf	i2___fldiv@grs^0,f,c
  7125  00199A  363E               	rlcf	(i2___fldiv@grs+1)^0,f,c
  7126  00199C  363F               	rlcf	(i2___fldiv@grs+2)^0,f,c
  7127  00199E  3640               	rlcf	(i2___fldiv@grs+3)^0,f,c
  7128  0019A0  063B               	decf	i2___fldiv@new_exp^0,f,c
  7129  0019A2  A0D8               	btfss	status,0,c
  7130  0019A4  063C               	decf	(i2___fldiv@new_exp+1)^0,f,c
  7131  0019A6                     i2l3271:
  7132  0019A6  AE2C               	btfss	(i2___fldiv@b+2)^0,7,c
  7133  0019A8  EFD8  F00C         	goto	i2u426_41
  7134  0019AC  EFDA  F00C         	goto	i2u426_40
  7135  0019B0                     i2u426_41:
  7136  0019B0  EFBE  F00C         	goto	i2l3265
  7137  0019B4                     i2u426_40:
  7138  0019B4  0E00               	movlw	0
  7139  0019B6  6E42               	movwf	i2___fldiv@aexp^0,c
  7140  0019B8  AE40               	btfss	(i2___fldiv@grs+3)^0,7,c
  7141  0019BA  EFE1  F00C         	goto	i2u427_41
  7142  0019BE  EFE3  F00C         	goto	i2u427_40
  7143  0019C2                     i2u427_41:
  7144  0019C2  EF07  F00D         	goto	i2l797
  7145  0019C6                     i2u427_40:
  7146  0019C6  0EFF               	movlw	255
  7147  0019C8  143D               	andwf	i2___fldiv@grs^0,w,c
  7148  0019CA  6E32               	movwf	??i2___fldiv^0,c
  7149  0019CC  0EFF               	movlw	255
  7150  0019CE  143E               	andwf	(i2___fldiv@grs+1)^0,w,c
  7151  0019D0  6E33               	movwf	(??i2___fldiv+1)^0,c
  7152  0019D2  0EFF               	movlw	255
  7153  0019D4  143F               	andwf	(i2___fldiv@grs+2)^0,w,c
  7154  0019D6  6E34               	movwf	(??i2___fldiv+2)^0,c
  7155  0019D8  0E7F               	movlw	127
  7156  0019DA  1440               	andwf	(i2___fldiv@grs+3)^0,w,c
  7157  0019DC  6E35               	movwf	(??i2___fldiv+3)^0,c
  7158  0019DE  5032               	movf	??i2___fldiv^0,w,c
  7159  0019E0  1033               	iorwf	(??i2___fldiv+1)^0,w,c
  7160  0019E2  1034               	iorwf	(??i2___fldiv+2)^0,w,c
  7161  0019E4  1035               	iorwf	(??i2___fldiv+3)^0,w,c
  7162  0019E6  B4D8               	btfsc	status,2,c
  7163  0019E8  EFF8  F00C         	goto	i2u428_41
  7164  0019EC  EFFA  F00C         	goto	i2u428_40
  7165  0019F0                     i2u428_41:
  7166  0019F0  EFFE  F00C         	goto	i2l798
  7167  0019F4                     i2u428_40:
  7168  0019F4                     i2l3279:
  7169  0019F4  0E01               	movlw	1
  7170  0019F6  6E42               	movwf	i2___fldiv@aexp^0,c
  7171  0019F8  EF07  F00D         	goto	i2l797
  7172  0019FC                     i2l798:
  7173  0019FC  A02A               	btfss	i2___fldiv@b^0,0,c
  7174  0019FE  EF03  F00D         	goto	i2u429_41
  7175  001A02  EF05  F00D         	goto	i2u429_40
  7176  001A06                     i2u429_41:
  7177  001A06  EF07  F00D         	goto	i2l797
  7178  001A0A                     i2u429_40:
  7179  001A0A  EFFA  F00C         	goto	i2l3279
  7180  001A0E                     i2l797:
  7181  001A0E  5042               	movf	i2___fldiv@aexp^0,w,c
  7182  001A10  B4D8               	btfsc	status,2,c
  7183  001A12  EF0D  F00D         	goto	i2u430_41
  7184  001A16  EF0F  F00D         	goto	i2u430_40
  7185  001A1A                     i2u430_41:
  7186  001A1A  EF33  F00D         	goto	i2l3291
  7187  001A1E                     i2u430_40:
  7188  001A1E  0E01               	movlw	1
  7189  001A20  262A               	addwf	i2___fldiv@b^0,f,c
  7190  001A22  0E00               	movlw	0
  7191  001A24  222B               	addwfc	(i2___fldiv@b+1)^0,f,c
  7192  001A26  222C               	addwfc	(i2___fldiv@b+2)^0,f,c
  7193  001A28  222D               	addwfc	(i2___fldiv@b+3)^0,f,c
  7194  001A2A  A02D               	btfss	(i2___fldiv@b+3)^0,0,c
  7195  001A2C  EF1A  F00D         	goto	i2u431_41
  7196  001A30  EF1C  F00D         	goto	i2u431_40
  7197  001A34                     i2u431_41:
  7198  001A34  EF33  F00D         	goto	i2l3291
  7199  001A38                     i2u431_40:
  7200  001A38  C02A  F032         	movff	i2___fldiv@b,??i2___fldiv
  7201  001A3C  C02B  F033         	movff	i2___fldiv@b+1,??i2___fldiv+1
  7202  001A40  C02C  F034         	movff	i2___fldiv@b+2,??i2___fldiv+2
  7203  001A44  C02D  F035         	movff	i2___fldiv@b+3,??i2___fldiv+3
  7204  001A48  3435               	rlcf	(??i2___fldiv+3)^0,w,c
  7205  001A4A  3235               	rrcf	(??i2___fldiv+3)^0,f,c
  7206  001A4C  3234               	rrcf	(??i2___fldiv+2)^0,f,c
  7207  001A4E  3233               	rrcf	(??i2___fldiv+1)^0,f,c
  7208  001A50  3232               	rrcf	??i2___fldiv^0,f,c
  7209  001A52  C032  F02A         	movff	??i2___fldiv,i2___fldiv@b
  7210  001A56  C033  F02B         	movff	??i2___fldiv+1,i2___fldiv@b+1
  7211  001A5A  C034  F02C         	movff	??i2___fldiv+2,i2___fldiv@b+2
  7212  001A5E  C035  F02D         	movff	??i2___fldiv+3,i2___fldiv@b+3
  7213  001A62  4A3B               	infsnz	i2___fldiv@new_exp^0,f,c
  7214  001A64  2A3C               	incf	(i2___fldiv@new_exp+1)^0,f,c
  7215  001A66                     i2l3291:
  7216  001A66  BE3C               	btfsc	(i2___fldiv@new_exp+1)^0,7,c
  7217  001A68  EF3E  F00D         	goto	i2u432_41
  7218  001A6C  503C               	movf	(i2___fldiv@new_exp+1)^0,w,c
  7219  001A6E  E108               	bnz	i2u432_40
  7220  001A70  283B               	incf	i2___fldiv@new_exp^0,w,c
  7221  001A72  A0D8               	btfss	status,0,c
  7222  001A74  EF3E  F00D         	goto	i2u432_41
  7223  001A78  EF40  F00D         	goto	i2u432_40
  7224  001A7C                     i2u432_41:
  7225  001A7C  EF4B  F00D         	goto	i2l3295
  7226  001A80                     i2u432_40:
  7227  001A80  0E00               	movlw	0
  7228  001A82  6E3C               	movwf	(i2___fldiv@new_exp+1)^0,c
  7229  001A84  683B               	setf	i2___fldiv@new_exp^0,c
  7230  001A86  0E00               	movlw	0
  7231  001A88  6E2A               	movwf	i2___fldiv@b^0,c
  7232  001A8A  0E00               	movlw	0
  7233  001A8C  6E2B               	movwf	(i2___fldiv@b+1)^0,c
  7234  001A8E  0E00               	movlw	0
  7235  001A90  6E2C               	movwf	(i2___fldiv@b+2)^0,c
  7236  001A92  0E00               	movlw	0
  7237  001A94  6E2D               	movwf	(i2___fldiv@b+3)^0,c
  7238  001A96                     i2l3295:
  7239  001A96  BE3C               	btfsc	(i2___fldiv@new_exp+1)^0,7,c
  7240  001A98  EF58  F00D         	goto	i2u433_40
  7241  001A9C  503C               	movf	(i2___fldiv@new_exp+1)^0,w,c
  7242  001A9E  E106               	bnz	i2u433_41
  7243  001AA0  043B               	decf	i2___fldiv@new_exp^0,w,c
  7244  001AA2  B0D8               	btfsc	status,0,c
  7245  001AA4  EF56  F00D         	goto	i2u433_41
  7246  001AA8  EF58  F00D         	goto	i2u433_40
  7247  001AAC                     i2u433_41:
  7248  001AAC  EF66  F00D         	goto	i2l3299
  7249  001AB0                     i2u433_40:
  7250  001AB0  0E00               	movlw	0
  7251  001AB2  6E3C               	movwf	(i2___fldiv@new_exp+1)^0,c
  7252  001AB4  0E00               	movlw	0
  7253  001AB6  6E3B               	movwf	i2___fldiv@new_exp^0,c
  7254  001AB8  0E00               	movlw	0
  7255  001ABA  6E2A               	movwf	i2___fldiv@b^0,c
  7256  001ABC  0E00               	movlw	0
  7257  001ABE  6E2B               	movwf	(i2___fldiv@b+1)^0,c
  7258  001AC0  0E00               	movlw	0
  7259  001AC2  6E2C               	movwf	(i2___fldiv@b+2)^0,c
  7260  001AC4  0E00               	movlw	0
  7261  001AC6  6E2D               	movwf	(i2___fldiv@b+3)^0,c
  7262  001AC8  0E00               	movlw	0
  7263  001ACA  6E3A               	movwf	i2___fldiv@sign^0,c
  7264  001ACC                     i2l3299:
  7265  001ACC  C03B  F041         	movff	i2___fldiv@new_exp,i2___fldiv@bexp
  7266  001AD0  A041               	btfss	i2___fldiv@bexp^0,0,c
  7267  001AD2  EF6D  F00D         	goto	i2u434_41
  7268  001AD6  EF6F  F00D         	goto	i2u434_40
  7269  001ADA                     i2u434_41:
  7270  001ADA  EF72  F00D         	goto	i2l3305
  7271  001ADE                     i2u434_40:
  7272  001ADE  8E2C               	bsf	(i2___fldiv@b+2)^0,7,c
  7273  001AE0  EF73  F00D         	goto	i2l3307
  7274  001AE4                     i2l3305:
  7275  001AE4  9E2C               	bcf	(i2___fldiv@b+2)^0,7,c
  7276  001AE6                     i2l3307:
  7277  001AE6  90D8               	bcf	status,0,c
  7278  001AE8  3041               	rrcf	i2___fldiv@bexp^0,w,c
  7279  001AEA  6E2D               	movwf	(i2___fldiv@b+3)^0,c
  7280  001AEC  EF29  F00C         	goto	i2l3221
  7281  001AF0                     i2l784:
  7282  001AF0  0012               	return		;funcret
  7283  001AF2                     __end_ofi2___fldiv:
  7284                           	callstack 0
  7285                           
  7286 ;; *************** function i2___fladd *****************
  7287 ;; Defined at:
  7288 ;;		line 10 in file "C:\Program Files\Microchip\xc8\v2.20\pic\sources\c99\common\sprcadd.c"
  7289 ;; Parameters:    Size  Location     Type
  7290 ;;  b               4    0[COMRAM] unsigned char 
  7291 ;;  a               4    4[COMRAM] unsigned char 
  7292 ;; Auto vars:     Size  Location     Type
  7293 ;;  grs             1   15[COMRAM] unsigned char 
  7294 ;;  bexp            1   14[COMRAM] unsigned char 
  7295 ;;  aexp            1   13[COMRAM] unsigned char 
  7296 ;;  signs           1   12[COMRAM] unsigned char 
  7297 ;; Return value:  Size  Location     Type
  7298 ;;                  4    0[COMRAM] unsigned char 
  7299 ;; Registers used:
  7300 ;;		wreg, status,2, status,0
  7301 ;; Tracked objects:
  7302 ;;		On entry : 0/0
  7303 ;;		On exit  : 0/0
  7304 ;;		Unchanged: 0/0
  7305 ;; Data sizes:     COMRAM   BANK0   BANK1   BANK2   BANK3   BANK4   BANK5   BANK6   BANK7
  7306 ;;      Params:         8       0       0       0       0       0       0       0       0
  7307 ;;      Locals:         4       0       0       0       0       0       0       0       0
  7308 ;;      Temps:          4       0       0       0       0       0       0       0       0
  7309 ;;      Totals:        16       0       0       0       0       0       0       0       0
  7310 ;;Total ram usage:       16 bytes
  7311 ;; Hardware stack levels used:    1
  7312 ;; This function calls:
  7313 ;;		Nothing
  7314 ;; This function is called by:
  7315 ;;		i2_Temp
  7316 ;; This function uses a non-reentrant model
  7317 ;;
  7318                           
  7319                           	psect	text19
  7320  0006A6                     __ptext19:
  7321                           	callstack 0
  7322  0006A6                     i2___fladd:
  7323                           	callstack 25
  7324  0006A6  5004               	movf	(i2___fladd@b+3)^0,w,c
  7325  0006A8  0B80               	andlw	128
  7326  0006AA  6E0D               	movwf	i2___fladd@signs^0,c
  7327  0006AC  5004               	movf	(i2___fladd@b+3)^0,w,c
  7328  0006AE  2404               	addwf	(i2___fladd@b+3)^0,w,c
  7329  0006B0  6E0F               	movwf	i2___fladd@bexp^0,c
  7330  0006B2  AE03               	btfss	(i2___fladd@b+2)^0,7,c
  7331  0006B4  EF5E  F003         	goto	i2u373_41
  7332  0006B8  EF60  F003         	goto	i2u373_40
  7333  0006BC                     i2u373_41:
  7334  0006BC  EF61  F003         	goto	i2l2981
  7335  0006C0                     i2u373_40:
  7336  0006C0  800F               	bsf	i2___fladd@bexp^0,0,c
  7337  0006C2                     i2l2981:
  7338  0006C2  500F               	movf	i2___fladd@bexp^0,w,c
  7339  0006C4  B4D8               	btfsc	status,2,c
  7340  0006C6  EF67  F003         	goto	i2u374_41
  7341  0006CA  EF69  F003         	goto	i2u374_40
  7342  0006CE                     i2u374_41:
  7343  0006CE  EF7E  F003         	goto	i2l2991
  7344  0006D2                     i2u374_40:
  7345  0006D2  280F               	incf	i2___fladd@bexp^0,w,c
  7346  0006D4  A4D8               	btfss	status,2,c
  7347  0006D6  EF6F  F003         	goto	i2u375_41
  7348  0006DA  EF71  F003         	goto	i2u375_40
  7349  0006DE                     i2u375_41:
  7350  0006DE  EF79  F003         	goto	i2l2987
  7351  0006E2                     i2u375_40:
  7352  0006E2  0E00               	movlw	0
  7353  0006E4  6E01               	movwf	i2___fladd@b^0,c
  7354  0006E6  0E00               	movlw	0
  7355  0006E8  6E02               	movwf	(i2___fladd@b+1)^0,c
  7356  0006EA  0E00               	movlw	0
  7357  0006EC  6E03               	movwf	(i2___fladd@b+2)^0,c
  7358  0006EE  0E00               	movlw	0
  7359  0006F0  6E04               	movwf	(i2___fladd@b+3)^0,c
  7360  0006F2                     i2l2987:
  7361  0006F2  8E03               	bsf	(i2___fladd@b+2)^0,7,c
  7362  0006F4  0E00               	movlw	0
  7363  0006F6  6E04               	movwf	(i2___fladd@b+3)^0,c
  7364  0006F8  EF86  F003         	goto	i2l2993
  7365  0006FC                     i2l2991:
  7366  0006FC  0E00               	movlw	0
  7367  0006FE  6E01               	movwf	i2___fladd@b^0,c
  7368  000700  0E00               	movlw	0
  7369  000702  6E02               	movwf	(i2___fladd@b+1)^0,c
  7370  000704  0E00               	movlw	0
  7371  000706  6E03               	movwf	(i2___fladd@b+2)^0,c
  7372  000708  0E00               	movlw	0
  7373  00070A  6E04               	movwf	(i2___fladd@b+3)^0,c
  7374  00070C                     i2l2993:
  7375  00070C  5008               	movf	(i2___fladd@a+3)^0,w,c
  7376  00070E  0B80               	andlw	128
  7377  000710  6E0E               	movwf	i2___fladd@aexp^0,c
  7378  000712  500D               	movf	i2___fladd@signs^0,w,c
  7379  000714  180E               	xorwf	i2___fladd@aexp^0,w,c
  7380  000716  B4D8               	btfsc	status,2,c
  7381  000718  EF90  F003         	goto	i2u376_41
  7382  00071C  EF92  F003         	goto	i2u376_40
  7383  000720                     i2u376_41:
  7384  000720  EF93  F003         	goto	i2l2999
  7385  000724                     i2u376_40:
  7386  000724  8C0D               	bsf	i2___fladd@signs^0,6,c
  7387  000726                     i2l2999:
  7388  000726  5008               	movf	(i2___fladd@a+3)^0,w,c
  7389  000728  2408               	addwf	(i2___fladd@a+3)^0,w,c
  7390  00072A  6E0E               	movwf	i2___fladd@aexp^0,c
  7391  00072C  AE07               	btfss	(i2___fladd@a+2)^0,7,c
  7392  00072E  EF9B  F003         	goto	i2u377_41
  7393  000732  EF9D  F003         	goto	i2u377_40
  7394  000736                     i2u377_41:
  7395  000736  EF9E  F003         	goto	i2l3005
  7396  00073A                     i2u377_40:
  7397  00073A  800E               	bsf	i2___fladd@aexp^0,0,c
  7398  00073C                     i2l3005:
  7399  00073C  500E               	movf	i2___fladd@aexp^0,w,c
  7400  00073E  B4D8               	btfsc	status,2,c
  7401  000740  EFA4  F003         	goto	i2u378_41
  7402  000744  EFA6  F003         	goto	i2u378_40
  7403  000748                     i2u378_41:
  7404  000748  EFBB  F003         	goto	i2l3015
  7405  00074C                     i2u378_40:
  7406  00074C  280E               	incf	i2___fladd@aexp^0,w,c
  7407  00074E  A4D8               	btfss	status,2,c
  7408  000750  EFAC  F003         	goto	i2u379_41
  7409  000754  EFAE  F003         	goto	i2u379_40
  7410  000758                     i2u379_41:
  7411  000758  EFB6  F003         	goto	i2l3011
  7412  00075C                     i2u379_40:
  7413  00075C  0E00               	movlw	0
  7414  00075E  6E05               	movwf	i2___fladd@a^0,c
  7415  000760  0E00               	movlw	0
  7416  000762  6E06               	movwf	(i2___fladd@a+1)^0,c
  7417  000764  0E00               	movlw	0
  7418  000766  6E07               	movwf	(i2___fladd@a+2)^0,c
  7419  000768  0E00               	movlw	0
  7420  00076A  6E08               	movwf	(i2___fladd@a+3)^0,c
  7421  00076C                     i2l3011:
  7422  00076C  8E07               	bsf	(i2___fladd@a+2)^0,7,c
  7423  00076E  0E00               	movlw	0
  7424  000770  6E08               	movwf	(i2___fladd@a+3)^0,c
  7425  000772  EFC3  F003         	goto	i2l3017
  7426  000776                     i2l3015:
  7427  000776  0E00               	movlw	0
  7428  000778  6E05               	movwf	i2___fladd@a^0,c
  7429  00077A  0E00               	movlw	0
  7430  00077C  6E06               	movwf	(i2___fladd@a+1)^0,c
  7431  00077E  0E00               	movlw	0
  7432  000780  6E07               	movwf	(i2___fladd@a+2)^0,c
  7433  000782  0E00               	movlw	0
  7434  000784  6E08               	movwf	(i2___fladd@a+3)^0,c
  7435  000786                     i2l3017:
  7436  000786  500F               	movf	i2___fladd@bexp^0,w,c
  7437  000788  5C0E               	subwf	i2___fladd@aexp^0,w,c
  7438  00078A  B0D8               	btfsc	status,0,c
  7439  00078C  EFCA  F003         	goto	i2u380_41
  7440  000790  EFCC  F003         	goto	i2u380_40
  7441  000794                     i2u380_41:
  7442  000794  EFF3  F003         	goto	i2l3053
  7443  000798                     i2u380_40:
  7444  000798  AC0D               	btfss	i2___fladd@signs^0,6,c
  7445  00079A  EFD1  F003         	goto	i2u381_41
  7446  00079E  EFD3  F003         	goto	i2u381_40
  7447  0007A2                     i2u381_41:
  7448  0007A2  EFD5  F003         	goto	i2l3023
  7449  0007A6                     i2u381_40:
  7450  0007A6  0E80               	movlw	128
  7451  0007A8  1A0D               	xorwf	i2___fladd@signs^0,f,c
  7452  0007AA                     i2l3023:
  7453  0007AA  C00F  F010         	movff	i2___fladd@bexp,i2___fladd@grs
  7454  0007AE  C00E  F00F         	movff	i2___fladd@aexp,i2___fladd@bexp
  7455  0007B2  C010  F00E         	movff	i2___fladd@grs,i2___fladd@aexp
  7456  0007B6  C001  F010         	movff	i2___fladd@b,i2___fladd@grs
  7457  0007BA  C005  F001         	movff	i2___fladd@a,i2___fladd@b
  7458  0007BE  C010  F005         	movff	i2___fladd@grs,i2___fladd@a
  7459  0007C2  C002  F010         	movff	i2___fladd@b+1,i2___fladd@grs
  7460  0007C6  C006  F002         	movff	i2___fladd@a+1,i2___fladd@b+1
  7461  0007CA  C010  F006         	movff	i2___fladd@grs,i2___fladd@a+1
  7462  0007CE  C003  F010         	movff	i2___fladd@b+2,i2___fladd@grs
  7463  0007D2  C007  F003         	movff	i2___fladd@a+2,i2___fladd@b+2
  7464  0007D6  C010  F007         	movff	i2___fladd@grs,i2___fladd@a+2
  7465  0007DA  C004  F010         	movff	i2___fladd@b+3,i2___fladd@grs
  7466  0007DE  C008  F004         	movff	i2___fladd@a+3,i2___fladd@b+3
  7467  0007E2  C010  F008         	movff	i2___fladd@grs,i2___fladd@a+3
  7468  0007E6                     i2l3053:
  7469  0007E6  0E00               	movlw	0
  7470  0007E8  6E10               	movwf	i2___fladd@grs^0,c
  7471  0007EA  500F               	movf	i2___fladd@bexp^0,w,c
  7472  0007EC  C00E  F009         	movff	i2___fladd@aexp,??i2___fladd
  7473  0007F0  6A0A               	clrf	(??i2___fladd+1)^0,c
  7474  0007F2  5E09               	subwf	??i2___fladd^0,f,c
  7475  0007F4  0E00               	movlw	0
  7476  0007F6  5A0A               	subwfb	(??i2___fladd+1)^0,f,c
  7477  0007F8  BE0A               	btfsc	(??i2___fladd+1)^0,7,c
  7478  0007FA  EF08  F004         	goto	i2u382_41
  7479  0007FE  500A               	movf	(??i2___fladd+1)^0,w,c
  7480  000800  E109               	bnz	i2u382_40
  7481  000802  0E1A               	movlw	26
  7482  000804  5C09               	subwf	??i2___fladd^0,w,c
  7483  000806  A0D8               	btfss	status,0,c
  7484  000808  EF08  F004         	goto	i2u382_41
  7485  00080C  EF0A  F004         	goto	i2u382_40
  7486  000810                     i2u382_41:
  7487  000810  EF41  F004         	goto	i2l731
  7488  000814                     i2u382_40:
  7489  000814  5001               	movf	i2___fladd@b^0,w,c
  7490  000816  1002               	iorwf	(i2___fladd@b+1)^0,w,c
  7491  000818  1003               	iorwf	(i2___fladd@b+2)^0,w,c
  7492  00081A  1004               	iorwf	(i2___fladd@b+3)^0,w,c
  7493  00081C  A4D8               	btfss	status,2,c
  7494  00081E  EF13  F004         	goto	i2u383_41
  7495  000822  EF16  F004         	goto	i2u383_40
  7496  000826                     i2u383_41:
  7497  000826  0E01               	movlw	1
  7498  000828  EF17  F004         	goto	i2u384_40
  7499  00082C                     i2u383_40:
  7500  00082C  0E00               	movlw	0
  7501  00082E                     i2u384_40:
  7502  00082E  6E10               	movwf	i2___fladd@grs^0,c
  7503  000830  0E00               	movlw	0
  7504  000832  6E01               	movwf	i2___fladd@b^0,c
  7505  000834  0E00               	movlw	0
  7506  000836  6E02               	movwf	(i2___fladd@b+1)^0,c
  7507  000838  0E00               	movlw	0
  7508  00083A  6E03               	movwf	(i2___fladd@b+2)^0,c
  7509  00083C  0E00               	movlw	0
  7510  00083E  6E04               	movwf	(i2___fladd@b+3)^0,c
  7511  000840  C00E  F00F         	movff	i2___fladd@aexp,i2___fladd@bexp
  7512  000844  EF4A  F004         	goto	i2l730
  7513  000848                     i2l732:
  7514  000848  A010               	btfss	i2___fladd@grs^0,0,c
  7515  00084A  EF29  F004         	goto	i2u385_41
  7516  00084E  EF2B  F004         	goto	i2u385_40
  7517  000852                     i2u385_41:
  7518  000852  EF31  F004         	goto	i2l3065
  7519  000856                     i2u385_40:
  7520  000856  90D8               	bcf	status,0,c
  7521  000858  3010               	rrcf	i2___fladd@grs^0,w,c
  7522  00085A  0901               	iorlw	1
  7523  00085C  6E10               	movwf	i2___fladd@grs^0,c
  7524  00085E  EF33  F004         	goto	i2l3067
  7525  000862                     i2l3065:
  7526  000862  90D8               	bcf	status,0,c
  7527  000864  3210               	rrcf	i2___fladd@grs^0,f,c
  7528  000866                     i2l3067:
  7529  000866  A001               	btfss	i2___fladd@b^0,0,c
  7530  000868  EF38  F004         	goto	i2u386_41
  7531  00086C  EF3A  F004         	goto	i2u386_40
  7532  000870                     i2u386_41:
  7533  000870  EF3B  F004         	goto	i2l3071
  7534  000874                     i2u386_40:
  7535  000874  8E10               	bsf	i2___fladd@grs^0,7,c
  7536  000876                     i2l3071:
  7537  000876  3404               	rlcf	(i2___fladd@b+3)^0,w,c
  7538  000878  3204               	rrcf	(i2___fladd@b+3)^0,f,c
  7539  00087A  3203               	rrcf	(i2___fladd@b+2)^0,f,c
  7540  00087C  3202               	rrcf	(i2___fladd@b+1)^0,f,c
  7541  00087E  3201               	rrcf	i2___fladd@b^0,f,c
  7542  000880  2A0F               	incf	i2___fladd@bexp^0,f,c
  7543  000882                     i2l731:
  7544  000882  500E               	movf	i2___fladd@aexp^0,w,c
  7545  000884  5C0F               	subwf	i2___fladd@bexp^0,w,c
  7546  000886  A0D8               	btfss	status,0,c
  7547  000888  EF48  F004         	goto	i2u387_41
  7548  00088C  EF4A  F004         	goto	i2u387_40
  7549  000890                     i2u387_41:
  7550  000890  EF24  F004         	goto	i2l732
  7551  000894                     i2u387_40:
  7552  000894                     i2l730:
  7553  000894  BC0D               	btfsc	i2___fladd@signs^0,6,c
  7554  000896  EF4F  F004         	goto	i2u388_41
  7555  00089A  EF51  F004         	goto	i2u388_40
  7556  00089E                     i2u388_41:
  7557  00089E  EF91  F004         	goto	i2l3099
  7558  0008A2                     i2u388_40:
  7559  0008A2  500F               	movf	i2___fladd@bexp^0,w,c
  7560  0008A4  A4D8               	btfss	status,2,c
  7561  0008A6  EF57  F004         	goto	i2u389_41
  7562  0008AA  EF59  F004         	goto	i2u389_40
  7563  0008AE                     i2u389_41:
  7564  0008AE  EF63  F004         	goto	i2l3081
  7565  0008B2                     i2u389_40:
  7566  0008B2  0E00               	movlw	0
  7567  0008B4  6E01               	movwf	?i2___fladd^0,c
  7568  0008B6  0E00               	movlw	0
  7569  0008B8  6E02               	movwf	(?i2___fladd+1)^0,c
  7570  0008BA  0E00               	movlw	0
  7571  0008BC  6E03               	movwf	(?i2___fladd+2)^0,c
  7572  0008BE  0E00               	movlw	0
  7573  0008C0  6E04               	movwf	(?i2___fladd+3)^0,c
  7574  0008C2  EFB2  F005         	goto	i2l739
  7575  0008C6                     i2l3081:
  7576  0008C6  5005               	movf	i2___fladd@a^0,w,c
  7577  0008C8  2601               	addwf	i2___fladd@b^0,f,c
  7578  0008CA  5006               	movf	(i2___fladd@a+1)^0,w,c
  7579  0008CC  2202               	addwfc	(i2___fladd@b+1)^0,f,c
  7580  0008CE  5007               	movf	(i2___fladd@a+2)^0,w,c
  7581  0008D0  2203               	addwfc	(i2___fladd@b+2)^0,f,c
  7582  0008D2  5008               	movf	(i2___fladd@a+3)^0,w,c
  7583  0008D4  2204               	addwfc	(i2___fladd@b+3)^0,f,c
  7584  0008D6  A004               	btfss	(i2___fladd@b+3)^0,0,c
  7585  0008D8  EF70  F004         	goto	i2u390_41
  7586  0008DC  EF72  F004         	goto	i2u390_40
  7587  0008E0                     i2u390_41:
  7588  0008E0  EF1E  F005         	goto	i2l3135
  7589  0008E4                     i2u390_40:
  7590  0008E4  A010               	btfss	i2___fladd@grs^0,0,c
  7591  0008E6  EF77  F004         	goto	i2u391_41
  7592  0008EA  EF79  F004         	goto	i2u391_40
  7593  0008EE                     i2u391_41:
  7594  0008EE  EF7F  F004         	goto	i2l3089
  7595  0008F2                     i2u391_40:
  7596  0008F2  90D8               	bcf	status,0,c
  7597  0008F4  3010               	rrcf	i2___fladd@grs^0,w,c
  7598  0008F6  0901               	iorlw	1
  7599  0008F8  6E10               	movwf	i2___fladd@grs^0,c
  7600  0008FA  EF81  F004         	goto	i2l3091
  7601  0008FE                     i2l3089:
  7602  0008FE  90D8               	bcf	status,0,c
  7603  000900  3210               	rrcf	i2___fladd@grs^0,f,c
  7604  000902                     i2l3091:
  7605  000902  A001               	btfss	i2___fladd@b^0,0,c
  7606  000904  EF86  F004         	goto	i2u392_41
  7607  000908  EF88  F004         	goto	i2u392_40
  7608  00090C                     i2u392_41:
  7609  00090C  EF89  F004         	goto	i2l3095
  7610  000910                     i2u392_40:
  7611  000910  8E10               	bsf	i2___fladd@grs^0,7,c
  7612  000912                     i2l3095:
  7613  000912  3404               	rlcf	(i2___fladd@b+3)^0,w,c
  7614  000914  3204               	rrcf	(i2___fladd@b+3)^0,f,c
  7615  000916  3203               	rrcf	(i2___fladd@b+2)^0,f,c
  7616  000918  3202               	rrcf	(i2___fladd@b+1)^0,f,c
  7617  00091A  3201               	rrcf	i2___fladd@b^0,f,c
  7618  00091C  2A0F               	incf	i2___fladd@bexp^0,f,c
  7619  00091E  EF1E  F005         	goto	i2l3135
  7620  000922                     i2l3099:
  7621  000922  5005               	movf	i2___fladd@a^0,w,c
  7622  000924  5C01               	subwf	i2___fladd@b^0,w,c
  7623  000926  5006               	movf	(i2___fladd@a+1)^0,w,c
  7624  000928  5802               	subwfb	(i2___fladd@b+1)^0,w,c
  7625  00092A  5007               	movf	(i2___fladd@a+2)^0,w,c
  7626  00092C  5803               	subwfb	(i2___fladd@b+2)^0,w,c
  7627  00092E  5004               	movf	(i2___fladd@b+3)^0,w,c
  7628  000930  0A80               	xorlw	128
  7629  000932  6E09               	movwf	??i2___fladd^0,c
  7630  000934  5008               	movf	(i2___fladd@a+3)^0,w,c
  7631  000936  0A80               	xorlw	128
  7632  000938  5809               	subwfb	??i2___fladd^0,w,c
  7633  00093A  B0D8               	btfsc	status,0,c
  7634  00093C  EFA2  F004         	goto	i2u393_41
  7635  000940  EFA4  F004         	goto	i2u393_40
  7636  000944                     i2u393_41:
  7637  000944  EFCF  F004         	goto	i2l3109
  7638  000948                     i2u393_40:
  7639  000948  5001               	movf	i2___fladd@b^0,w,c
  7640  00094A  5C05               	subwf	i2___fladd@a^0,w,c
  7641  00094C  6E09               	movwf	??i2___fladd^0,c
  7642  00094E  5002               	movf	(i2___fladd@b+1)^0,w,c
  7643  000950  5806               	subwfb	(i2___fladd@a+1)^0,w,c
  7644  000952  6E0A               	movwf	(??i2___fladd+1)^0,c
  7645  000954  5003               	movf	(i2___fladd@b+2)^0,w,c
  7646  000956  5807               	subwfb	(i2___fladd@a+2)^0,w,c
  7647  000958  6E0B               	movwf	(??i2___fladd+2)^0,c
  7648  00095A  5004               	movf	(i2___fladd@b+3)^0,w,c
  7649  00095C  5808               	subwfb	(i2___fladd@a+3)^0,w,c
  7650  00095E  6E0C               	movwf	(??i2___fladd+3)^0,c
  7651  000960  0EFF               	movlw	255
  7652  000962  2409               	addwf	??i2___fladd^0,w,c
  7653  000964  6E01               	movwf	i2___fladd@b^0,c
  7654  000966  0EFF               	movlw	255
  7655  000968  200A               	addwfc	(??i2___fladd+1)^0,w,c
  7656  00096A  6E02               	movwf	(i2___fladd@b+1)^0,c
  7657  00096C  0EFF               	movlw	255
  7658  00096E  200B               	addwfc	(??i2___fladd+2)^0,w,c
  7659  000970  6E03               	movwf	(i2___fladd@b+2)^0,c
  7660  000972  0EFF               	movlw	255
  7661  000974  200C               	addwfc	(??i2___fladd+3)^0,w,c
  7662  000976  6E04               	movwf	(i2___fladd@b+3)^0,c
  7663  000978  0E80               	movlw	128
  7664  00097A  1A0D               	xorwf	i2___fladd@signs^0,f,c
  7665  00097C  6C10               	negf	i2___fladd@grs^0,c
  7666  00097E  5010               	movf	i2___fladd@grs^0,w,c
  7667  000980  A4D8               	btfss	status,2,c
  7668  000982  EFC5  F004         	goto	i2u394_41
  7669  000986  EFC7  F004         	goto	i2u394_40
  7670  00098A                     i2u394_41:
  7671  00098A  EFD7  F004         	goto	i2l747
  7672  00098E                     i2u394_40:
  7673  00098E  0E01               	movlw	1
  7674  000990  2601               	addwf	i2___fladd@b^0,f,c
  7675  000992  0E00               	movlw	0
  7676  000994  2202               	addwfc	(i2___fladd@b+1)^0,f,c
  7677  000996  2203               	addwfc	(i2___fladd@b+2)^0,f,c
  7678  000998  2204               	addwfc	(i2___fladd@b+3)^0,f,c
  7679  00099A  EFD7  F004         	goto	i2l747
  7680  00099E                     i2l3109:
  7681  00099E  5005               	movf	i2___fladd@a^0,w,c
  7682  0009A0  5E01               	subwf	i2___fladd@b^0,f,c
  7683  0009A2  5006               	movf	(i2___fladd@a+1)^0,w,c
  7684  0009A4  5A02               	subwfb	(i2___fladd@b+1)^0,f,c
  7685  0009A6  5007               	movf	(i2___fladd@a+2)^0,w,c
  7686  0009A8  5A03               	subwfb	(i2___fladd@b+2)^0,f,c
  7687  0009AA  5008               	movf	(i2___fladd@a+3)^0,w,c
  7688  0009AC  5A04               	subwfb	(i2___fladd@b+3)^0,f,c
  7689  0009AE                     i2l747:
  7690  0009AE  5001               	movf	i2___fladd@b^0,w,c
  7691  0009B0  1002               	iorwf	(i2___fladd@b+1)^0,w,c
  7692  0009B2  1003               	iorwf	(i2___fladd@b+2)^0,w,c
  7693  0009B4  1004               	iorwf	(i2___fladd@b+3)^0,w,c
  7694  0009B6  A4D8               	btfss	status,2,c
  7695  0009B8  EFE0  F004         	goto	i2u395_41
  7696  0009BC  EFE2  F004         	goto	i2u395_40
  7697  0009C0                     i2u395_41:
  7698  0009C0  EF17  F005         	goto	i2l3133
  7699  0009C4                     i2u395_40:
  7700  0009C4  5010               	movf	i2___fladd@grs^0,w,c
  7701  0009C6  A4D8               	btfss	status,2,c
  7702  0009C8  EFE8  F004         	goto	i2u396_41
  7703  0009CC  EFEA  F004         	goto	i2u396_40
  7704  0009D0                     i2u396_41:
  7705  0009D0  EF17  F005         	goto	i2l3133
  7706  0009D4                     i2u396_40:
  7707  0009D4  0E00               	movlw	0
  7708  0009D6  6E01               	movwf	?i2___fladd^0,c
  7709  0009D8  0E00               	movlw	0
  7710  0009DA  6E02               	movwf	(?i2___fladd+1)^0,c
  7711  0009DC  0E00               	movlw	0
  7712  0009DE  6E03               	movwf	(?i2___fladd+2)^0,c
  7713  0009E0  0E00               	movlw	0
  7714  0009E2  6E04               	movwf	(?i2___fladd+3)^0,c
  7715  0009E4  EFB2  F005         	goto	i2l739
  7716  0009E8                     i2l3117:
  7717  0009E8  90D8               	bcf	status,0,c
  7718  0009EA  3601               	rlcf	i2___fladd@b^0,f,c
  7719  0009EC  3602               	rlcf	(i2___fladd@b+1)^0,f,c
  7720  0009EE  3603               	rlcf	(i2___fladd@b+2)^0,f,c
  7721  0009F0  3604               	rlcf	(i2___fladd@b+3)^0,f,c
  7722  0009F2  AE10               	btfss	i2___fladd@grs^0,7,c
  7723  0009F4  EFFE  F004         	goto	i2u397_41
  7724  0009F8  EF00  F005         	goto	i2u397_40
  7725  0009FC                     i2u397_41:
  7726  0009FC  EF01  F005         	goto	i2l3123
  7727  000A00                     i2u397_40:
  7728  000A00  8001               	bsf	i2___fladd@b^0,0,c
  7729  000A02                     i2l3123:
  7730  000A02  A010               	btfss	i2___fladd@grs^0,0,c
  7731  000A04  EF06  F005         	goto	i2u398_41
  7732  000A08  EF08  F005         	goto	i2u398_40
  7733  000A0C                     i2u398_41:
  7734  000A0C  EF0C  F005         	goto	i2l3127
  7735  000A10                     i2u398_40:
  7736  000A10  80D8               	bsf	status,0,c
  7737  000A12  3610               	rlcf	i2___fladd@grs^0,f,c
  7738  000A14  EF0E  F005         	goto	i2l3129
  7739  000A18                     i2l3127:
  7740  000A18  90D8               	bcf	status,0,c
  7741  000A1A  3610               	rlcf	i2___fladd@grs^0,f,c
  7742  000A1C                     i2l3129:
  7743  000A1C  500F               	movf	i2___fladd@bexp^0,w,c
  7744  000A1E  B4D8               	btfsc	status,2,c
  7745  000A20  EF14  F005         	goto	i2u399_41
  7746  000A24  EF16  F005         	goto	i2u399_40
  7747  000A28                     i2u399_41:
  7748  000A28  EF17  F005         	goto	i2l3133
  7749  000A2C                     i2u399_40:
  7750  000A2C  060F               	decf	i2___fladd@bexp^0,f,c
  7751  000A2E                     i2l3133:
  7752  000A2E  AE03               	btfss	(i2___fladd@b+2)^0,7,c
  7753  000A30  EF1C  F005         	goto	i2u400_41
  7754  000A34  EF1E  F005         	goto	i2u400_40
  7755  000A38                     i2u400_41:
  7756  000A38  EFF4  F004         	goto	i2l3117
  7757  000A3C                     i2u400_40:
  7758  000A3C                     i2l3135:
  7759  000A3C  0E00               	movlw	0
  7760  000A3E  6E0E               	movwf	i2___fladd@aexp^0,c
  7761  000A40  AE10               	btfss	i2___fladd@grs^0,7,c
  7762  000A42  EF25  F005         	goto	i2u401_41
  7763  000A46  EF27  F005         	goto	i2u401_40
  7764  000A4A                     i2u401_41:
  7765  000A4A  EF3F  F005         	goto	i2l756
  7766  000A4E                     i2u401_40:
  7767  000A4E  C010  F009         	movff	i2___fladd@grs,??i2___fladd
  7768  000A52  0E7F               	movlw	127
  7769  000A54  1609               	andwf	??i2___fladd^0,f,c
  7770  000A56  B4D8               	btfsc	status,2,c
  7771  000A58  EF30  F005         	goto	i2u402_41
  7772  000A5C  EF32  F005         	goto	i2u402_40
  7773  000A60                     i2u402_41:
  7774  000A60  EF36  F005         	goto	i2l757
  7775  000A64                     i2u402_40:
  7776  000A64                     i2l3141:
  7777  000A64  0E01               	movlw	1
  7778  000A66  6E0E               	movwf	i2___fladd@aexp^0,c
  7779  000A68  EF3F  F005         	goto	i2l756
  7780  000A6C                     i2l757:
  7781  000A6C  A001               	btfss	i2___fladd@b^0,0,c
  7782  000A6E  EF3B  F005         	goto	i2u403_41
  7783  000A72  EF3D  F005         	goto	i2u403_40
  7784  000A76                     i2u403_41:
  7785  000A76  EF3F  F005         	goto	i2l756
  7786  000A7A                     i2u403_40:
  7787  000A7A  EF32  F005         	goto	i2l3141
  7788  000A7E                     i2l756:
  7789  000A7E  500E               	movf	i2___fladd@aexp^0,w,c
  7790  000A80  B4D8               	btfsc	status,2,c
  7791  000A82  EF45  F005         	goto	i2u404_41
  7792  000A86  EF47  F005         	goto	i2u404_40
  7793  000A8A                     i2u404_41:
  7794  000A8A  EF72  F005         	goto	i2l3153
  7795  000A8E                     i2u404_40:
  7796  000A8E  0E01               	movlw	1
  7797  000A90  2601               	addwf	i2___fladd@b^0,f,c
  7798  000A92  0E00               	movlw	0
  7799  000A94  2202               	addwfc	(i2___fladd@b+1)^0,f,c
  7800  000A96  2203               	addwfc	(i2___fladd@b+2)^0,f,c
  7801  000A98  2204               	addwfc	(i2___fladd@b+3)^0,f,c
  7802  000A9A  A004               	btfss	(i2___fladd@b+3)^0,0,c
  7803  000A9C  EF52  F005         	goto	i2u405_41
  7804  000AA0  EF54  F005         	goto	i2u405_40
  7805  000AA4                     i2u405_41:
  7806  000AA4  EF72  F005         	goto	i2l3153
  7807  000AA8                     i2u405_40:
  7808  000AA8  C001  F009         	movff	i2___fladd@b,??i2___fladd
  7809  000AAC  C002  F00A         	movff	i2___fladd@b+1,??i2___fladd+1
  7810  000AB0  C003  F00B         	movff	i2___fladd@b+2,??i2___fladd+2
  7811  000AB4  C004  F00C         	movff	i2___fladd@b+3,??i2___fladd+3
  7812  000AB8  340C               	rlcf	(??i2___fladd+3)^0,w,c
  7813  000ABA  320C               	rrcf	(??i2___fladd+3)^0,f,c
  7814  000ABC  320B               	rrcf	(??i2___fladd+2)^0,f,c
  7815  000ABE  320A               	rrcf	(??i2___fladd+1)^0,f,c
  7816  000AC0  3209               	rrcf	??i2___fladd^0,f,c
  7817  000AC2  C009  F001         	movff	??i2___fladd,i2___fladd@b
  7818  000AC6  C00A  F002         	movff	??i2___fladd+1,i2___fladd@b+1
  7819  000ACA  C00B  F003         	movff	??i2___fladd+2,i2___fladd@b+2
  7820  000ACE  C00C  F004         	movff	??i2___fladd+3,i2___fladd@b+3
  7821  000AD2  280F               	incf	i2___fladd@bexp^0,w,c
  7822  000AD4  B4D8               	btfsc	status,2,c
  7823  000AD6  EF6F  F005         	goto	i2u406_41
  7824  000ADA  EF71  F005         	goto	i2u406_40
  7825  000ADE                     i2u406_41:
  7826  000ADE  EF72  F005         	goto	i2l3153
  7827  000AE2                     i2u406_40:
  7828  000AE2  2A0F               	incf	i2___fladd@bexp^0,f,c
  7829  000AE4                     i2l3153:
  7830  000AE4  280F               	incf	i2___fladd@bexp^0,w,c
  7831  000AE6  B4D8               	btfsc	status,2,c
  7832  000AE8  EF78  F005         	goto	i2u407_41
  7833  000AEC  EF7A  F005         	goto	i2u407_40
  7834  000AF0                     i2u407_41:
  7835  000AF0  EF82  F005         	goto	i2l3157
  7836  000AF4                     i2u407_40:
  7837  000AF4  500F               	movf	i2___fladd@bexp^0,w,c
  7838  000AF6  A4D8               	btfss	status,2,c
  7839  000AF8  EF80  F005         	goto	i2u408_41
  7840  000AFC  EF82  F005         	goto	i2u408_40
  7841  000B00                     i2u408_41:
  7842  000B00  EF94  F005         	goto	i2l3161
  7843  000B04                     i2u408_40:
  7844  000B04                     i2l3157:
  7845  000B04  0E00               	movlw	0
  7846  000B06  6E01               	movwf	i2___fladd@b^0,c
  7847  000B08  0E00               	movlw	0
  7848  000B0A  6E02               	movwf	(i2___fladd@b+1)^0,c
  7849  000B0C  0E00               	movlw	0
  7850  000B0E  6E03               	movwf	(i2___fladd@b+2)^0,c
  7851  000B10  0E00               	movlw	0
  7852  000B12  6E04               	movwf	(i2___fladd@b+3)^0,c
  7853  000B14  500F               	movf	i2___fladd@bexp^0,w,c
  7854  000B16  A4D8               	btfss	status,2,c
  7855  000B18  EF90  F005         	goto	i2u409_41
  7856  000B1C  EF92  F005         	goto	i2u409_40
  7857  000B20                     i2u409_41:
  7858  000B20  EF94  F005         	goto	i2l3161
  7859  000B24                     i2u409_40:
  7860  000B24  0E00               	movlw	0
  7861  000B26  6E0D               	movwf	i2___fladd@signs^0,c
  7862  000B28                     i2l3161:
  7863  000B28  A00F               	btfss	i2___fladd@bexp^0,0,c
  7864  000B2A  EF99  F005         	goto	i2u410_41
  7865  000B2E  EF9B  F005         	goto	i2u410_40
  7866  000B32                     i2u410_41:
  7867  000B32  EF9E  F005         	goto	i2l3165
  7868  000B36                     i2u410_40:
  7869  000B36  8E03               	bsf	(i2___fladd@b+2)^0,7,c
  7870  000B38  EF9F  F005         	goto	i2l3167
  7871  000B3C                     i2l3165:
  7872  000B3C  9E03               	bcf	(i2___fladd@b+2)^0,7,c
  7873  000B3E                     i2l3167:
  7874  000B3E  90D8               	bcf	status,0,c
  7875  000B40  300F               	rrcf	i2___fladd@bexp^0,w,c
  7876  000B42  6E04               	movwf	(i2___fladd@b+3)^0,c
  7877  000B44  AE0D               	btfss	i2___fladd@signs^0,7,c
  7878  000B46  EFA7  F005         	goto	i2u411_41
  7879  000B4A  EFA9  F005         	goto	i2u411_40
  7880  000B4E                     i2u411_41:
  7881  000B4E  EFAA  F005         	goto	i2l3173
  7882  000B52                     i2u411_40:
  7883  000B52  8E04               	bsf	(i2___fladd@b+3)^0,7,c
  7884  000B54                     i2l3173:
  7885  000B54  C001  F001         	movff	i2___fladd@b,?i2___fladd
  7886  000B58  C002  F002         	movff	i2___fladd@b+1,?i2___fladd+1
  7887  000B5C  C003  F003         	movff	i2___fladd@b+2,?i2___fladd+2
  7888  000B60  C004  F004         	movff	i2___fladd@b+3,?i2___fladd+3
  7889  000B64                     i2l739:
  7890  000B64  0012               	return		;funcret
  7891  000B66                     __end_ofi2___fladd:
  7892                           	callstack 0
  7893  0000                     
  7894                           	psect	rparam
  7895  0000                     
  7896                           	psect	temp
  7897  000057                     btemp:
  7898                           	callstack 0
  7899  000057                     	ds	1
  7900  0000                     int$flags	set	btemp
  7901  0000                     wtemp8	set	btemp+1
  7902  0000                     ttemp5	set	btemp+1
  7903  0000                     ttemp6	set	btemp+4
  7904  0000                     ttemp7	set	btemp+8
  7905                           
  7906                           	psect	idloc
  7907                           
  7908                           ;Config register IDLOC0 @ 0x200000
  7909                           ;	unspecified, using default values
  7910  200000                     	org	2097152
  7911  200000  FF                 	db	255
  7912                           
  7913                           ;Config register IDLOC1 @ 0x200001
  7914                           ;	unspecified, using default values
  7915  200001                     	org	2097153
  7916  200001  FF                 	db	255
  7917                           
  7918                           ;Config register IDLOC2 @ 0x200002
  7919                           ;	unspecified, using default values
  7920  200002                     	org	2097154
  7921  200002  FF                 	db	255
  7922                           
  7923                           ;Config register IDLOC3 @ 0x200003
  7924                           ;	unspecified, using default values
  7925  200003                     	org	2097155
  7926  200003  FF                 	db	255
  7927                           
  7928                           ;Config register IDLOC4 @ 0x200004
  7929                           ;	unspecified, using default values
  7930  200004                     	org	2097156
  7931  200004  FF                 	db	255
  7932                           
  7933                           ;Config register IDLOC5 @ 0x200005
  7934                           ;	unspecified, using default values
  7935  200005                     	org	2097157
  7936  200005  FF                 	db	255
  7937                           
  7938                           ;Config register IDLOC6 @ 0x200006
  7939                           ;	unspecified, using default values
  7940  200006                     	org	2097158
  7941  200006  FF                 	db	255
  7942                           
  7943                           ;Config register IDLOC7 @ 0x200007
  7944                           ;	unspecified, using default values
  7945  200007                     	org	2097159
  7946  200007  FF                 	db	255
  7947                           
  7948                           	psect	config
  7949                           
  7950                           ;Config register CONFIG1L @ 0x300000
  7951                           ;	PLL Prescaler Selection bits
  7952                           ;	PLLDIV = 1, No prescale (4 MHz oscillator input drives PLL directly)
  7953                           ;	System Clock Postscaler Selection bits
  7954                           ;	CPUDIV = 0x0, unprogrammed default
  7955                           ;	USB Clock Selection bit (used in Full-Speed USB mode only; UCFG:FSEN = 1)
  7956                           ;	USBDIV = 0x0, unprogrammed default
  7957  300000                     	org	3145728
  7958  300000  00                 	db	0
  7959                           
  7960                           ;Config register CONFIG1H @ 0x300001
  7961                           ;	Oscillator Selection bits
  7962                           ;	FOSC = XT_XT, XT oscillator (XT)
  7963                           ;	Fail-Safe Clock Monitor Enable bit
  7964                           ;	FCMEN = 0x0, unprogrammed default
  7965                           ;	Internal/External Oscillator Switchover bit
  7966                           ;	IESO = 0x0, unprogrammed default
  7967  300001                     	org	3145729
  7968  300001  00                 	db	0
  7969                           
  7970                           ;Config register CONFIG2L @ 0x300002
  7971                           ;	unspecified, using default values
  7972                           ;	Power-up Timer Enable bit
  7973                           ;	PWRT = 0x1, unprogrammed default
  7974                           ;	Brown-out Reset Enable bits
  7975                           ;	BOR = 0x3, unprogrammed default
  7976                           ;	Brown-out Reset Voltage bits
  7977                           ;	BORV = 0x3, unprogrammed default
  7978                           ;	USB Voltage Regulator Enable bit
  7979                           ;	VREGEN = 0x0, unprogrammed default
  7980  300002                     	org	3145730
  7981  300002  1F                 	db	31
  7982                           
  7983                           ;Config register CONFIG2H @ 0x300003
  7984                           ;	unspecified, using default values
  7985                           ;	Watchdog Timer Enable bit
  7986                           ;	WDT = 0x1, unprogrammed default
  7987                           ;	Watchdog Timer Postscale Select bits
  7988                           ;	WDTPS = 0xF, unprogrammed default
  7989  300003                     	org	3145731
  7990  300003  1F                 	db	31
  7991                           
  7992                           ; Padding undefined space
  7993  300004                     	org	3145732
  7994  300004  FF                 	db	255
  7995                           
  7996                           ;Config register CONFIG3H @ 0x300005
  7997                           ;	unspecified, using default values
  7998                           ;	CCP2 MUX bit
  7999                           ;	CCP2MX = 0x1, unprogrammed default
  8000                           ;	PORTB A/D Enable bit
  8001                           ;	PBADEN = 0x1, unprogrammed default
  8002                           ;	Low-Power Timer 1 Oscillator Enable bit
  8003                           ;	LPT1OSC = 0x0, unprogrammed default
  8004                           ;	MCLR Pin Enable bit
  8005                           ;	MCLRE = 0x1, unprogrammed default
  8006  300005                     	org	3145733
  8007  300005  83                 	db	131
  8008                           
  8009                           ;Config register CONFIG4L @ 0x300006
  8010                           ;	unspecified, using default values
  8011                           ;	Stack Full/Underflow Reset Enable bit
  8012                           ;	STVREN = 0x1, unprogrammed default
  8013                           ;	Single-Supply ICSP Enable bit
  8014                           ;	LVP = 0x1, unprogrammed default
  8015                           ;	Dedicated In-Circuit Debug/Programming Port (ICPORT) Enable bit
  8016                           ;	ICPRT = 0x0, unprogrammed default
  8017                           ;	Extended Instruction Set Enable bit
  8018                           ;	XINST = 0x0, unprogrammed default
  8019                           ;	Background Debugger Enable bit
  8020                           ;	DEBUG = 0x1, unprogrammed default
  8021  300006                     	org	3145734
  8022  300006  85                 	db	133
  8023                           
  8024                           ; Padding undefined space
  8025  300007                     	org	3145735
  8026  300007  FF                 	db	255
  8027                           
  8028                           ;Config register CONFIG5L @ 0x300008
  8029                           ;	unspecified, using default values
  8030                           ;	Code Protection bit
  8031                           ;	CP0 = 0x1, unprogrammed default
  8032                           ;	Code Protection bit
  8033                           ;	CP1 = 0x1, unprogrammed default
  8034                           ;	Code Protection bit
  8035                           ;	CP2 = 0x1, unprogrammed default
  8036                           ;	Code Protection bit
  8037                           ;	CP3 = 0x1, unprogrammed default
  8038  300008                     	org	3145736
  8039  300008  0F                 	db	15
  8040                           
  8041                           ;Config register CONFIG5H @ 0x300009
  8042                           ;	unspecified, using default values
  8043                           ;	Boot Block Code Protection bit
  8044                           ;	CPB = 0x1, unprogrammed default
  8045                           ;	Data EEPROM Code Protection bit
  8046                           ;	CPD = 0x1, unprogrammed default
  8047  300009                     	org	3145737
  8048  300009  C0                 	db	192
  8049                           
  8050                           ;Config register CONFIG6L @ 0x30000A
  8051                           ;	unspecified, using default values
  8052                           ;	Write Protection bit
  8053                           ;	WRT0 = 0x1, unprogrammed default
  8054                           ;	Write Protection bit
  8055                           ;	WRT1 = 0x1, unprogrammed default
  8056                           ;	Write Protection bit
  8057                           ;	WRT2 = 0x1, unprogrammed default
  8058                           ;	Write Protection bit
  8059                           ;	WRT3 = 0x1, unprogrammed default
  8060  30000A                     	org	3145738
  8061  30000A  0F                 	db	15
  8062                           
  8063                           ;Config register CONFIG6H @ 0x30000B
  8064                           ;	unspecified, using default values
  8065                           ;	Configuration Register Write Protection bit
  8066                           ;	WRTC = 0x1, unprogrammed default
  8067                           ;	Boot Block Write Protection bit
  8068                           ;	WRTB = 0x1, unprogrammed default
  8069                           ;	Data EEPROM Write Protection bit
  8070                           ;	WRTD = 0x1, unprogrammed default
  8071  30000B                     	org	3145739
  8072  30000B  E0                 	db	224
  8073                           
  8074                           ;Config register CONFIG7L @ 0x30000C
  8075                           ;	unspecified, using default values
  8076                           ;	Table Read Protection bit
  8077                           ;	EBTR0 = 0x1, unprogrammed default
  8078                           ;	Table Read Protection bit
  8079                           ;	EBTR1 = 0x1, unprogrammed default
  8080                           ;	Table Read Protection bit
  8081                           ;	EBTR2 = 0x1, unprogrammed default
  8082                           ;	Table Read Protection bit
  8083                           ;	EBTR3 = 0x1, unprogrammed default
  8084  30000C                     	org	3145740
  8085  30000C  0F                 	db	15
  8086                           
  8087                           ;Config register CONFIG7H @ 0x30000D
  8088                           ;	unspecified, using default values
  8089                           ;	Boot Block Table Read Protection bit
  8090                           ;	EBTRB = 0x1, unprogrammed default
  8091  30000D                     	org	3145741
  8092  30000D  40                 	db	64
  8093                           tosu	equ	0xFFF
  8094                           tosh	equ	0xFFE
  8095                           tosl	equ	0xFFD
  8096                           stkptr	equ	0xFFC
  8097                           pclatu	equ	0xFFB
  8098                           pclath	equ	0xFFA
  8099                           pcl	equ	0xFF9
  8100                           tblptru	equ	0xFF8
  8101                           tblptrh	equ	0xFF7
  8102                           tblptrl	equ	0xFF6
  8103                           tablat	equ	0xFF5
  8104                           prodh	equ	0xFF4
  8105                           prodl	equ	0xFF3
  8106                           indf0	equ	0xFEF
  8107                           postinc0	equ	0xFEE
  8108                           postdec0	equ	0xFED
  8109                           preinc0	equ	0xFEC
  8110                           plusw0	equ	0xFEB
  8111                           fsr0h	equ	0xFEA
  8112                           fsr0l	equ	0xFE9
  8113                           wreg	equ	0xFE8
  8114                           indf1	equ	0xFE7
  8115                           postinc1	equ	0xFE6
  8116                           postdec1	equ	0xFE5
  8117                           preinc1	equ	0xFE4
  8118                           plusw1	equ	0xFE3
  8119                           fsr1h	equ	0xFE2
  8120                           fsr1l	equ	0xFE1
  8121                           bsr	equ	0xFE0
  8122                           indf2	equ	0xFDF
  8123                           postinc2	equ	0xFDE
  8124                           postdec2	equ	0xFDD
  8125                           preinc2	equ	0xFDC
  8126                           plusw2	equ	0xFDB
  8127                           fsr2h	equ	0xFDA
  8128                           fsr2l	equ	0xFD9
  8129                           status	equ	0xFD8

Data Sizes:
    Strings     0
    Constant    0
    Data        1
    BSS         14
    Persistent  0
    Stack       0

Auto Spaces:
    Space          Size  Autos    Used
    COMRAM           94     86      86
    BANK0           160     89     104
    BANK1           256      0       0
    BANK2           256      0       0
    BANK3           256      0       0
    BANK4           256      0       0
    BANK5           256      0       0
    BANK6           256      0       0
    BANK7           256      0       0

Pointer List with Targets:

    None.

Critical Paths under _main in COMRAM

    None.

Critical Paths under _ISR_RB in COMRAM

    None.

Critical Paths under _ISR_EX0_1 in COMRAM

    _ISR_EX0_1->i2_Temp
    i2_Temp->i2___fldiv
    i2___flmul->i2___fladd
    i2___fldiv->i2___flmul

Critical Paths under _main in BANK0

    _main->_Temp
    _Temp->___fldiv
    ___flmul->___fladd
    ___fldiv->___flmul

Critical Paths under _ISR_RB in BANK0

    None.

Critical Paths under _ISR_EX0_1 in BANK0

    None.

Critical Paths under _main in BANK1

    None.

Critical Paths under _ISR_RB in BANK1

    None.

Critical Paths under _ISR_EX0_1 in BANK1

    None.

Critical Paths under _main in BANK2

    None.

Critical Paths under _ISR_RB in BANK2

    None.

Critical Paths under _ISR_EX0_1 in BANK2

    None.

Critical Paths under _main in BANK3

    None.

Critical Paths under _ISR_RB in BANK3

    None.

Critical Paths under _ISR_EX0_1 in BANK3

    None.

Critical Paths under _main in BANK4

    None.

Critical Paths under _ISR_RB in BANK4

    None.

Critical Paths under _ISR_EX0_1 in BANK4

    None.

Critical Paths under _main in BANK5

    None.

Critical Paths under _ISR_RB in BANK5

    None.

Critical Paths under _ISR_EX0_1 in BANK5

    None.

Critical Paths under _main in BANK6

    None.

Critical Paths under _ISR_RB in BANK6

    None.

Critical Paths under _ISR_EX0_1 in BANK6

    None.

Critical Paths under _main in BANK7

    None.

Critical Paths under _ISR_RB in BANK7

    None.

Critical Paths under _ISR_EX0_1 in BANK7

    None.

Call Graph Tables:

 ---------------------------------------------------------------------------------
 (Depth) Function   	        Calls       Base Space   Used Autos Params    Refs
 ---------------------------------------------------------------------------------
 (0) _main                                                 8     8      0    7633
                                             81 BANK0      8     8      0
            _Configuracion_Registros
                               _Temp
                                _dec
                                _und
 ---------------------------------------------------------------------------------
 (1) _und                                                  2     0      2     624
                                              3 BANK0      2     0      2
 ---------------------------------------------------------------------------------
 (1) _dec                                                  2     0      2     472
                                              3 BANK0      2     0      2
 ---------------------------------------------------------------------------------
 (1) _Temp                                                12    12      0    6311
                                             69 BANK0     12    12      0
                            ___fladd
                            ___fldiv
                             ___flge
                            ___flmul
                           ___xxtofl
 ---------------------------------------------------------------------------------
 (2) ___xxtofl                                            14    10      4     398
                                              3 BANK0     14    10      4
 ---------------------------------------------------------------------------------
 (2) ___flmul                                             25    17      8    1744
                                             19 BANK0     25    17      8
                            ___fladd (ARG)
 ---------------------------------------------------------------------------------
 (2) ___flge                                              12     4      8     334
                                              3 BANK0     12     4      8
 ---------------------------------------------------------------------------------
 (2) ___fldiv                                             25    17      8    1399
                                             44 BANK0     25    17      8
                            ___fladd (ARG)
                            ___flmul (ARG)
 ---------------------------------------------------------------------------------
 (2) ___fladd                                             16     8      8    2388
                                              3 BANK0     16     8      8
 ---------------------------------------------------------------------------------
 (1) _Configuracion_Registros                              0     0      0       0
 ---------------------------------------------------------------------------------
 Estimated maximum stack depth 2
 ---------------------------------------------------------------------------------
 (Depth) Function   	        Calls       Base Space   Used Autos Params    Refs
 ---------------------------------------------------------------------------------
 (3) _ISR_RB                                               3     3      0       0
                                              0 BANK0      3     3      0
 ---------------------------------------------------------------------------------
 Estimated maximum stack depth 3
 ---------------------------------------------------------------------------------
 (Depth) Function   	        Calls       Base Space   Used Autos Params    Refs
 ---------------------------------------------------------------------------------
 (4) _ISR_EX0_1                                            8     8      0    6037
                                             78 COMRAM     8     8      0
                             i2_Temp
                              i2_dec
                              i2_und
 ---------------------------------------------------------------------------------
 (5) i2_und                                                2     0      2     272
                                              0 COMRAM     2     0      2
 ---------------------------------------------------------------------------------
 (5) i2_dec                                                2     0      2     272
                                              0 COMRAM     2     0      2
 ---------------------------------------------------------------------------------
 (5) i2_Temp                                              12    12      0    5357
                                             66 COMRAM    12    12      0
                          i2___fladd
                          i2___fldiv
                           i2___flge
                          i2___flmul
                         i2___xxtofl
 ---------------------------------------------------------------------------------
 (6) i2___xxtofl                                          14    10      4     348
                                              0 COMRAM    14    10      4
 ---------------------------------------------------------------------------------
 (6) i2___flmul                                           25    17      8    1518
                                             16 COMRAM    25    17      8
                          i2___fladd (ARG)
 ---------------------------------------------------------------------------------
 (6) i2___flge                                            12     4      8     234
                                              0 COMRAM    12     4      8
 ---------------------------------------------------------------------------------
 (6) i2___fldiv                                           25    17      8    1173
                                             41 COMRAM    25    17      8
                          i2___fladd (ARG)
                          i2___flmul (ARG)
 ---------------------------------------------------------------------------------
 (6) i2___fladd                                           16     8      8    2036
                                              0 COMRAM    16     8      8
 ---------------------------------------------------------------------------------
 Estimated maximum stack depth 6
 ---------------------------------------------------------------------------------

 Call Graph Graphs:

 _main (ROOT)
   _Configuracion_Registros
   _Temp
     ___fladd
     ___fldiv
       ___fladd (ARG)
       ___flmul (ARG)
         ___fladd (ARG)
     ___flge
     ___flmul
       ___fladd (ARG)
     ___xxtofl
   _dec
   _und

 _ISR_RB (ROOT)

 _ISR_EX0_1 (ROOT)
   i2_Temp
     i2___fladd
     i2___fldiv
       i2___fladd (ARG)
       i2___flmul (ARG)
         i2___fladd (ARG)
     i2___flge
     i2___flmul
       i2___fladd (ARG)
     i2___xxtofl
   i2_dec
   i2_und

 Address spaces:
Name               Size   Autos  Total    Cost      Usage
BIGRAM             7FF      0       0      21        0.0%
EEDATA             100      0       0       0        0.0%
BITBANK7           100      0       0      18        0.0%
BANK7              100      0       0      19        0.0%
BITBANK6           100      0       0      16        0.0%
BANK6              100      0       0      17        0.0%
BITBANK5           100      0       0      14        0.0%
BANK5              100      0       0      15        0.0%
BITBANK4           100      0       0      12        0.0%
BANK4              100      0       0      13        0.0%
BITBANK3           100      0       0      10        0.0%
BANK3              100      0       0      11        0.0%
BITBANK2           100      0       0       8        0.0%
BANK2              100      0       0       9        0.0%
BITBANK1           100      0       0       6        0.0%
BANK1              100      0       0       7        0.0%
BITBANK0            A0      0       0       4        0.0%
BANK0               A0     59      68       5       65.0%
BITCOMRAM           5E      0       0       0        0.0%
COMRAM              5E     56      56       1       91.5%
BITSFR               0      0       0     200        0.0%
SFR                  0      0       0     200        0.0%
STACK                0      0       0       2        0.0%
NULL                 0      0       0       0        0.0%
ABS                  0      0      BE      20        0.0%
DATA                 0      0      BE       3        0.0%
CODE                 0      0       0       0        0.0%


Microchip Technology PIC18 Macro Assembler V2.20 build 20200408173844 
Symbol Table                                                                                   Sun Sep 20 18:44:50 2020

                    ___fldiv@aexp 00A4                      ___fldiv@bexp 00A3  
                               _x 00BF                                 _y 00BD  
                    ___fldiv@sign 009C                                l83 1B30  
                              l92 1CF4                                l94 1C8E  
                              bsr 000FE0                               l102 2B7A  
                             l110 281E                               l105 2810  
                             l107 280C                               l132 233A  
                             l126 233A                               l154 247A  
                             l148 247A                               l472 2A42  
                             l730 03D4                               l731 03C2  
                             l467 29FC                               l732 0388  
                             l820 0F90                               l823 0E22  
                             l816 0C2C                               l833 0F52  
                             l825 0E9A                               l826 0E88  
                             l747 04EE                               l739 06A4  
                             l756 05BE                               l860 1EB2  
                             l757 05AC                               l871 1E4A  
                             l784 1756                               l864 1DEE  
                             l857 1D56                               l786 15B6  
                             l795 15FC                               l797 1674  
                             l789 157A                               l798 1662  
                     i2___fladd@a 0005                       i2___fladd@b 0001  
                             _dec 233C                       i2___fldiv@a 002E  
                     i2___fldiv@b 002A                               _opc 00C7  
                             _num 00C5                               _und 21FC  
                      i2___xxtofl 1EB4                               wreg 000FE8  
                     i2___flmul@a 0015                       i2___flmul@b 0011  
                    ___flmul@aexp 0084                      ___flmul@bexp 0085  
                    ___flmul@sign 007F                      ___flmul@temp 008A  
                    ___flmul@prod 0086                              ?_dec 0063  
                            l2501 0380                              l2421 0202  
                            l2511 03B6                              l2503 0396  
                            l2423 0212                              l2431 023C  
                            l2415 01E4                              l2601 0668  
                            l2521 0406                              l2513 03C0  
                            l2505 03A2                              l2441 026C  
                            l2433 024C                              l2425 0222  
                            l2417 01F2                              l2611 0692  
                            l2603 0676                              l2531 0442  
                            l2523 0416                              l2515 03E2  
                            l2507 03A6                              l2451 02AC  
                            l2443 027A                              l2435 0252  
                            l2427 0232                              l2419 0200  
                            l3501 2B5C                              l2613 0694  
                            l2605 067C                              l2541 0488  
                            l2533 0450                              l2525 0424  
                            l2517 03F2                              l2509 03B4  
                            l2461 02E6                              l2453 02AE  
                            l2445 027C                              l2437 0264  
                            l2429 0234                              l2701 15C6  
                            l2621 13D8                              l3511 2B66  
                            l3503 2B5E                              l2607 067E  
                            l2551 0504                              l2543 04BC  
                            l2535 0452                              l2527 0432  
                            l2471 02FA                              l2463 02EA  
                            l2447 028C                              l2455 02B6  
                            l2439 0266                              l2703 15DC  
                            l2711 160C                              l2631 140C  
                            l2623 13DA                              l3521 2B70  
                            l3513 2B68                              l3505 2B60  
                            l2609 0684                              l2561 0540  
                            l2553 0514                              l2545 04BE  
                            l2537 045C                              l2529 043E  
                            l2481 030E                              l2473 02FE  
                            l2465 02EE                              l2457 02C6  
                            l2449 029C                              l2713 161A  
                            l2705 15E2                              l2641 143E  
                            l2625 13EA                              l2633 1414  
                            l2617 13BC                              l2801 0C8C  
                            l3601 228E                              l3523 2B72  
                            l3515 2B6A                              l3507 2B62  
                            l2571 056C                              l2563 0542  
                            l2547 04CE                              l2539 0462  
                            l2491 0322                              l2483 0312  
                            l2475 0302                              l2467 02F2  
                            l2459 02D8                              l2723 1684  
                            l2731 16CC                              l2715 161E  
                            l2707 15EC                              l2651 1472  
                            l2643 1440                              l2635 1424  
                            l2627 13FA                              l2619 13CA  
                            l2811 0CD6                              l2803 0C98  
                            l3531 26F8                              l3611 22DA  
                            l3603 229A                              l3525 2B74  
                            l3517 2B6C                              l3509 2B64  
                            l2581 05A4                              l2565 0550  
                            l2557 0528                              l2573 056E  
                            l2549 04DE                              l2485 0316  
                            l2477 0306                              l2469 02F6  
                            l2493 0326                              l2741 1736  
                            l2733 16E6                              l2725 1690  
                            l2717 162C                              l2709 15FA  
                            l2661 14B8                              l2645 1450  
                            l2653 147A                              l2637 142A  
                            l2629 140A                              l2901 2A3A  
                            l2821 0D28                              l2813 0CE2  
                            l2805 0CB0                              l3541 2804  
                            l3533 2700                              l3621 232E  
                            l3613 22EE                              l3605 22AE  
                            l3527 2B76                              l3519 2B6E  
                            l2591 0622                              l2567 0558  
                            l2559 0532                              l2575 057C  
                            l2495 032A                              l2487 031A  
                            l2479 030A                              l2743 1744  
                            l2735 16FC                              l2727 169E  
                            l2719 165A                              l2671 14E0  
                            l2663 14BC                              l2655 148A  
                            l2647 1460                              l2639 1430  
                            l2903 2A40                              l2831 0DA6  
                            l2823 0D38                              l2815 0CF2  
                            l2807 0CBC                              l2911 1D20  
                            l3535 2712                              l3551 237A  
                            l3543 233C                              l3615 22FA  
                            l3607 22BA                              l3529 2B78  
                            l2585 05CE                              l2593 0624  
                            l2577 0580                              l2569 055C  
                            l2497 0354                              l2489 031E  
                            l2745 174A                              l2737 1716  
                            l2729 16C8                              l2681 152E  
                            l2657 14A0                              l2649 1470  
                            l2841 0E20                              l2833 0DDC  
                            l2825 0D54                              l2817 0CFE  
                            l2809 0CC8                              l2761 0B84  
                            l2921 1D98                              l2913 1D66  
                            l3537 274E                              l3561 23CE  
                            l3553 238E                              l3545 2350  
                            l3617 230E                              l3609 22CE  
                            l3801 1CD0                              l3721 1B1C  
                            l3491 2B48                              l2595 0634  
                            l2587 05DA                              l2579 058E  
                            l2499 0370                              l2747 174C  
                            l2739 1732                              l2691 1578  
                            l2683 153E                              l2675 14F4  
                            l2659 14B0                              l2667 14D0  
                            l2851 0E80                              l2843 0E32  
                            l2835 0DEA                              l2827 0D60  
                            l2819 0D0E                              l2771 0BCA  
                            l2763 0B94                              l2755 0B66  
                            l2931 1E20                              l2923 1DA4  
                            l2915 1D7C                              l2907 1D00  
                            l3539 27CE                              l3571 241A  
                            l3563 23DA                              l3555 239A  
                            l3547 235C                              l3619 231A  
                            l3723 1B20                              l3715 1AF2  
                            l3493 2B54                              l2597 0644  
                            l2589 05E8                              l2693 1584  
                            l2685 1546                              l2677 150E  
                            l2669 14E0                              l2861 0EEE  
                            l2845 0E40                              l2837 0E08  
                            l2829 0D7C                              l2781 0BF6  
                            l2773 0BD0                              l2765 0BA4  
                            l2757 0B74                              l2941 1E5E  
                            l2933 1E2C                              l2925 1DD6  
                            l2909 1D12                              l3581 246E  
                            l3573 242E                              l3565 23EE  
                            l3557 23AE                              l3549 236E  
                            l3733 1B4E                              l3725 1B24  
                            l3717 1AF6                              l3495 2B56  
                            l2599 0664                              l2695 15A2  
                            l2687 1556                              l2679 151E  
                            l2871 0F56                              l2855 0EAA  
                            l2863 0EF2                              l2847 0E44  
                            l2839 0E12                              l2791 0C4C  
                            l2783 0C06                              l2775 0BD6  
                            l2767 0BB4                              l2759 0B82  
                            l2943 1E82                              l2935 1E3A  
                            l2927 1DD8                              l2919 1D90  
                            l3575 243A                              l3567 23FA  
                            l3559 23BA                              l3591 223A  
                            l3583 21FC                              l3751 1BBA  
                            l3743 1B88                              l3735 1B5A  
                            l3727 1B28                              l3719 1B18  
                            l3497 2B58                              l2697 15A4  
                            l2689 156A                              l2881 0F80  
                            l2873 0F66                              l2865 0F0C  
                            l2857 0EB6                              l2849 0E52  
                            l2785 0C16                              l2777 0BE4  
                            l2769 0BBA                              l2945 1E92  
                            l2937 1E58                              l2929 1DE4  
                            l3577 244E                              l3569 240E  
                            l3593 224E                              l3585 2210  
                            l3761 1BDA                              l3745 1B94  
                            l3737 1B6E                              l3753 1BC6  
                            l3729 1B3C                              l3499 2B5A  
                            l2699 15B4                              l2891 29AC  
                            l2875 0F74                              l2867 0F20  
                            l2859 0EC4                              l2795 0C60  
                            l2787 0C1C                              l2779 0BE6  
                            l2947 1EA0                              l2939 1E5A  
                            l3579 245A                              l3595 225A  
                            l3587 221C                              l3763 1BE2  
                            l3747 1BAE                              l3739 1B76  
                            l2893 29BC                              l2885 293E  
                            l2877 0F76                              l2869 0F3A  
                            l2797 0C6C                              l2789 0C3C  
                            l2949 1EA2                              l3597 226E  
                            l3589 222E                              l3781 1C70  
                            l3765 1BFC                              l3773 1C1C  
                            l2895 29CA                              l2887 296E  
                            l2879 0F7C                              l2799 0C76  
                            l3599 227A                              l3791 1CB0  
                            l3783 1C7C                              l3775 1C44  
                            l3767 1C04                              l3759 1BCE  
                            l2897 29DC                              l2889 297E  
                            l3793 1CB8                              l3785 1C84  
                            l3777 1C4E                              l3769 1C12  
                            l2899 29EA                              l3955 1CE6  
                            l3787 1C9C                              l3779 1C60  
                            l3789 1CA4                              ?_und 0063  
                            u3000 058E                              u3001 058A  
                            u3010 05A4                              u3011 05A0  
                            u3100 0692                              u3020 05BA  
                            u3101 068E                              u3021 05B6  
                            u3030 05CE                              u3110 13D8  
                            u3031 05CA                              u3111 13D4  
                            u3040 05E8                              u3200 1578  
                            u3120 13EA                              u3041 05E4  
                            u3201 1574                              u3121 13E6  
                            u3050 0622                              u3210 15A2  
                            u3130 13FA                              u3051 061E  
                            u3211 159E                              u3131 13F6  
                            u3060 0634                              u3300 169E  
                            u3220 15C6                              u3140 143E  
                            u3061 0630                              u3301 169A  
                            u3221 15C2                              u3141 143A  
                            u3070 0644                              u3310 16E6  
                            u3230 15DC                              u3150 1450  
                            u3071 0640                              u3311 16E2  
                            u3231 15D8                              u3151 144C  
                            u3080 0664                              u3320 1716  
                            u3240 15FA                              u3160 1460  
                            u3400 0C3C                              u3081 0660  
                            u3321 1712                              u3241 15F6  
                            u3161 145C                              u3401 0C38  
                            u3090 0676                              u3330 1744  
                            u3250 161A                              u3170 14A0  
                            u3410 0C4C                              u3091 0672  
                            u3331 1740                              u3251 1616  
                            u3171 149C                              u3411 0C48  
                            u3260 162C                              u3180 14E0  
                            u3500 0F0C                              u3420 0DC6  
                            u3340 0B82                              u5100 1B84  
                            u3261 1628                              u3181 14DC  
                            u3501 0F08                              u3341 0B7E  
                            u5101 1B80                              u3270 165A  
                            u3190 1556                              u3510 0F3A  
                            u3430 0E20                              u3350 0B94  
                            u5110 1C12                              u3271 1656  
                            u3191 1552                              u3511 0F36  
                            u3431 0E1C                              u3351 0B90  
                            u5111 1C0E                              u2800 02E6  
                            u2720 0200                              u3280 1670  
                            u3520 0F74                              u3440 0E40  
                            u3360 0BA4                              u3600 1D7C  
                            u5120 1C60                              u2801 02E2  
                            u2721 01FC                              u3281 166C  
                            u3521 0F70                              u3441 0E3C  
                            u3425 0DBC                              u3361 0BA0  
                            u3601 1D78                              u5121 1C5C  
                            u2810 0354                              u2730 0212  
                            u3290 1684                              u3530 296E  
                            u3450 0E52                              u3370 0BE4  
                            u3610 1DD2                              u5130 1C9C  
                            u2811 0350                              u2731 020E  
                            u3291 1680                              u3531 296A  
                            u3451 0E4E                              u3371 0BE0  
                            u3611 1DCE                              u5131 1C98  
                            u2900 0432                              u2820 036C  
                            u2740 0222                              u3540 29AC  
                            u3460 0E80                              u3380 0BF6  
                            u3620 1E1C                              u2901 042E  
                            u2821 0366                              u2741 021E  
                            u3541 29A8                              u3461 0E7C  
                            u3381 0BF2                              u3621 1E18  
                            u2910 0450                              u2830 036E  
                            u2750 0264                              u3550 29CA  
                            u3470 0E96                              u3390 0C06  
                            u3630 1E3A                              u2911 044C  
                            u2751 0260                              u3551 29C6  
                            u3471 0E92                              u3391 0C02  
                            u3631 1E36                              u2920 0488  
                            u2840 0396                              u2760 027A  
                            u3560 29EA                              u3480 0EAA  
                            u3640 1E4A                              u5080 1B4A  
                            u2921 0484                              u2841 0392  
                            u2761 0276                              u3561 29E6  
                            u3481 0EA6                              u3641 1E46  
                            u5081 1B46                              u2930 04CE  
                            u2850 03B4                              u2770 028C  
                            u3570 2A3A                              u3490 0EC4  
                            u3650 1E58                              u5090 1B6E  
                            u2931 04CA                              u2851 03B0  
                            u2771 0288                              u3571 2A36  
                            u3491 0EC0                              u3651 1E54  
                            u5091 1B6A                              u2940 0504  
                            u2860 03D4                              u2780 029C  
                            u3660 1E92                              u3580 1D12  
                            u4700 23CE                              u2941 0500  
                            u2861 03D0                              u2781 0298  
                            u3661 1E8E                              u3581 1D0E  
                            u4701 23CA                              u2950 0514  
                            u2870 03E2                              u2790 02D8  
                            u3670 1EA0                              u3590 1D20  
                            u4710 23EE                              u2951 0510  
                            u2871 03DE                              u2791 02D4  
                            u3671 1E9C                              u3591 1D1C  
                            u4711 23EA                              u2960 0540  
                            u2880 03F2                              u4640 2804  
                            u4720 240E                              u4800 228E  
                            u2961 053C                              u2881 03EE  
                            u4641 2800                              u4721 240A  
                            u4801 228A                              u2970 0550  
                            u2890 0424                              u4650 281E  
                            u4730 242E                              u4810 22AE  
                            u2971 054C                              u2891 0420  
                            u4651 281A                              u4731 242A  
                            u4811 22AA                              u2980 056C  
                            u4740 244E                              u4660 2350  
                            u4820 22CE                              u2981 0568  
                            u4741 244A                              u4661 234C  
                            u4821 22CA                              u5437 1BA0  
                            u2990 057C                              u4750 246E  
                            u4670 236E                              u4830 22EE  
                            u2991 0578                              u4751 246A  
                            u4671 236A                              u4831 22EA  
                            u5447 1BEE                              u4680 238E  
                            u4840 230E                              u4760 2210  
                            u4681 238A                              u4841 230A  
                            u4761 220C                              u4690 23AE  
                            u4850 232E                              u4770 222E  
                            u4691 23AA                              u4851 232A  
                            u4771 222A                              u4780 224E  
                            u4781 224A                              u4790 226E  
                            u4791 226A                              _Nact 00C1  
                    i2___flge@ff1 0001                      i2___flge@ff2 0005  
                            _Nant 00C3                              _Temp 26F8  
                            dec@y 0063                              _cont 00BB  
                            _main 1AF2                              btemp 0057  
                            und@x 0063                              prodh 000FF4  
                            prodl 000FF3                              start 01E0  
                 ___fldiv@new_exp 009D                      ___param_bank 000000  
                           ??_dec 0065                             ??_und 0065  
              __size_of_ISR_EX0_1 21F4                             ?_Temp 0001  
                 __end_of___fladd 06A6                             ?_main 0001  
                 __end_of___fldiv 1758                   __end_of___flmul 0F92  
                           i2l110 293C                             i1l175 005A  
                           i1l176 003A                             i2l105 292E  
                           i1l177 0038                             i1l178 0048  
                           i2l107 292A                             i2l132 25B8  
                           i1l196 0196                             i2l126 25B8  
                           i1l198 01CE                             i1l199 01D0  
                           i2l154 26F6                             i2l170 21F0  
                           i2l162 20F8                             i2l148 26F6  
                           i2l167 21D8                             i2l159 21B4  
                           i2l168 21EE                             i2l472 2B46  
                           i2l730 0894                             i2l731 0882  
                           i2l467 2B00                             i2l732 0848  
                           i2l820 13BA                             i2l823 124C  
                           i2l816 1056                             i2l833 137C  
                           i2l825 12C4                             i2l826 12B2  
                           i2l747 09AE                             i2l739 0B64  
                           i2l756 0A7E                             i2l860 2066  
                           i2l757 0A6C                             i2l871 1FFE  
                           i2l784 1AF0                             i2l864 1FA2  
                           i2l857 1F0A                             i2l786 1950  
                           i2l795 1996                             i2l797 1A0E  
                           i2l789 1914                             i2l798 19FC  
                           _PORTA 000F80                             _PORTB 000F81  
                           _PORTC 000F82                             _PORTD 000F83  
                           _PORTE 000F84                             _TRISA 000F92  
                           _TRISB 000F93                             _TRISC 000F94  
                           _TRISD 000F95                             _TRISE 000F96  
                           i2_dec 25BA                             i2_und 247C  
                   i2___fladd@grs 0010                             _cont1 00B9  
                   i2___fldiv@grs 003D                     i2___fldiv@rem 0036  
                           main@i 00B5                             main@j 00B3  
                __end_ofi2___flge 2B48                             tablat 000FF5  
                           ttemp5 0058                             ttemp6 005B  
                           ttemp7 005F                             status 000FD8  
                           wtemp8 0058                     i2___flmul@grs 001E  
              __size_ofi2___fladd 04C0                __size_ofi2___fldiv 039A  
              __size_ofi2___flmul 042A                   __initialization 2B7C  
                    __end_of_Temp 2820                      __end_of_main 1CFC  
                          ??_Temp 00A5                            ??_main 00B1  
                   __activetblptr 000002                            ?i2_dec 0001  
                     ?i2___xxtofl 0001                            ?i2_und 0001  
                          _ADCON0 000FC2                            _ADCON1 000FC1  
                          _ADCON2 000FC0                            _ADRESH 000FC4  
                          _ADRESL 000FC3                            i2l3001 072C  
                          i2l3011 076C                            i2l3003 073A  
                          i2l3101 0948                            i2l3021 07A6  
                          i2l3013 076E                            i2l3005 073C  
                          i1l3901 0136                            i2l3111 09C4  
                          i2l3103 097C                            i2l3031 07BA  
                          i2l3023 07AA                            i2l3007 074C  
                          i2l3015 0776                            i1l3911 0170  
                          i1l3903 0144                            i2l3121 0A00  
                          i2l3113 09D4                            i2l3105 097E  
                          i2l3041 07CE                            i2l3033 07BE  
                          i2l3025 07AE                            i2l3017 0786  
                          i2l3009 075C                            i2l3201 17D8  
                          i1l3921 01B2                            i1l3913 017E  
                          i1l3905 0152                            i2l3131 0A2C  
                          i2l3123 0A02                            i2l3107 098E  
                          i2l3051 07E2                            i2l3043 07D2  
                          i2l3035 07C2                            i2l3027 07B2  
                          i2l3019 0798                            i2l3211 180C  
                          i2l3203 17DA                            i1l3923 01C0  
                          i1l3915 0186                            i1l3907 015A  
                          i2l3141 0A64                            i2l3125 0A10  
                          i2l3117 09E8                            i2l3133 0A2E  
                          i2l3109 099E                            i2l3061 0840  
                          i2l3045 07D6                            i2l3037 07C6  
                          i2l3029 07B6                            i2l3053 07E6  
                          i2l3301 1AD0                            i2l3221 1852  
                          i2l3205 17EA                            i2l3213 1814  
                          i1l3917 0194                            i1l3909 0168  
                          i1l3861 0056                            i2l3151 0AE2  
                          i2l3127 0A18                            i2l3119 09F2  
                          i2l3135 0A3C                            i2l3071 0876  
                          i2l3063 0856                            i2l3055 07EA  
                          i2l3047 07DA                            i2l3039 07CA  
                          i2l3303 1ADE                            i2l3231 187A  
                          i2l3223 1856                            i2l3215 1824  
                          i2l3207 17FA                            i1l3919 01A4  
                          i1l3871 0092                            i1l3863 0068  
                          i2l3161 0B28                            i2l3145 0A8E  
                          i2l3153 0AE4                            i2l3137 0A40  
                          i2l3129 0A1C                            i2l3081 08C6  
                          i2l3073 0880                            i2l3065 0862  
                          i2l3057 0814                            i2l3049 07DE  
                          i2l3305 1AE4                            i2l3241 18C8  
                          i2l3217 183A                            i2l3209 180A  
                          i2l3401 124A                            i2l3321 0FAE  
                          i1l3881 00CC                            i1l3873 00A0  
                          i1l3865 006E                            i1l3857 0026  
                          i2l3171 0B52                            i2l3163 0B36  
                          i2l3155 0AF4                            i2l3147 0A9A  
                          i2l3139 0A4E                            i2l3091 0902  
                          i2l3083 08D6                            i2l3075 08A2  
                          i2l3067 0866                            i2l3059 0830  
                          i2l3307 1AE6                            i2l3251 1912  
                          i2l3243 18D8                            i2l3235 188E  
                          i2l3219 184A                            i2l3227 186A  
                          i2l3411 12AA                            i2l3403 125C  
                          i2l3331 0FF4                            i2l3323 0FBE  
                          i2l3315 0F92                            i1l3891 0102  
                          i1l3875 00A8                            i1l3867 007C  
                          i1l3883 00D0                            i2l3173 0B54  
                          i2l3165 0B3C                            i2l3157 0B04  
                          i2l3149 0AA8                            i2l3093 0910  
                          i2l3085 08E4                            i2l3077 08B2  
                          i2l3069 0874                            i2l3261 1960  
                          i2l3253 191E                            i2l3245 18E0  
                          i2l3237 18A8                            i2l3229 187A  
                          i2l3181 1772                            i2l3421 1318  
                          i2l3405 126A                            i2l3341 1020  
                          i2l3333 0FFA                            i2l3325 0FCE  
                          i2l3317 0F9E                            i1l3893 010A  
                          i1l3885 00DE                            i1l3877 00B6  
                          i1l3869 008A                            i2l3167 0B3E  
                          i2l3159 0B24                            i2l3095 0912  
                          i2l3087 08F2                            i2l3263 1976  
                          i2l3271 19A6                            i2l3255 193C  
                          i2l3247 18F0                            i2l3239 18B8  
                          i2l3191 17A6                            i2l3183 1774  
                          i2l3431 1380                            i2l3415 12D4  
                          i2l3423 131C                            i2l3407 126E  
                          i2l3351 1076                            i2l3343 1030  
                          i2l3335 1000                            i2l3327 0FDE  
                          i2l3319 0FAC                            i1l3895 0118  
                          i1l3887 00EC                            i1l3879 00BE  
                          i2l3169 0B44                            i2l3097 091C  
                          i2l3089 08FE                            i2l3273 19B4  
                          i2l3265 197C                            i2l3257 193E  
                          i2l3249 1904                            i2l3185 1784  
                          i2l3193 17AE                            i2l3177 1758  
                          i2l3441 13AA                            i2l3433 1390  
                          i2l3425 1336                            i2l3417 12E0  
                          i2l3409 127C                            i2l3361 10B6  
                          i2l3345 1040                            i2l3337 100E  
                          i2l3329 0FE4                            i1l3897 0120  
                          i1l3889 00F4                            i2l3099 0922  
                          i2l3283 1A1E                            i2l3291 1A66  
                          i2l3275 19B8                            i2l3267 1986  
                          i2l3259 194E                            i2l3195 17BE  
                          i2l3187 1794                            i2l3179 1764  
                          i2l3435 139E                            i2l3427 134A  
                          i2l3419 12EE                            i2l3371 1100  
                          i2l3363 10C2                            i2l3355 108A  
                          i2l3347 1046                            i2l3339 1010  
                          i2l3451 1F1A                            i1l3899 012E  
                          i2l3293 1A80                            i2l3285 1A2A  
                          i2l3277 19C6                            i2l3269 1994  
                          i2l3197 17C4                            i2l3189 17A4  
                          i2l3437 13A0                            i2l3429 1364  
                          i2l3381 1152                            i2l3373 110C  
                          i2l3365 10DA                            i2l3357 1096  
                          i2l3349 1066                            i2l3461 1F58  
                          i2l3453 1F30                            i2l3445 1EB6  
                          i2l3701 268A                            i2l3295 1A96  
                          i2l3287 1A38                            i2l3279 19F4  
                          i2l3199 17CA                            i2l3439 13A6  
                          i2l3391 11D0                            i2l3383 1162  
                          i2l3375 111C                            i2l3367 10E6  
                          i2l3359 10A0                            i2l3471 1FE0  
                          i2l3463 1F8A                            i2l3447 1EC6  
                          i2l3631 28F0                            i2l3623 2820  
                          i2l3711 26D6                            i2l3703 2696  
                          i2l3297 1AB0                            i2l3289 1A62  
                          i2l3393 1206                            i2l3385 117E  
                          i2l3377 1128                            i2l3369 10F2  
                          i2l3481 2036                            i2l3473 1FEE  
                          i2l3465 1F8C                            i2l3457 1F44  
                          i2l3449 1ED4                            i2l3633 2922  
                          i2l3625 2828                            i2l3713 26EA  
                          i2l3705 26AA                            i2l3641 24AC  
                          i2l3299 1ACC                            i2l3395 1214  
                          i2l3387 118A                            i2l3379 1138  
                          i2l3483 2046                            i2l3475 200C  
                          i2l3467 1F98                            i2l3459 1F4C  
                          i2l3627 2838                            i2l3707 26B6  
                          i2l3651 24F8                            i2l3643 24B8  
                          i2l3635 247C                            i2l3811 2080  
                          i2l3397 1232                            i2l3389 11A6  
                          i2l3485 2054                            i2l3477 200E  
                          i2l3469 1FD4                            i2l3629 2874  
                          i2l3709 26CA                            i2l3661 254C  
                          i2l3653 250C                            i2l3645 24CC  
                          i2l3637 248E                            i2l3821 20A2  
                          i2l3813 2082                            i2l3399 123C  
                          i2l3487 2056                            i2l3479 2012  
                          i2l3671 2598                            i2l3663 2558  
                          i2l3655 2518                            i2l3647 24D8  
                          i2l3639 249A                            i2l3823 20B8  
                          i2l2961 2AC0                            i2l2953 2A44  
                          i2l3681 25EA                            i2l3673 25AC  
                          i2l3665 256C                            i2l3657 252C  
                          i2l3649 24EC                            i2l3841 2146  
                          i2l3825 20BC                            i2l3809 2072  
                          i2l2971 2B44                            i2l2963 2ACE  
                          i2l2955 2A72                            i2l3691 2636  
                          i2l3683 25F6                            i2l3675 25BA  
                          i2l3667 2578                            i2l3659 2538  
                          i2l3851 21C6                            i2l3843 2160  
                          i2l3835 20FA                            i2l3827 20D8  
                          i2l3819 208A                            i2l2981 06C2  
                          i2l2965 2AE0                            i2l2957 2A82  
                          i2l3693 264A                            i2l3685 260A  
                          i2l3677 25CC                            i2l3669 258C  
                          i2l3853 21CA                            i2l3845 217A  
                          i2l3837 2112                            i2l3829 20F0  
                          i2l2983 06D2                            i2l2991 06FC  
                          i2l2975 06A6                            i2l2967 2AEE  
                          i2l2959 2AB0                            i2l3695 2656  
                          i2l3687 2616                            i2l3679 25D8  
                          i2l3855 21E6                            i2l3847 2194  
                          i2l3839 212C                            i2l2993 070C  
                          i2l2985 06E2                            i2l2977 06B2  
                          i2l2969 2B3E                            i2l3697 266A  
                          i2l3689 262A                            i2l2995 0712  
                          i2l2987 06F2                            i2l2979 06C0  
                          i2l3699 2676                            i2l2997 0724  
                          i2l2989 06F4                            i2l2999 0726  
                          _ISR_RB 0018                 __end_of_ISR_EX0_1 21FC  
                          i2_Temp 2820                  __end_of___xxtofl 1EB4  
                          i2dec@y 0001                    i2___fladd@aexp 000E  
                  i2___fladd@bexp 000F                            i2und@x 0001  
                          ___flge 293E                         ??___fladd 006B  
                       ??___fldiv 0094                         ??___flmul 007B  
                          clear_0 2B94                    i2___fldiv@aexp 0042  
                  i2___fldiv@bexp 0041                    i2___fldiv@sign 003A  
               __end_ofi2___fladd 0B66                 __end_ofi2___fldiv 1AF2  
               __end_ofi2___flmul 13BC                    ISR_EX0_1@i_729 0053  
                          tblptrh 000FF7                            tblptrl 000FF6  
                          tblptru 000FF8                    i2___flmul@aexp 0022  
                  i2___flmul@bexp 0023                    i2___flmul@sign 001D  
                  i2___flmul@temp 0028                    i2___flmul@prod 0024  
                      ___flge@ff1 0063                        ___flge@ff2 0067  
                    ___xxtofl@arg 006D                      ___xxtofl@exp 006C  
                    ___xxtofl@val 0063          ?_Configuracion_Registros 0001  
                      __accesstop 0060           __end_of__initialization 2B9A  
                   ___rparam_used 000001                     __end_ofi2_dec 26F8  
                   __end_ofi2_und 25BA               __size_ofi2___xxtofl 01B4  
                  __pcstackCOMRAM 0001                      __pidataBANK0 2BA8  
                       ?i2___flge 0001                           ??i2_dec 0003  
                         ??i2_und 0003                        __pbssBANK0 00B9  
                         ?_ISR_RB 0001                           ?i2_Temp 0001  
                         ?___flge 0063                        ??i2___flge 0009  
                       ?___xxtofl 0063   __end_of_Configuracion_Registros 2B7C  
                 __size_of_ISR_RB 01C8                   __size_ofi2_Temp 011E  
                 i2___fladd@signs 000D                           __Hparam 0000  
                         __Lparam 0000                   __size_of___flge 0106  
                         ___fladd 01E4                           ___fldiv 13BC  
                         ___flmul 0B66                           __pcinit 2B7C  
                         __ramtop 0800                           __ptext0 1AF2  
                         __ptext1 21FC                           __ptext2 233C  
                         __ptext3 26F8                           __ptext4 1CFC  
                         __ptext5 0B66                           __ptext6 293E  
                         __ptext7 13BC                           __ptext8 01E4  
                         __ptext9 2B48                      __size_of_dec 0140  
                    ??i2___xxtofl 0005                      __size_of_und 0140  
                      ??___xxtofl 0067                    __pintcode_body 2068  
            end_of_initialization 2B9A                     __Lmediumconst 0000  
                         int_func 2068                    i2___xxtofl@arg 000B  
                  i2___xxtofl@exp 000A                    i2___xxtofl@val 0001  
                       _ISR_EX0_1 0008                __end_ofi2___xxtofl 2068  
                         postinc0 000FEE                         _PORTAbits 000F80  
                       _PORTBbits 000F81                         _PORTCbits 000F82  
                       _PORTDbits 000F83                         _PORTEbits 000F84  
                     ___fladd@grs 0072                     ___xxtofl@sign 006B  
                     ___fldiv@grs 009F                       ___fldiv@rem 0098  
                       i2___fladd 06A6                         i2___fldiv 1758  
                       i2___flmul 0F92                       ___flmul@grs 0080  
                  __end_of_ISR_RB 01E0                    __end_ofi2_Temp 293E  
                      ?_ISR_EX0_1 0001                    __end_of___flge 2A44  
__size_of_Configuracion_Registros 0034                 __size_ofi2___flge 0104  
             start_initialization 2B7C                       __end_of_dec 247C  
                     __end_of_und 233C                        ?i2___fladd 0001  
                      ?i2___fldiv 002A                        ?i2___flmul 0011  
                       Temp@tempt 00A9                          ??_ISR_RB 0060  
                        ??i2_Temp 0043                          ??___flge 006B  
                     __pdataBANK0 00C7                         ___fladd@a 0067  
                       ___fladd@b 0063                         ___fldiv@a 0090  
                       ___fldiv@b 008C                         ___flmul@a 0077  
                       ___flmul@b 0073                     __pcstackBANK0 0060  
               __size_of___xxtofl 01B8                        ISR_EX0_1@i 0055  
                     ??_ISR_EX0_1 004F                         __pintcode 0008  
                        ?___fladd 0063                          ?___fldiv 008C  
                        ?___flmul 0073                       __pintcodelo 0018  
                  __size_ofi2_dec 013E                    __size_ofi2_und 013E  
                     ??i2___fladd 0009                       ??i2___fldiv 0032  
                     ??i2___flmul 0019                          i1u520_20 0034  
                        i1u520_21 0030                          i1u521_20 0048  
                        i1u521_21 0044                          i1u530_20 00EC  
                        i1u522_20 0056                          i1u530_21 00E8  
                        i1u522_21 0052                          i1u531_20 0102  
                        i1u523_20 0068                          i1u531_21 00FE  
                        i1u523_21 0064                          i1u540_20 01B2  
                        i1u532_20 0118                          i1u524_20 007C  
                        i1u540_21 01AE                          i1u532_21 0114  
                        i1u524_21 0078                          i1u541_20 01C0  
                        i1u533_20 012E                          i1u525_20 008A  
                        i1u541_21 01BC                          i1u533_21 012A  
                        i1u525_21 0086                          i1u542_20 01CE  
                        i1u534_20 0144                          i1u526_20 00A0  
                        i1u542_21 01CA                          i1u534_21 0140  
                        i1u526_21 009C                          i1u535_20 0152  
                        i1u527_20 00B6                          i1u535_21 014E  
                        i1u527_21 00B2                          i1u536_20 0168  
                        i1u528_20 00CC                          i1u536_21 0164  
                        i1u528_21 00C8                          i2u400_40 0A3C  
                        i2u400_41 0A38                          i1u537_20 017E  
                        i1u529_20 00DE                          i1u537_21 017A  
                        i1u529_21 00DA                          i2u401_40 0A4E  
                        i2u401_41 0A4A                          i1u538_20 0194  
                        i1u538_21 0190                          i2u410_40 0B36  
                        i2u402_40 0A64                          i2u410_41 0B32  
                        i2u402_41 0A60                          i1u539_20 01A4  
                        i1u539_21 01A0                          i2u411_40 0B52  
                        i2u403_40 0A7A                          i2u411_41 0B4E  
                        i2u403_41 0A76                          i2u404_40 0A8E  
                        i2u420_40 18F0                          i2u412_40 1772  
                        i2u500_40 260A                          i2u404_41 0A8A  
                        i2u420_41 18EC                          i2u412_41 176E  
                        i2u500_41 2606                          i2u405_40 0AA8  
                        i2u421_40 1912                          i2u413_40 1784  
                        i2u501_40 262A                          i2u405_41 0AA4  
                        i2u421_41 190E                          i2u413_41 1780  
                        i2u501_41 2626                          i2u406_40 0AE2  
                        i2u430_40 1A1E                          i2u422_40 193C  
                        i2u414_40 1794                          i2u502_40 264A  
                        i2u406_41 0ADE                          i2u430_41 1A1A  
                        i2u422_41 1938                          i2u414_41 1790  
                        i2u502_41 2646                          i2u407_40 0AF4  
                        i2u431_40 1A38                          i2u423_40 1960  
                        i2u415_40 17D8                          i2u503_40 266A  
                        i2u407_41 0AF0                          i2u431_41 1A34  
                        i2u423_41 195C                          i2u415_41 17D4  
                        i2u503_41 2666                          i2u408_40 0B04  
                        i2u432_40 1A80                          i2u424_40 1976  
                        i2u416_40 17EA                          i2u440_40 1030  
                        i2u504_40 268A                          i2u408_41 0B00  
                        i2u432_41 1A7C                          i2u424_41 1972  
                        i2u416_41 17E6                          i2u440_41 102C  
                        i2u504_41 2686                          i2u409_40 0B24  
                        i2u433_40 1AB0                          i2u425_40 1994  
                        i2u417_40 17FA                          i2u441_40 1066  
                        i2u505_40 26AA                          i2u409_41 0B20  
                        i2u433_41 1AAC                          i2u425_41 1990  
                        i2u417_41 17F6                          i2u441_41 1062  
                        i2u505_41 26A6                          i2u434_40 1ADE  
                        i2u426_40 19B4                          i2u418_40 183A  
                        i2u370_40 2ACE                          i2u450_40 12EE  
                        i2u442_40 1076                          i2u506_40 26CA  
                        i2u514_40 2080                          i2u434_41 1ADA  
                        i2u426_41 19B0                          i2u418_41 1836  
                        i2u370_41 2ACA                          i2u450_41 12EA  
                        i2u442_41 1072                          i2u506_41 26C6  
                        i2u514_41 207C                          i2u427_40 19C6  
                        i2u419_40 187A                          i2u371_40 2AEE  
                        i2u451_40 1336                          i2u443_40 11F0  
                        i2u435_40 0FAC                          i2u507_40 26EA  
                        i2u515_40 20D8                          i2u427_41 19C2  
                        i2u419_41 1876                          i2u371_41 2AEA  
                        i2u451_41 1332                          i2u435_41 0FA8  
                        i2u507_41 26E6                          i2u515_41 20D4  
                        i2u443_45 11E6                          i2u380_40 0798  
                        i2u428_40 19F4                          i2u372_40 2B3E  
                        i2u452_40 1364                          i2u444_40 124A  
                        i2u436_40 0FBE                          i2u460_40 1FFE  
                        i2u516_40 21B4                          i2u380_41 0794  
                        i2u428_41 19F0                          i2u372_41 2B3A  
                        i2u452_41 1360                          i2u444_41 1246  
                        i2u436_41 0FBA                          i2u460_41 1FFA  
                        i2u516_41 21B0                          i2u381_40 07A6  
                        i2u373_40 06C0                          i2u429_40 1A0A  
                        i2u453_40 139E                          i2u445_40 126A  
                        i2u437_40 0FCE                          i2u461_40 200C  
                        i2u517_40 21C2                          i2u381_41 07A2  
                        i2u373_41 06BC                          i2u429_41 1A06  
                        i2u453_41 139A                          i2u445_41 1266  
                        i2u437_41 0FCA                          i2u461_41 2008  
                        i2u517_41 21BE                          i2u390_40 08E4  
                        i2u382_40 0814                          i2u374_40 06D2  
                        i2u446_40 127C                          i2u438_40 100E  
                        i2u462_40 2046                          i2u454_40 1EC6  
                        i2u518_40 21D8                          i2u390_41 08E0  
                        i2u382_41 0810                          i2u374_41 06CE  
                        i2u446_41 1278                          i2u438_41 100A  
                        i2u462_41 2042                          i2u454_41 1EC2  
                        i2u518_41 21D4                          i2u550_47 216C  
                        i2u391_40 08F2                          i2u383_40 082C  
                        i2u375_40 06E2                          i2u447_40 12AA  
                        i2u439_40 1020                          i2u463_40 2054  
                        i2u455_40 1ED4                          i2u519_40 21E6  
                        i2u391_41 08EE                          i2u383_41 0826  
                        i2u375_41 06DE                          i2u447_41 12A6  
                        i2u439_41 101C                          i2u463_41 2050  
                        i2u455_41 1ED0                          i2u519_41 21E2  
                        i2u551_47 2186                          i2u392_40 0910  
                        i2u384_40 082E                          i2u376_40 0724  
                        i2u368_40 2A72                          i2u448_40 12C0  
                        i2u456_40 1F30                          i2u392_41 090C  
                        i2u376_41 0720                          i2u368_41 2A6E  
                        i2u448_41 12BC                          i2u456_41 1F2C  
                        i2u393_40 0948                          i2u385_40 0856  
                        i2u377_40 073A                          i2u369_40 2AB0  
                        i2u449_40 12D4                          i2u457_40 1F86  
                        i2u393_41 0944                          i2u385_41 0852  
                        i2u377_41 0736                          i2u369_41 2AAC  
                        i2u449_41 12D0                          i2u457_41 1F82  
                        i2u545_47 20AC                          i2u394_40 098E  
                        i2u386_40 0874                          i2u378_40 074C  
                        i2u458_40 1FD0                          i2u490_40 24CC  
                        i2u394_41 098A                          i2u386_41 0870  
                        i2u378_41 0748                          i2u458_41 1FCC  
                        i2u490_41 24C8                          i2u546_47 2104  
                        i2u395_40 09C4                          i2u387_40 0894  
                        i2u379_40 075C                          i2u459_40 1FEE  
                        i2u491_40 24EC                          i2u395_41 09C0  
                        i2u387_41 0890                          i2u379_41 0758  
                        i2u459_41 1FEA                          i2u491_41 24E8  
                        i2u547_47 211E                          i2u396_40 09D4  
                        i2u388_40 08A2                          i2u492_40 250C  
                        i2u396_41 09D0                          i2u388_41 089E  
                        i2u492_41 2508                          i2u548_47 2138  
                        i2u397_40 0A00                          i2u389_40 08B2  
                        i2u493_40 252C                          i2u397_41 09FC  
                        i2u389_41 08AE                          i2u493_41 2528  
                        i2u549_47 2152                          i2u398_40 0A10  
                        i2u486_40 2922                          i2u494_40 254C  
                        i2u398_41 0A0C                          i2u486_41 291E  
                        i2u494_41 2548                          i2u399_40 0A2C  
                        i2u487_40 293C                          i2u495_40 256C  
                        i2u399_41 0A28                          i2u487_41 2938  
                        i2u495_41 2568                          i2u496_40 258C  
                        i2u488_40 248E                          i2u496_41 2588  
                        i2u488_41 248A                          i2u497_40 25AC  
                        i2u489_40 24AC                          i2u497_41 25A8  
                        i2u489_41 24A8                          i2u498_40 25CC  
                        i2u498_41 25C8                          i2u499_40 25EA  
                        i2u499_41 25E6                          _RCONbits 000FD0  
               i2___fldiv@new_exp 003B           _Configuracion_Registros 2B48  
                      _ADCON0bits 000FC2                          i2___flge 2A44  
                       main@i_647 00B7                       _INTCON2bits 000FF1  
                     _INTCON3bits 000FF0                          Temp@temp 00AD  
                        __Hrparam 0000                          __Lrparam 0000  
                __size_of___fladd 04C2                  __size_of___fldiv 039C  
                __size_of___flmul 042C                          ___xxtofl 1CFC  
                        __ptext12 247C                          __ptext13 25BA  
                        __ptext14 2820                          __ptext15 1EB4  
                        __ptext16 0F92                          __ptext17 2A44  
                        __ptext18 1758                          __ptext19 06A6  
                   __size_of_Temp 0128                     __size_of_main 020A  
       ??_Configuracion_Registros 0063                          int$flags 0057  
                      _INTCONbits 000FF2                          intlevel1 0000  
                        intlevel2 0000                   i2___xxtofl@sign 0009  
                   ___fladd@signs 006F                       i2Temp@tempt 0047  
                    ___fladd@aexp 0070                      ___fladd@bexp 0071  
                      i2Temp@temp 004B  
