

Microchip MPLAB XC8 Assembler V2.20 build 20200408173844 
                                                                                               Wed Aug 19 21:18:59 2020

Microchip MPLAB XC8 C Compiler v2.20 (Free license) build 20200408173844 Og1 
     1                           	processor	18F4550
     2                           	fnconf	rparam,??,?,0
     3                           	pagewidth 120
     4                           	opt	flic
     5                           	psect	cinit,global,reloc=2,class=CODE,delta=1
     6                           	psect	cstackCOMRAM,global,class=COMRAM,space=1,delta=1,lowdata,noexec
     7                           	psect	text0,global,reloc=2,class=CODE,delta=1
     8                           	psect	text1,global,reloc=2,class=CODE,delta=1,group=1
     9                           	psect	text2,global,reloc=2,class=CODE,delta=1,group=1
    10                           	psect	text3,global,reloc=2,class=CODE,delta=1,group=1
    11                           	psect	text4,global,reloc=2,class=CODE,delta=1,group=1
    12                           	psect	intsave_regs,global,class=BIGRAM,space=1,delta=1,noexec
    13                           	psect	rparam,global,class=COMRAM,space=1,delta=1,noexec
    14                           	psect	idloc,global,abs,ovrld,class=IDLOC,space=5,delta=1,noexec
    15                           	psect	config,global,abs,ovrld,class=CONFIG,space=4,delta=1,noexec
    16  0000                     
    17                           ; Version 2.20
    18                           ; Generated 12/02/2020 GMT
    19                           ; 
    20                           ; Copyright © 2020, Microchip Technology Inc. and its subsidiaries ("Microchip")
    21                           ; All rights reserved.
    22                           ; 
    23                           ; This software is developed by Microchip Technology Inc. and its subsidiaries ("Microch
      +                          ip").
    24                           ; 
    25                           ; Redistribution and use in source and binary forms, with or without modification, are
    26                           ; permitted provided that the following conditions are met:
    27                           ; 
    28                           ;     1. Redistributions of source code must retain the above copyright notice, this lis
      +                          t of
    29                           ;        conditions and the following disclaimer.
    30                           ; 
    31                           ;     2. Redistributions in binary form must reproduce the above copyright notice, this 
      +                          list
    32                           ;        of conditions and the following disclaimer in the documentation and/or other
    33                           ;        materials provided with the distribution.
    34                           ; 
    35                           ;     3. Microchip's name may not be used to endorse or promote products derived from th
      +                          is
    36                           ;        software without specific prior written permission.
    37                           ; 
    38                           ; THIS SOFTWARE IS PROVIDED BY MICROCHIP "AS IS" AND ANY EXPRESS OR IMPLIED WARRANTIES,
    39                           ; INCLUDING, BUT NOT LIMITED TO, THE IMPLIED WARRANTIES OF MERCHANTABILITY AND FITNESS F
      +                          OR
    40                           ; PURPOSE ARE DISCLAIMED.  IN NO EVENT SHALL MICROCHIP BE LIABLE FOR ANY DIRECT, INDIREC
      +                          T,
    41                           ; INCIDENTAL, SPECIAL, EXEMPLARY, OR CONSEQUENTIAL DAMAGES (INCLUDING BUT NOT LIMITED TO
    42                           ; PROCUREMENT OF SUBSTITUTE GOODS OR SERVICES; LOSS OF USE, DATA OR PROFITS; OR BUSINESS
    43                           ; INTERRUPTION) HOWSOEVER CAUSED AND ON ANY THEORY OF LIABILITY, WHETHER IN CONTRACT, ST
      +                          RICT
    44                           ; LIABILITY, OR TORT (INCLUDING NEGLIGENCE OR OTHERWISE) ARISING IN ANY WAY OUT OF THE U
      +                          SE OF
    45                           ; THIS SOFTWARE, EVEN IF ADVISED OF THE POSSIBILITY OF SUCH DAMAGE.
    46                           ; 
    47                           ; 
    48                           ; Code-generator required, PIC18F4550 Definitions
    49                           ; 
    50                           ; SFR Addresses
    51  0000                     _PORTB	set	3969
    52  0000                     _ADRESL	set	4035
    53  0000                     _ADRESH	set	4036
    54  0000                     _ADCON2bits	set	4032
    55  0000                     _ADCON1bits	set	4033
    56  0000                     _ADCON0bits	set	4034
    57  0000                     _TRISAbits	set	3986
    58  0000                     _PORTAbits	set	3968
    59  0000                     _TRISC	set	3988
    60  0000                     _TRISB	set	3987
    61  0000                     _TRISA	set	3986
    62  0000                     _PORTD	set	3971
    63  0000                     _PORTC	set	3970
    64                           
    65                           ; #config settings
    66                           
    67                           	psect	cinit
    68  0069E0                     __pcinit:
    69                           	callstack 0
    70  0069E0                     start_initialization:
    71                           	callstack 0
    72  0069E0                     __initialization:
    73                           	callstack 0
    74  0069E0                     end_of_initialization:
    75                           	callstack 0
    76  0069E0                     __end_of__initialization:
    77                           	callstack 0
    78  0069E0  0100               	movlb	0
    79  0069E2  EF04  F03A         	goto	_main	;jump to C main() function
    80                           
    81                           	psect	cstackCOMRAM
    82  000001                     __pcstackCOMRAM:
    83                           	callstack 0
    84  000001                     ?___xxtofl:
    85                           	callstack 0
    86  000001                     ___fleq@ff1:
    87                           	callstack 0
    88  000001                     ___xxtofl@val:
    89                           	callstack 0
    90                           
    91                           ; 4 bytes @ 0x0
    92  000001                     	ds	4
    93  000005                     ??___xxtofl:
    94  000005                     ___fleq@ff2:
    95                           	callstack 0
    96                           
    97                           ; 4 bytes @ 0x4
    98  000005                     	ds	4
    99  000009                     ??___fleq:
   100  000009                     ___xxtofl@sign:
   101                           	callstack 0
   102                           
   103                           ; 1 bytes @ 0x8
   104  000009                     	ds	1
   105  00000A                     ___xxtofl@exp:
   106                           	callstack 0
   107                           
   108                           ; 1 bytes @ 0x9
   109  00000A                     	ds	1
   110  00000B                     ___xxtofl@arg:
   111                           	callstack 0
   112                           
   113                           ; 4 bytes @ 0xA
   114  00000B                     	ds	4
   115  00000F                     ?___flmul:
   116                           	callstack 0
   117  00000F                     ___flmul@b:
   118                           	callstack 0
   119                           
   120                           ; 4 bytes @ 0xE
   121  00000F                     	ds	4
   122  000013                     ___flmul@a:
   123                           	callstack 0
   124                           
   125                           ; 4 bytes @ 0x12
   126  000013                     	ds	4
   127  000017                     ??___flmul:
   128                           
   129                           ; 1 bytes @ 0x16
   130  000017                     	ds	4
   131  00001B                     ___flmul@sign:
   132                           	callstack 0
   133                           
   134                           ; 1 bytes @ 0x1A
   135  00001B                     	ds	1
   136  00001C                     ___flmul@grs:
   137                           	callstack 0
   138                           
   139                           ; 4 bytes @ 0x1B
   140  00001C                     	ds	4
   141  000020                     ___flmul@aexp:
   142                           	callstack 0
   143                           
   144                           ; 1 bytes @ 0x1F
   145  000020                     	ds	1
   146  000021                     ___flmul@bexp:
   147                           	callstack 0
   148                           
   149                           ; 1 bytes @ 0x20
   150  000021                     	ds	1
   151  000022                     ___flmul@prod:
   152                           	callstack 0
   153                           
   154                           ; 4 bytes @ 0x21
   155  000022                     	ds	4
   156  000026                     ___flmul@temp:
   157                           	callstack 0
   158                           
   159                           ; 2 bytes @ 0x25
   160  000026                     	ds	2
   161  000028                     ?___fldiv:
   162                           	callstack 0
   163  000028                     ___fldiv@b:
   164                           	callstack 0
   165                           
   166                           ; 4 bytes @ 0x27
   167  000028                     	ds	4
   168  00002C                     ___fldiv@a:
   169                           	callstack 0
   170                           
   171                           ; 4 bytes @ 0x2B
   172  00002C                     	ds	4
   173  000030                     ??___fldiv:
   174                           
   175                           ; 1 bytes @ 0x2F
   176  000030                     	ds	4
   177  000034                     ___fldiv@rem:
   178                           	callstack 0
   179                           
   180                           ; 4 bytes @ 0x33
   181  000034                     	ds	4
   182  000038                     ___fldiv@sign:
   183                           	callstack 0
   184                           
   185                           ; 1 bytes @ 0x37
   186  000038                     	ds	1
   187  000039                     ___fldiv@new_exp:
   188                           	callstack 0
   189                           
   190                           ; 2 bytes @ 0x38
   191  000039                     	ds	2
   192  00003B                     ___fldiv@grs:
   193                           	callstack 0
   194                           
   195                           ; 4 bytes @ 0x3A
   196  00003B                     	ds	4
   197  00003F                     ___fldiv@bexp:
   198                           	callstack 0
   199                           
   200                           ; 1 bytes @ 0x3E
   201  00003F                     	ds	1
   202  000040                     ___fldiv@aexp:
   203                           	callstack 0
   204                           
   205                           ; 1 bytes @ 0x3F
   206  000040                     	ds	1
   207  000041                     ??_main:
   208                           
   209                           ; 1 bytes @ 0x40
   210  000041                     	ds	2
   211  000043                     main@adc:
   212                           	callstack 0
   213                           
   214                           ; 2 bytes @ 0x42
   215  000043                     	ds	2
   216  000045                     main@volt:
   217                           	callstack 0
   218                           
   219                           ; 4 bytes @ 0x44
   220  000045                     	ds	4
   221                           
   222 ;;
   223 ;;Main: autosize = 0, tempsize = 2, incstack = 0, save=0
   224 ;;
   225 ;; *************** function _main *****************
   226 ;; Defined at:
   227 ;;		line 5 in file "newmain.c"
   228 ;; Parameters:    Size  Location     Type
   229 ;;		None
   230 ;; Auto vars:     Size  Location     Type
   231 ;;  volt            4   68[COMRAM] float 
   232 ;;  adc             2   66[COMRAM] int 
   233 ;; Return value:  Size  Location     Type
   234 ;;                  1    wreg      void 
   235 ;; Registers used:
   236 ;;		wreg, status,2, status,0, prodl, prodh, cstack
   237 ;; Tracked objects:
   238 ;;		On entry : 0/0
   239 ;;		On exit  : 0/0
   240 ;;		Unchanged: 0/0
   241 ;; Data sizes:     COMRAM   BANK0   BANK1   BANK2   BANK3   BANK4   BANK5   BANK6   BANK7
   242 ;;      Params:         0       0       0       0       0       0       0       0       0
   243 ;;      Locals:         6       0       0       0       0       0       0       0       0
   244 ;;      Temps:          2       0       0       0       0       0       0       0       0
   245 ;;      Totals:         8       0       0       0       0       0       0       0       0
   246 ;;Total ram usage:        8 bytes
   247 ;; Hardware stack levels required when called:    1
   248 ;; This function calls:
   249 ;;		___fldiv
   250 ;;		___fleq
   251 ;;		___flmul
   252 ;;		___xxtofl
   253 ;; This function is called by:
   254 ;;		Startup code after reset
   255 ;; This function uses a non-reentrant model
   256 ;;
   257                           
   258                           	psect	text0
   259  007408                     __ptext0:
   260                           	callstack 0
   261  007408                     _main:
   262                           	callstack 30
   263  007408                     
   264                           ;newmain.c: 7:     int adc;;newmain.c: 8:     float volt;;newmain.c: 11:     PORTC = 0x0
      +                          0;
   265  007408  0E00               	movlw	0
   266  00740A  6E82               	movwf	130,c	;volatile
   267                           
   268                           ;newmain.c: 12:     PORTD = 0x00;
   269  00740C  0E00               	movlw	0
   270  00740E  6E83               	movwf	131,c	;volatile
   271  007410                     
   272                           ;newmain.c: 13:     TRISA = 0xFF;
   273  007410  6892               	setf	146,c	;volatile
   274                           
   275                           ;newmain.c: 14:     TRISB = 0x00;
   276  007412  0E00               	movlw	0
   277  007414  6E93               	movwf	147,c	;volatile
   278                           
   279                           ;newmain.c: 15:     TRISC = 0x00;
   280  007416  0E00               	movlw	0
   281  007418  6E94               	movwf	148,c	;volatile
   282  00741A                     
   283                           ;newmain.c: 18:     PORTAbits.RA2 = 0;
   284  00741A  9480               	bcf	128,2,c	;volatile
   285  00741C                     
   286                           ;newmain.c: 19:     TRISAbits.RA2 = 1;
   287  00741C  8492               	bsf	146,2,c	;volatile
   288  00741E                     
   289                           ;newmain.c: 22:     ADCON0bits.CHS3 = 0;
   290  00741E  9AC2               	bcf	194,5,c	;volatile
   291  007420                     
   292                           ;newmain.c: 23:     ADCON0bits.CHS2 = 0;
   293  007420  98C2               	bcf	194,4,c	;volatile
   294  007422                     
   295                           ;newmain.c: 24:     ADCON0bits.CHS1 = 1;
   296  007422  86C2               	bsf	194,3,c	;volatile
   297  007424                     
   298                           ;newmain.c: 25:     ADCON0bits.CHS0 = 0;
   299  007424  94C2               	bcf	194,2,c	;volatile
   300  007426                     
   301                           ;newmain.c: 27:     ADCON1bits.VCFG1 = 0;
   302  007426  9AC1               	bcf	193,5,c	;volatile
   303  007428                     
   304                           ;newmain.c: 28:     ADCON1bits.VCFG0 = 0;
   305  007428  98C1               	bcf	193,4,c	;volatile
   306  00742A                     
   307                           ;newmain.c: 30:     ADCON1bits.PCFG3 = 1;
   308  00742A  86C1               	bsf	193,3,c	;volatile
   309  00742C                     
   310                           ;newmain.c: 31:     ADCON1bits.PCFG2 = 1;
   311  00742C  84C1               	bsf	193,2,c	;volatile
   312  00742E                     
   313                           ;newmain.c: 32:     ADCON1bits.PCFG1 = 0;
   314  00742E  92C1               	bcf	193,1,c	;volatile
   315  007430                     
   316                           ;newmain.c: 33:     ADCON1bits.PCFG0 = 0;
   317  007430  90C1               	bcf	193,0,c	;volatile
   318  007432                     
   319                           ;newmain.c: 35:     ADCON2bits.ADFM = 1;
   320  007432  8EC0               	bsf	192,7,c	;volatile
   321  007434                     
   322                           ;newmain.c: 37:     ADCON2bits.ACQT2 = 0;
   323  007434  9AC0               	bcf	192,5,c	;volatile
   324  007436                     
   325                           ;newmain.c: 38:     ADCON2bits.ACQT1 = 1;
   326  007436  88C0               	bsf	192,4,c	;volatile
   327  007438                     
   328                           ;newmain.c: 39:     ADCON2bits.ACQT0 = 0;
   329  007438  96C0               	bcf	192,3,c	;volatile
   330  00743A                     
   331                           ;newmain.c: 41:     ADCON2bits.ADCS2 = 1;
   332  00743A  84C0               	bsf	192,2,c	;volatile
   333  00743C                     
   334                           ;newmain.c: 42:     ADCON2bits.ADCS1 = 0;
   335  00743C  92C0               	bcf	192,1,c	;volatile
   336  00743E                     
   337                           ;newmain.c: 43:     ADCON2bits.ADCS0 = 0;
   338  00743E  90C0               	bcf	192,0,c	;volatile
   339  007440                     
   340                           ;newmain.c: 45:     ADCON0bits.ADON = 1;
   341  007440  80C2               	bsf	194,0,c	;volatile
   342  007442                     
   343                           ;newmain.c: 48:         ADCON0bits.GO_DONE = 1;
   344  007442  82C2               	bsf	194,1,c	;volatile
   345                           
   346                           ;newmain.c: 50:         while(ADCON0bits.GO_DONE =1){
   347  007444  EFFB  F03F         	goto	l1968
   348  007448                     l33:
   349                           
   350                           ;newmain.c: 52:             adc = ADRESH;
   351  007448  CFC4 F043          	movff	4036,main@adc	;volatile
   352  00744C  6A44               	clrf	(main@adc+1)^0,c
   353  00744E                     
   354                           ;newmain.c: 53:             adc = adc>>8;
   355  00744E  C044  F041         	movff	main@adc+1,??_main
   356  007452  6A42               	clrf	(??_main+1)^0,c
   357  007454  BE41               	btfsc	??_main^0,7,c
   358  007456  6842               	setf	(??_main+1)^0,c
   359  007458  C041  F043         	movff	??_main,main@adc
   360  00745C  C042  F044         	movff	??_main+1,main@adc+1
   361  007460                     
   362                           ;newmain.c: 54:             adc = adc+ADRESL;
   363  007460  50C3               	movf	195,w,c	;volatile
   364  007462  2443               	addwf	main@adc^0,w,c
   365  007464  6E43               	movwf	main@adc^0,c
   366  007466  0E00               	movlw	0
   367  007468  2044               	addwfc	(main@adc+1)^0,w,c
   368  00746A  6E44               	movwf	(main@adc+1)^0,c
   369  00746C                     
   370                           ;newmain.c: 55:             volt = (adc*5.0)/(1024.0);
   371  00746C  0E00               	movlw	0
   372  00746E  6E13               	movwf	___flmul@a^0,c
   373  007470  0E00               	movlw	0
   374  007472  6E14               	movwf	(___flmul@a+1)^0,c
   375  007474  0EA0               	movlw	160
   376  007476  6E15               	movwf	(___flmul@a+2)^0,c
   377  007478  0E40               	movlw	64
   378  00747A  6E16               	movwf	(___flmul@a+3)^0,c
   379  00747C  C043  F001         	movff	main@adc,___xxtofl@val
   380  007480  C044  F002         	movff	main@adc+1,___xxtofl@val+1
   381  007484  0E00               	movlw	0
   382  007486  BE02               	btfsc	(___xxtofl@val+1)^0,7,c
   383  007488  0EFF               	movlw	-1
   384  00748A  6E03               	movwf	(___xxtofl@val+2)^0,c
   385  00748C  6E04               	movwf	(___xxtofl@val+3)^0,c
   386  00748E  0E01               	movlw	1
   387  007490  EC48  F035         	call	___xxtofl
   388  007494  C001  F00F         	movff	?___xxtofl,___flmul@b
   389  007498  C002  F010         	movff	?___xxtofl+1,___flmul@b+1
   390  00749C  C003  F011         	movff	?___xxtofl+2,___flmul@b+2
   391  0074A0  C004  F012         	movff	?___xxtofl+3,___flmul@b+3
   392  0074A4  ECEF  F037         	call	___flmul	;wreg free
   393  0074A8  C00F  F028         	movff	?___flmul,___fldiv@b
   394  0074AC  C010  F029         	movff	?___flmul+1,___fldiv@b+1
   395  0074B0  C011  F02A         	movff	?___flmul+2,___fldiv@b+2
   396  0074B4  C012  F02B         	movff	?___flmul+3,___fldiv@b+3
   397  0074B8  0E00               	movlw	0
   398  0074BA  6E2C               	movwf	___fldiv@a^0,c
   399  0074BC  0E00               	movlw	0
   400  0074BE  6E2D               	movwf	(___fldiv@a+1)^0,c
   401  0074C0  0E80               	movlw	128
   402  0074C2  6E2E               	movwf	(___fldiv@a+2)^0,c
   403  0074C4  0E44               	movlw	68
   404  0074C6  6E2F               	movwf	(___fldiv@a+3)^0,c
   405  0074C8  EC22  F036         	call	___fldiv	;wreg free
   406  0074CC  C028  F045         	movff	?___fldiv,main@volt
   407  0074D0  C029  F046         	movff	?___fldiv+1,main@volt+1
   408  0074D4  C02A  F047         	movff	?___fldiv+2,main@volt+2
   409  0074D8  C02B  F048         	movff	?___fldiv+3,main@volt+3
   410  0074DC                     
   411                           ;newmain.c: 59:             if(volt == 0.1){
   412  0074DC  C045  F001         	movff	main@volt,___fleq@ff1
   413  0074E0  C046  F002         	movff	main@volt+1,___fleq@ff1+1
   414  0074E4  C047  F003         	movff	main@volt+2,___fleq@ff1+2
   415  0074E8  C048  F004         	movff	main@volt+3,___fleq@ff1+3
   416  0074EC  0ECD               	movlw	205
   417  0074EE  6E05               	movwf	___fleq@ff2^0,c
   418  0074F0  0ECC               	movlw	204
   419  0074F2  6E06               	movwf	(___fleq@ff2+1)^0,c
   420  0074F4  0ECC               	movlw	204
   421  0074F6  6E07               	movwf	(___fleq@ff2+2)^0,c
   422  0074F8  0E3D               	movlw	61
   423  0074FA  6E08               	movwf	(___fleq@ff2+3)^0,c
   424  0074FC  ECF3  F034         	call	___fleq	;wreg free
   425  007500  A0D8               	btfss	status,0,c
   426  007502  EF85  F03A         	goto	u1601
   427  007506  EF87  F03A         	goto	u1600
   428  00750A                     u1601:
   429  00750A  EF8B  F03A         	goto	l1776
   430  00750E                     u1600:
   431  00750E                     
   432                           ;newmain.c: 60:                 PORTB = 0b00010000;
   433  00750E  0E10               	movlw	16
   434  007510  6E81               	movwf	129,c	;volatile
   435                           
   436                           ;newmain.c: 61:             }
   437  007512  EFFB  F03F         	goto	l1968
   438  007516                     l1776:
   439  007516  C045  F001         	movff	main@volt,___fleq@ff1
   440  00751A  C046  F002         	movff	main@volt+1,___fleq@ff1+1
   441  00751E  C047  F003         	movff	main@volt+2,___fleq@ff1+2
   442  007522  C048  F004         	movff	main@volt+3,___fleq@ff1+3
   443  007526  0ECD               	movlw	205
   444  007528  6E05               	movwf	___fleq@ff2^0,c
   445  00752A  0ECC               	movlw	204
   446  00752C  6E06               	movwf	(___fleq@ff2+1)^0,c
   447  00752E  0E4C               	movlw	76
   448  007530  6E07               	movwf	(___fleq@ff2+2)^0,c
   449  007532  0E3E               	movlw	62
   450  007534  6E08               	movwf	(___fleq@ff2+3)^0,c
   451  007536  ECF3  F034         	call	___fleq	;wreg free
   452  00753A  A0D8               	btfss	status,0,c
   453  00753C  EFA2  F03A         	goto	u1611
   454  007540  EFA4  F03A         	goto	u1610
   455  007544                     u1611:
   456  007544  EFA8  F03A         	goto	l1780
   457  007548                     u1610:
   458  007548                     
   459                           ;newmain.c: 65:                  PORTB = 0b00100000;
   460  007548  0E20               	movlw	32
   461  00754A  6E81               	movwf	129,c	;volatile
   462                           
   463                           ;newmain.c: 66:             }
   464  00754C  EFFB  F03F         	goto	l1968
   465  007550                     l1780:
   466  007550  C045  F001         	movff	main@volt,___fleq@ff1
   467  007554  C046  F002         	movff	main@volt+1,___fleq@ff1+1
   468  007558  C047  F003         	movff	main@volt+2,___fleq@ff1+2
   469  00755C  C048  F004         	movff	main@volt+3,___fleq@ff1+3
   470  007560  0E9A               	movlw	154
   471  007562  6E05               	movwf	___fleq@ff2^0,c
   472  007564  0E99               	movlw	153
   473  007566  6E06               	movwf	(___fleq@ff2+1)^0,c
   474  007568  0E99               	movlw	153
   475  00756A  6E07               	movwf	(___fleq@ff2+2)^0,c
   476  00756C  0E3E               	movlw	62
   477  00756E  6E08               	movwf	(___fleq@ff2+3)^0,c
   478  007570  ECF3  F034         	call	___fleq	;wreg free
   479  007574  A0D8               	btfss	status,0,c
   480  007576  EFBF  F03A         	goto	u1621
   481  00757A  EFC1  F03A         	goto	u1620
   482  00757E                     u1621:
   483  00757E  EFC5  F03A         	goto	l1784
   484  007582                     u1620:
   485  007582                     
   486                           ;newmain.c: 68:                 PORTB = 0b00110000;
   487  007582  0E30               	movlw	48
   488  007584  6E81               	movwf	129,c	;volatile
   489                           
   490                           ;newmain.c: 69:             }
   491  007586  EFFB  F03F         	goto	l1968
   492  00758A                     l1784:
   493  00758A  C045  F001         	movff	main@volt,___fleq@ff1
   494  00758E  C046  F002         	movff	main@volt+1,___fleq@ff1+1
   495  007592  C047  F003         	movff	main@volt+2,___fleq@ff1+2
   496  007596  C048  F004         	movff	main@volt+3,___fleq@ff1+3
   497  00759A  0ECD               	movlw	205
   498  00759C  6E05               	movwf	___fleq@ff2^0,c
   499  00759E  0ECC               	movlw	204
   500  0075A0  6E06               	movwf	(___fleq@ff2+1)^0,c
   501  0075A2  0ECC               	movlw	204
   502  0075A4  6E07               	movwf	(___fleq@ff2+2)^0,c
   503  0075A6  0E3E               	movlw	62
   504  0075A8  6E08               	movwf	(___fleq@ff2+3)^0,c
   505  0075AA  ECF3  F034         	call	___fleq	;wreg free
   506  0075AE  A0D8               	btfss	status,0,c
   507  0075B0  EFDC  F03A         	goto	u1631
   508  0075B4  EFDE  F03A         	goto	u1630
   509  0075B8                     u1631:
   510  0075B8  EFE2  F03A         	goto	l1788
   511  0075BC                     u1630:
   512  0075BC                     
   513                           ;newmain.c: 71:                 PORTB = 0b01000000;
   514  0075BC  0E40               	movlw	64
   515  0075BE  6E81               	movwf	129,c	;volatile
   516                           
   517                           ;newmain.c: 73:             }
   518  0075C0  EFFB  F03F         	goto	l1968
   519  0075C4                     l1788:
   520  0075C4  C045  F001         	movff	main@volt,___fleq@ff1
   521  0075C8  C046  F002         	movff	main@volt+1,___fleq@ff1+1
   522  0075CC  C047  F003         	movff	main@volt+2,___fleq@ff1+2
   523  0075D0  C048  F004         	movff	main@volt+3,___fleq@ff1+3
   524  0075D4  0E00               	movlw	0
   525  0075D6  6E05               	movwf	___fleq@ff2^0,c
   526  0075D8  0E00               	movlw	0
   527  0075DA  6E06               	movwf	(___fleq@ff2+1)^0,c
   528  0075DC  0E00               	movlw	0
   529  0075DE  6E07               	movwf	(___fleq@ff2+2)^0,c
   530  0075E0  0E3F               	movlw	63
   531  0075E2  6E08               	movwf	(___fleq@ff2+3)^0,c
   532  0075E4  ECF3  F034         	call	___fleq	;wreg free
   533  0075E8  A0D8               	btfss	status,0,c
   534  0075EA  EFF9  F03A         	goto	u1641
   535  0075EE  EFFB  F03A         	goto	u1640
   536  0075F2                     u1641:
   537  0075F2  EFFF  F03A         	goto	l1792
   538  0075F6                     u1640:
   539  0075F6                     
   540                           ;newmain.c: 75:                 PORTB = 0b01010000;
   541  0075F6  0E50               	movlw	80
   542  0075F8  6E81               	movwf	129,c	;volatile
   543                           
   544                           ;newmain.c: 76:             }
   545  0075FA  EFFB  F03F         	goto	l1968
   546  0075FE                     l1792:
   547  0075FE  C045  F001         	movff	main@volt,___fleq@ff1
   548  007602  C046  F002         	movff	main@volt+1,___fleq@ff1+1
   549  007606  C047  F003         	movff	main@volt+2,___fleq@ff1+2
   550  00760A  C048  F004         	movff	main@volt+3,___fleq@ff1+3
   551  00760E  0E9A               	movlw	154
   552  007610  6E05               	movwf	___fleq@ff2^0,c
   553  007612  0E99               	movlw	153
   554  007614  6E06               	movwf	(___fleq@ff2+1)^0,c
   555  007616  0E19               	movlw	25
   556  007618  6E07               	movwf	(___fleq@ff2+2)^0,c
   557  00761A  0E3F               	movlw	63
   558  00761C  6E08               	movwf	(___fleq@ff2+3)^0,c
   559  00761E  ECF3  F034         	call	___fleq	;wreg free
   560  007622  A0D8               	btfss	status,0,c
   561  007624  EF16  F03B         	goto	u1651
   562  007628  EF18  F03B         	goto	u1650
   563  00762C                     u1651:
   564  00762C  EF1C  F03B         	goto	l1796
   565  007630                     u1650:
   566  007630                     
   567                           ;newmain.c: 78:                 PORTB = 0b01100000;
   568  007630  0E60               	movlw	96
   569  007632  6E81               	movwf	129,c	;volatile
   570                           
   571                           ;newmain.c: 79:             }
   572  007634  EFFB  F03F         	goto	l1968
   573  007638                     l1796:
   574  007638  C045  F001         	movff	main@volt,___fleq@ff1
   575  00763C  C046  F002         	movff	main@volt+1,___fleq@ff1+1
   576  007640  C047  F003         	movff	main@volt+2,___fleq@ff1+2
   577  007644  C048  F004         	movff	main@volt+3,___fleq@ff1+3
   578  007648  0E33               	movlw	51
   579  00764A  6E05               	movwf	___fleq@ff2^0,c
   580  00764C  0E33               	movlw	51
   581  00764E  6E06               	movwf	(___fleq@ff2+1)^0,c
   582  007650  0E33               	movlw	51
   583  007652  6E07               	movwf	(___fleq@ff2+2)^0,c
   584  007654  0E3F               	movlw	63
   585  007656  6E08               	movwf	(___fleq@ff2+3)^0,c
   586  007658  ECF3  F034         	call	___fleq	;wreg free
   587  00765C  A0D8               	btfss	status,0,c
   588  00765E  EF33  F03B         	goto	u1661
   589  007662  EF35  F03B         	goto	u1660
   590  007666                     u1661:
   591  007666  EF39  F03B         	goto	l1800
   592  00766A                     u1660:
   593  00766A                     
   594                           ;newmain.c: 81:                  PORTB = 0b01110000;
   595  00766A  0E70               	movlw	112
   596  00766C  6E81               	movwf	129,c	;volatile
   597                           
   598                           ;newmain.c: 82:             }
   599  00766E  EFFB  F03F         	goto	l1968
   600  007672                     l1800:
   601  007672  C045  F001         	movff	main@volt,___fleq@ff1
   602  007676  C046  F002         	movff	main@volt+1,___fleq@ff1+1
   603  00767A  C047  F003         	movff	main@volt+2,___fleq@ff1+2
   604  00767E  C048  F004         	movff	main@volt+3,___fleq@ff1+3
   605  007682  0ECD               	movlw	205
   606  007684  6E05               	movwf	___fleq@ff2^0,c
   607  007686  0ECC               	movlw	204
   608  007688  6E06               	movwf	(___fleq@ff2+1)^0,c
   609  00768A  0E4C               	movlw	76
   610  00768C  6E07               	movwf	(___fleq@ff2+2)^0,c
   611  00768E  0E3F               	movlw	63
   612  007690  6E08               	movwf	(___fleq@ff2+3)^0,c
   613  007692  ECF3  F034         	call	___fleq	;wreg free
   614  007696  A0D8               	btfss	status,0,c
   615  007698  EF50  F03B         	goto	u1671
   616  00769C  EF52  F03B         	goto	u1670
   617  0076A0                     u1671:
   618  0076A0  EF56  F03B         	goto	l1804
   619  0076A4                     u1670:
   620  0076A4                     
   621                           ;newmain.c: 84:                  PORTB = 0b10000000;
   622  0076A4  0E80               	movlw	128
   623  0076A6  6E81               	movwf	129,c	;volatile
   624                           
   625                           ;newmain.c: 85:             }
   626  0076A8  EFFB  F03F         	goto	l1968
   627  0076AC                     l1804:
   628  0076AC  C045  F001         	movff	main@volt,___fleq@ff1
   629  0076B0  C046  F002         	movff	main@volt+1,___fleq@ff1+1
   630  0076B4  C047  F003         	movff	main@volt+2,___fleq@ff1+2
   631  0076B8  C048  F004         	movff	main@volt+3,___fleq@ff1+3
   632  0076BC  0E66               	movlw	102
   633  0076BE  6E05               	movwf	___fleq@ff2^0,c
   634  0076C0  0E66               	movlw	102
   635  0076C2  6E06               	movwf	(___fleq@ff2+1)^0,c
   636  0076C4  0E66               	movlw	102
   637  0076C6  6E07               	movwf	(___fleq@ff2+2)^0,c
   638  0076C8  0E3F               	movlw	63
   639  0076CA  6E08               	movwf	(___fleq@ff2+3)^0,c
   640  0076CC  ECF3  F034         	call	___fleq	;wreg free
   641  0076D0  A0D8               	btfss	status,0,c
   642  0076D2  EF6D  F03B         	goto	u1681
   643  0076D6  EF6F  F03B         	goto	u1680
   644  0076DA                     u1681:
   645  0076DA  EF73  F03B         	goto	l1808
   646  0076DE                     u1680:
   647  0076DE                     
   648                           ;newmain.c: 87:                  PORTB = 0b10010000;
   649  0076DE  0E90               	movlw	144
   650  0076E0  6E81               	movwf	129,c	;volatile
   651                           
   652                           ;newmain.c: 88:             }
   653  0076E2  EFFB  F03F         	goto	l1968
   654  0076E6                     l1808:
   655  0076E6  C045  F001         	movff	main@volt,___fleq@ff1
   656  0076EA  C046  F002         	movff	main@volt+1,___fleq@ff1+1
   657  0076EE  C047  F003         	movff	main@volt+2,___fleq@ff1+2
   658  0076F2  C048  F004         	movff	main@volt+3,___fleq@ff1+3
   659  0076F6  0E00               	movlw	0
   660  0076F8  6E05               	movwf	___fleq@ff2^0,c
   661  0076FA  0E00               	movlw	0
   662  0076FC  6E06               	movwf	(___fleq@ff2+1)^0,c
   663  0076FE  0E80               	movlw	128
   664  007700  6E07               	movwf	(___fleq@ff2+2)^0,c
   665  007702  0E3F               	movlw	63
   666  007704  6E08               	movwf	(___fleq@ff2+3)^0,c
   667  007706  ECF3  F034         	call	___fleq	;wreg free
   668  00770A  A0D8               	btfss	status,0,c
   669  00770C  EF8A  F03B         	goto	u1691
   670  007710  EF8C  F03B         	goto	u1690
   671  007714                     u1691:
   672  007714  EF90  F03B         	goto	l1812
   673  007718                     u1690:
   674  007718                     
   675                           ;newmain.c: 90:                  PORTB = 0b00000001;
   676  007718  0E01               	movlw	1
   677  00771A  6E81               	movwf	129,c	;volatile
   678                           
   679                           ;newmain.c: 91:             }
   680  00771C  EFFB  F03F         	goto	l1968
   681  007720                     l1812:
   682  007720  C045  F001         	movff	main@volt,___fleq@ff1
   683  007724  C046  F002         	movff	main@volt+1,___fleq@ff1+1
   684  007728  C047  F003         	movff	main@volt+2,___fleq@ff1+2
   685  00772C  C048  F004         	movff	main@volt+3,___fleq@ff1+3
   686  007730  0ECD               	movlw	205
   687  007732  6E05               	movwf	___fleq@ff2^0,c
   688  007734  0ECC               	movlw	204
   689  007736  6E06               	movwf	(___fleq@ff2+1)^0,c
   690  007738  0E8C               	movlw	140
   691  00773A  6E07               	movwf	(___fleq@ff2+2)^0,c
   692  00773C  0E3F               	movlw	63
   693  00773E  6E08               	movwf	(___fleq@ff2+3)^0,c
   694  007740  ECF3  F034         	call	___fleq	;wreg free
   695  007744  A0D8               	btfss	status,0,c
   696  007746  EFA7  F03B         	goto	u1701
   697  00774A  EFA9  F03B         	goto	u1700
   698  00774E                     u1701:
   699  00774E  EFAD  F03B         	goto	l1816
   700  007752                     u1700:
   701  007752                     
   702                           ;newmain.c: 93:                  PORTB = 0b00010001;
   703  007752  0E11               	movlw	17
   704  007754  6E81               	movwf	129,c	;volatile
   705                           
   706                           ;newmain.c: 94:             }
   707  007756  EFFB  F03F         	goto	l1968
   708  00775A                     l1816:
   709  00775A  C045  F001         	movff	main@volt,___fleq@ff1
   710  00775E  C046  F002         	movff	main@volt+1,___fleq@ff1+1
   711  007762  C047  F003         	movff	main@volt+2,___fleq@ff1+2
   712  007766  C048  F004         	movff	main@volt+3,___fleq@ff1+3
   713  00776A  0E9A               	movlw	154
   714  00776C  6E05               	movwf	___fleq@ff2^0,c
   715  00776E  0E99               	movlw	153
   716  007770  6E06               	movwf	(___fleq@ff2+1)^0,c
   717  007772  0E99               	movlw	153
   718  007774  6E07               	movwf	(___fleq@ff2+2)^0,c
   719  007776  0E3F               	movlw	63
   720  007778  6E08               	movwf	(___fleq@ff2+3)^0,c
   721  00777A  ECF3  F034         	call	___fleq	;wreg free
   722  00777E  A0D8               	btfss	status,0,c
   723  007780  EFC4  F03B         	goto	u1711
   724  007784  EFC6  F03B         	goto	u1710
   725  007788                     u1711:
   726  007788  EFCA  F03B         	goto	l1820
   727  00778C                     u1710:
   728  00778C                     
   729                           ;newmain.c: 96:                 PORTB = 0b00100001;
   730  00778C  0E21               	movlw	33
   731  00778E  6E81               	movwf	129,c	;volatile
   732                           
   733                           ;newmain.c: 97:             }
   734  007790  EFFB  F03F         	goto	l1968
   735  007794                     l1820:
   736  007794  C045  F001         	movff	main@volt,___fleq@ff1
   737  007798  C046  F002         	movff	main@volt+1,___fleq@ff1+1
   738  00779C  C047  F003         	movff	main@volt+2,___fleq@ff1+2
   739  0077A0  C048  F004         	movff	main@volt+3,___fleq@ff1+3
   740  0077A4  0E66               	movlw	102
   741  0077A6  6E05               	movwf	___fleq@ff2^0,c
   742  0077A8  0E66               	movlw	102
   743  0077AA  6E06               	movwf	(___fleq@ff2+1)^0,c
   744  0077AC  0EA6               	movlw	166
   745  0077AE  6E07               	movwf	(___fleq@ff2+2)^0,c
   746  0077B0  0E3F               	movlw	63
   747  0077B2  6E08               	movwf	(___fleq@ff2+3)^0,c
   748  0077B4  ECF3  F034         	call	___fleq	;wreg free
   749  0077B8  A0D8               	btfss	status,0,c
   750  0077BA  EFE1  F03B         	goto	u1721
   751  0077BE  EFE3  F03B         	goto	u1720
   752  0077C2                     u1721:
   753  0077C2  EFE7  F03B         	goto	l1824
   754  0077C6                     u1720:
   755  0077C6                     
   756                           ;newmain.c: 100:                 PORTB = 0b00110001;
   757  0077C6  0E31               	movlw	49
   758  0077C8  6E81               	movwf	129,c	;volatile
   759                           
   760                           ;newmain.c: 101:             }
   761  0077CA  EFFB  F03F         	goto	l1968
   762  0077CE                     l1824:
   763  0077CE  C045  F001         	movff	main@volt,___fleq@ff1
   764  0077D2  C046  F002         	movff	main@volt+1,___fleq@ff1+1
   765  0077D6  C047  F003         	movff	main@volt+2,___fleq@ff1+2
   766  0077DA  C048  F004         	movff	main@volt+3,___fleq@ff1+3
   767  0077DE  0E33               	movlw	51
   768  0077E0  6E05               	movwf	___fleq@ff2^0,c
   769  0077E2  0E33               	movlw	51
   770  0077E4  6E06               	movwf	(___fleq@ff2+1)^0,c
   771  0077E6  0EB3               	movlw	179
   772  0077E8  6E07               	movwf	(___fleq@ff2+2)^0,c
   773  0077EA  0E3F               	movlw	63
   774  0077EC  6E08               	movwf	(___fleq@ff2+3)^0,c
   775  0077EE  ECF3  F034         	call	___fleq	;wreg free
   776  0077F2  A0D8               	btfss	status,0,c
   777  0077F4  EFFE  F03B         	goto	u1731
   778  0077F8  EF00  F03C         	goto	u1730
   779  0077FC                     u1731:
   780  0077FC  EF04  F03C         	goto	l1828
   781  007800                     u1730:
   782  007800                     
   783                           ;newmain.c: 104:                 PORTB = 0b01000001;
   784  007800  0E41               	movlw	65
   785  007802  6E81               	movwf	129,c	;volatile
   786                           
   787                           ;newmain.c: 106:             }
   788  007804  EFFB  F03F         	goto	l1968
   789  007808                     l1828:
   790  007808  C045  F001         	movff	main@volt,___fleq@ff1
   791  00780C  C046  F002         	movff	main@volt+1,___fleq@ff1+1
   792  007810  C047  F003         	movff	main@volt+2,___fleq@ff1+2
   793  007814  C048  F004         	movff	main@volt+3,___fleq@ff1+3
   794  007818  0E00               	movlw	0
   795  00781A  6E05               	movwf	___fleq@ff2^0,c
   796  00781C  0E00               	movlw	0
   797  00781E  6E06               	movwf	(___fleq@ff2+1)^0,c
   798  007820  0EC0               	movlw	192
   799  007822  6E07               	movwf	(___fleq@ff2+2)^0,c
   800  007824  0E3F               	movlw	63
   801  007826  6E08               	movwf	(___fleq@ff2+3)^0,c
   802  007828  ECF3  F034         	call	___fleq	;wreg free
   803  00782C  A0D8               	btfss	status,0,c
   804  00782E  EF1B  F03C         	goto	u1741
   805  007832  EF1D  F03C         	goto	u1740
   806  007836                     u1741:
   807  007836  EF21  F03C         	goto	l1832
   808  00783A                     u1740:
   809  00783A                     
   810                           ;newmain.c: 109:                 PORTB = 0b01010001;
   811  00783A  0E51               	movlw	81
   812  00783C  6E81               	movwf	129,c	;volatile
   813                           
   814                           ;newmain.c: 111:             }
   815  00783E  EFFB  F03F         	goto	l1968
   816  007842                     l1832:
   817  007842  C045  F001         	movff	main@volt,___fleq@ff1
   818  007846  C046  F002         	movff	main@volt+1,___fleq@ff1+1
   819  00784A  C047  F003         	movff	main@volt+2,___fleq@ff1+2
   820  00784E  C048  F004         	movff	main@volt+3,___fleq@ff1+3
   821  007852  0ECD               	movlw	205
   822  007854  6E05               	movwf	___fleq@ff2^0,c
   823  007856  0ECC               	movlw	204
   824  007858  6E06               	movwf	(___fleq@ff2+1)^0,c
   825  00785A  0ECC               	movlw	204
   826  00785C  6E07               	movwf	(___fleq@ff2+2)^0,c
   827  00785E  0E3F               	movlw	63
   828  007860  6E08               	movwf	(___fleq@ff2+3)^0,c
   829  007862  ECF3  F034         	call	___fleq	;wreg free
   830  007866  A0D8               	btfss	status,0,c
   831  007868  EF38  F03C         	goto	u1751
   832  00786C  EF3A  F03C         	goto	u1750
   833  007870                     u1751:
   834  007870  EF3E  F03C         	goto	l1836
   835  007874                     u1750:
   836  007874                     
   837                           ;newmain.c: 114:                 PORTB = 0b01100001;
   838  007874  0E61               	movlw	97
   839  007876  6E81               	movwf	129,c	;volatile
   840                           
   841                           ;newmain.c: 116:             }
   842  007878  EFFB  F03F         	goto	l1968
   843  00787C                     l1836:
   844  00787C  C045  F001         	movff	main@volt,___fleq@ff1
   845  007880  C046  F002         	movff	main@volt+1,___fleq@ff1+1
   846  007884  C047  F003         	movff	main@volt+2,___fleq@ff1+2
   847  007888  C048  F004         	movff	main@volt+3,___fleq@ff1+3
   848  00788C  0E9A               	movlw	154
   849  00788E  6E05               	movwf	___fleq@ff2^0,c
   850  007890  0E99               	movlw	153
   851  007892  6E06               	movwf	(___fleq@ff2+1)^0,c
   852  007894  0ED9               	movlw	217
   853  007896  6E07               	movwf	(___fleq@ff2+2)^0,c
   854  007898  0E3F               	movlw	63
   855  00789A  6E08               	movwf	(___fleq@ff2+3)^0,c
   856  00789C  ECF3  F034         	call	___fleq	;wreg free
   857  0078A0  A0D8               	btfss	status,0,c
   858  0078A2  EF55  F03C         	goto	u1761
   859  0078A6  EF57  F03C         	goto	u1760
   860  0078AA                     u1761:
   861  0078AA  EF5B  F03C         	goto	l1840
   862  0078AE                     u1760:
   863  0078AE                     
   864                           ;newmain.c: 119:                 PORTB = 0b01110001;
   865  0078AE  0E71               	movlw	113
   866  0078B0  6E81               	movwf	129,c	;volatile
   867                           
   868                           ;newmain.c: 121:             }
   869  0078B2  EFFB  F03F         	goto	l1968
   870  0078B6                     l1840:
   871  0078B6  C045  F001         	movff	main@volt,___fleq@ff1
   872  0078BA  C046  F002         	movff	main@volt+1,___fleq@ff1+1
   873  0078BE  C047  F003         	movff	main@volt+2,___fleq@ff1+2
   874  0078C2  C048  F004         	movff	main@volt+3,___fleq@ff1+3
   875  0078C6  0E66               	movlw	102
   876  0078C8  6E05               	movwf	___fleq@ff2^0,c
   877  0078CA  0E66               	movlw	102
   878  0078CC  6E06               	movwf	(___fleq@ff2+1)^0,c
   879  0078CE  0EE6               	movlw	230
   880  0078D0  6E07               	movwf	(___fleq@ff2+2)^0,c
   881  0078D2  0E3F               	movlw	63
   882  0078D4  6E08               	movwf	(___fleq@ff2+3)^0,c
   883  0078D6  ECF3  F034         	call	___fleq	;wreg free
   884  0078DA  A0D8               	btfss	status,0,c
   885  0078DC  EF72  F03C         	goto	u1771
   886  0078E0  EF74  F03C         	goto	u1770
   887  0078E4                     u1771:
   888  0078E4  EF78  F03C         	goto	l1844
   889  0078E8                     u1770:
   890  0078E8                     
   891                           ;newmain.c: 124:                 PORTB = 0b10000001;
   892  0078E8  0E81               	movlw	129
   893  0078EA  6E81               	movwf	129,c	;volatile
   894                           
   895                           ;newmain.c: 126:             }
   896  0078EC  EFFB  F03F         	goto	l1968
   897  0078F0                     l1844:
   898  0078F0  C045  F001         	movff	main@volt,___fleq@ff1
   899  0078F4  C046  F002         	movff	main@volt+1,___fleq@ff1+1
   900  0078F8  C047  F003         	movff	main@volt+2,___fleq@ff1+2
   901  0078FC  C048  F004         	movff	main@volt+3,___fleq@ff1+3
   902  007900  0E33               	movlw	51
   903  007902  6E05               	movwf	___fleq@ff2^0,c
   904  007904  0E33               	movlw	51
   905  007906  6E06               	movwf	(___fleq@ff2+1)^0,c
   906  007908  0EF3               	movlw	243
   907  00790A  6E07               	movwf	(___fleq@ff2+2)^0,c
   908  00790C  0E3F               	movlw	63
   909  00790E  6E08               	movwf	(___fleq@ff2+3)^0,c
   910  007910  ECF3  F034         	call	___fleq	;wreg free
   911  007914  A0D8               	btfss	status,0,c
   912  007916  EF8F  F03C         	goto	u1781
   913  00791A  EF91  F03C         	goto	u1780
   914  00791E                     u1781:
   915  00791E  EF95  F03C         	goto	l1848
   916  007922                     u1780:
   917  007922                     
   918                           ;newmain.c: 129:                 PORTB = 0b10010001;
   919  007922  0E91               	movlw	145
   920  007924  6E81               	movwf	129,c	;volatile
   921                           
   922                           ;newmain.c: 130:             }
   923  007926  EFFB  F03F         	goto	l1968
   924  00792A                     l1848:
   925  00792A  C045  F001         	movff	main@volt,___fleq@ff1
   926  00792E  C046  F002         	movff	main@volt+1,___fleq@ff1+1
   927  007932  C047  F003         	movff	main@volt+2,___fleq@ff1+2
   928  007936  C048  F004         	movff	main@volt+3,___fleq@ff1+3
   929  00793A  0E00               	movlw	0
   930  00793C  6E05               	movwf	___fleq@ff2^0,c
   931  00793E  0E00               	movlw	0
   932  007940  6E06               	movwf	(___fleq@ff2+1)^0,c
   933  007942  0E00               	movlw	0
   934  007944  6E07               	movwf	(___fleq@ff2+2)^0,c
   935  007946  0E40               	movlw	64
   936  007948  6E08               	movwf	(___fleq@ff2+3)^0,c
   937  00794A  ECF3  F034         	call	___fleq	;wreg free
   938  00794E  A0D8               	btfss	status,0,c
   939  007950  EFAC  F03C         	goto	u1791
   940  007954  EFAE  F03C         	goto	u1790
   941  007958                     u1791:
   942  007958  EFB2  F03C         	goto	l1852
   943  00795C                     u1790:
   944  00795C                     
   945                           ;newmain.c: 133:                 PORTB = 0b00000010;
   946  00795C  0E02               	movlw	2
   947  00795E  6E81               	movwf	129,c	;volatile
   948                           
   949                           ;newmain.c: 135:             }
   950  007960  EFFB  F03F         	goto	l1968
   951  007964                     l1852:
   952  007964  C045  F001         	movff	main@volt,___fleq@ff1
   953  007968  C046  F002         	movff	main@volt+1,___fleq@ff1+1
   954  00796C  C047  F003         	movff	main@volt+2,___fleq@ff1+2
   955  007970  C048  F004         	movff	main@volt+3,___fleq@ff1+3
   956  007974  0E66               	movlw	102
   957  007976  6E05               	movwf	___fleq@ff2^0,c
   958  007978  0E66               	movlw	102
   959  00797A  6E06               	movwf	(___fleq@ff2+1)^0,c
   960  00797C  0E06               	movlw	6
   961  00797E  6E07               	movwf	(___fleq@ff2+2)^0,c
   962  007980  0E40               	movlw	64
   963  007982  6E08               	movwf	(___fleq@ff2+3)^0,c
   964  007984  ECF3  F034         	call	___fleq	;wreg free
   965  007988  A0D8               	btfss	status,0,c
   966  00798A  EFC9  F03C         	goto	u1801
   967  00798E  EFCB  F03C         	goto	u1800
   968  007992                     u1801:
   969  007992  EFCF  F03C         	goto	l1856
   970  007996                     u1800:
   971  007996                     
   972                           ;newmain.c: 138:                 PORTB = 0b00010010;
   973  007996  0E12               	movlw	18
   974  007998  6E81               	movwf	129,c	;volatile
   975                           
   976                           ;newmain.c: 139:             }
   977  00799A  EFFB  F03F         	goto	l1968
   978  00799E                     l1856:
   979  00799E  C045  F001         	movff	main@volt,___fleq@ff1
   980  0079A2  C046  F002         	movff	main@volt+1,___fleq@ff1+1
   981  0079A6  C047  F003         	movff	main@volt+2,___fleq@ff1+2
   982  0079AA  C048  F004         	movff	main@volt+3,___fleq@ff1+3
   983  0079AE  0ECD               	movlw	205
   984  0079B0  6E05               	movwf	___fleq@ff2^0,c
   985  0079B2  0ECC               	movlw	204
   986  0079B4  6E06               	movwf	(___fleq@ff2+1)^0,c
   987  0079B6  0E0C               	movlw	12
   988  0079B8  6E07               	movwf	(___fleq@ff2+2)^0,c
   989  0079BA  0E40               	movlw	64
   990  0079BC  6E08               	movwf	(___fleq@ff2+3)^0,c
   991  0079BE  ECF3  F034         	call	___fleq	;wreg free
   992  0079C2  A0D8               	btfss	status,0,c
   993  0079C4  EFE6  F03C         	goto	u1811
   994  0079C8  EFE8  F03C         	goto	u1810
   995  0079CC                     u1811:
   996  0079CC  EFEC  F03C         	goto	l1860
   997  0079D0                     u1810:
   998  0079D0                     
   999                           ;newmain.c: 142:                 PORTB = 0b00100010;
  1000  0079D0  0E22               	movlw	34
  1001  0079D2  6E81               	movwf	129,c	;volatile
  1002                           
  1003                           ;newmain.c: 144:             }
  1004  0079D4  EFFB  F03F         	goto	l1968
  1005  0079D8                     l1860:
  1006  0079D8  C045  F001         	movff	main@volt,___fleq@ff1
  1007  0079DC  C046  F002         	movff	main@volt+1,___fleq@ff1+1
  1008  0079E0  C047  F003         	movff	main@volt+2,___fleq@ff1+2
  1009  0079E4  C048  F004         	movff	main@volt+3,___fleq@ff1+3
  1010  0079E8  0E33               	movlw	51
  1011  0079EA  6E05               	movwf	___fleq@ff2^0,c
  1012  0079EC  0E33               	movlw	51
  1013  0079EE  6E06               	movwf	(___fleq@ff2+1)^0,c
  1014  0079F0  0E13               	movlw	19
  1015  0079F2  6E07               	movwf	(___fleq@ff2+2)^0,c
  1016  0079F4  0E40               	movlw	64
  1017  0079F6  6E08               	movwf	(___fleq@ff2+3)^0,c
  1018  0079F8  ECF3  F034         	call	___fleq	;wreg free
  1019  0079FC  A0D8               	btfss	status,0,c
  1020  0079FE  EF03  F03D         	goto	u1821
  1021  007A02  EF05  F03D         	goto	u1820
  1022  007A06                     u1821:
  1023  007A06  EF09  F03D         	goto	l1864
  1024  007A0A                     u1820:
  1025  007A0A                     
  1026                           ;newmain.c: 147:                 PORTB = 0b00110010;
  1027  007A0A  0E32               	movlw	50
  1028  007A0C  6E81               	movwf	129,c	;volatile
  1029                           
  1030                           ;newmain.c: 149:             }
  1031  007A0E  EFFB  F03F         	goto	l1968
  1032  007A12                     l1864:
  1033  007A12  C045  F001         	movff	main@volt,___fleq@ff1
  1034  007A16  C046  F002         	movff	main@volt+1,___fleq@ff1+1
  1035  007A1A  C047  F003         	movff	main@volt+2,___fleq@ff1+2
  1036  007A1E  C048  F004         	movff	main@volt+3,___fleq@ff1+3
  1037  007A22  0E9A               	movlw	154
  1038  007A24  6E05               	movwf	___fleq@ff2^0,c
  1039  007A26  0E99               	movlw	153
  1040  007A28  6E06               	movwf	(___fleq@ff2+1)^0,c
  1041  007A2A  0E19               	movlw	25
  1042  007A2C  6E07               	movwf	(___fleq@ff2+2)^0,c
  1043  007A2E  0E40               	movlw	64
  1044  007A30  6E08               	movwf	(___fleq@ff2+3)^0,c
  1045  007A32  ECF3  F034         	call	___fleq	;wreg free
  1046  007A36  A0D8               	btfss	status,0,c
  1047  007A38  EF20  F03D         	goto	u1831
  1048  007A3C  EF22  F03D         	goto	u1830
  1049  007A40                     u1831:
  1050  007A40  EF26  F03D         	goto	l1868
  1051  007A44                     u1830:
  1052  007A44                     
  1053                           ;newmain.c: 152:                 PORTB = 0b01000010;
  1054  007A44  0E42               	movlw	66
  1055  007A46  6E81               	movwf	129,c	;volatile
  1056                           
  1057                           ;newmain.c: 153:             }
  1058  007A48  EFFB  F03F         	goto	l1968
  1059  007A4C                     l1868:
  1060  007A4C  C045  F001         	movff	main@volt,___fleq@ff1
  1061  007A50  C046  F002         	movff	main@volt+1,___fleq@ff1+1
  1062  007A54  C047  F003         	movff	main@volt+2,___fleq@ff1+2
  1063  007A58  C048  F004         	movff	main@volt+3,___fleq@ff1+3
  1064  007A5C  0E00               	movlw	0
  1065  007A5E  6E05               	movwf	___fleq@ff2^0,c
  1066  007A60  0E00               	movlw	0
  1067  007A62  6E06               	movwf	(___fleq@ff2+1)^0,c
  1068  007A64  0E20               	movlw	32
  1069  007A66  6E07               	movwf	(___fleq@ff2+2)^0,c
  1070  007A68  0E40               	movlw	64
  1071  007A6A  6E08               	movwf	(___fleq@ff2+3)^0,c
  1072  007A6C  ECF3  F034         	call	___fleq	;wreg free
  1073  007A70  A0D8               	btfss	status,0,c
  1074  007A72  EF3D  F03D         	goto	u1841
  1075  007A76  EF3F  F03D         	goto	u1840
  1076  007A7A                     u1841:
  1077  007A7A  EF43  F03D         	goto	l1872
  1078  007A7E                     u1840:
  1079  007A7E                     
  1080                           ;newmain.c: 156:                 PORTB = 0b01010010;
  1081  007A7E  0E52               	movlw	82
  1082  007A80  6E81               	movwf	129,c	;volatile
  1083                           
  1084                           ;newmain.c: 158:             }
  1085  007A82  EFFB  F03F         	goto	l1968
  1086  007A86                     l1872:
  1087  007A86  C045  F001         	movff	main@volt,___fleq@ff1
  1088  007A8A  C046  F002         	movff	main@volt+1,___fleq@ff1+1
  1089  007A8E  C047  F003         	movff	main@volt+2,___fleq@ff1+2
  1090  007A92  C048  F004         	movff	main@volt+3,___fleq@ff1+3
  1091  007A96  0E66               	movlw	102
  1092  007A98  6E05               	movwf	___fleq@ff2^0,c
  1093  007A9A  0E66               	movlw	102
  1094  007A9C  6E06               	movwf	(___fleq@ff2+1)^0,c
  1095  007A9E  0E26               	movlw	38
  1096  007AA0  6E07               	movwf	(___fleq@ff2+2)^0,c
  1097  007AA2  0E40               	movlw	64
  1098  007AA4  6E08               	movwf	(___fleq@ff2+3)^0,c
  1099  007AA6  ECF3  F034         	call	___fleq	;wreg free
  1100  007AAA  A0D8               	btfss	status,0,c
  1101  007AAC  EF5A  F03D         	goto	u1851
  1102  007AB0  EF5C  F03D         	goto	u1850
  1103  007AB4                     u1851:
  1104  007AB4  EF60  F03D         	goto	l1876
  1105  007AB8                     u1850:
  1106  007AB8                     
  1107                           ;newmain.c: 161:                 PORTB = 0b01100010;
  1108  007AB8  0E62               	movlw	98
  1109  007ABA  6E81               	movwf	129,c	;volatile
  1110                           
  1111                           ;newmain.c: 163:             }
  1112  007ABC  EFFB  F03F         	goto	l1968
  1113  007AC0                     l1876:
  1114  007AC0  C045  F001         	movff	main@volt,___fleq@ff1
  1115  007AC4  C046  F002         	movff	main@volt+1,___fleq@ff1+1
  1116  007AC8  C047  F003         	movff	main@volt+2,___fleq@ff1+2
  1117  007ACC  C048  F004         	movff	main@volt+3,___fleq@ff1+3
  1118  007AD0  0ECD               	movlw	205
  1119  007AD2  6E05               	movwf	___fleq@ff2^0,c
  1120  007AD4  0ECC               	movlw	204
  1121  007AD6  6E06               	movwf	(___fleq@ff2+1)^0,c
  1122  007AD8  0E2C               	movlw	44
  1123  007ADA  6E07               	movwf	(___fleq@ff2+2)^0,c
  1124  007ADC  0E40               	movlw	64
  1125  007ADE  6E08               	movwf	(___fleq@ff2+3)^0,c
  1126  007AE0  ECF3  F034         	call	___fleq	;wreg free
  1127  007AE4  A0D8               	btfss	status,0,c
  1128  007AE6  EF77  F03D         	goto	u1861
  1129  007AEA  EF79  F03D         	goto	u1860
  1130  007AEE                     u1861:
  1131  007AEE  EF7D  F03D         	goto	l1880
  1132  007AF2                     u1860:
  1133  007AF2                     
  1134                           ;newmain.c: 166:                 PORTB = 0b01110010;
  1135  007AF2  0E72               	movlw	114
  1136  007AF4  6E81               	movwf	129,c	;volatile
  1137                           
  1138                           ;newmain.c: 168:             }
  1139  007AF6  EFFB  F03F         	goto	l1968
  1140  007AFA                     l1880:
  1141  007AFA  C045  F001         	movff	main@volt,___fleq@ff1
  1142  007AFE  C046  F002         	movff	main@volt+1,___fleq@ff1+1
  1143  007B02  C047  F003         	movff	main@volt+2,___fleq@ff1+2
  1144  007B06  C048  F004         	movff	main@volt+3,___fleq@ff1+3
  1145  007B0A  0E33               	movlw	51
  1146  007B0C  6E05               	movwf	___fleq@ff2^0,c
  1147  007B0E  0E33               	movlw	51
  1148  007B10  6E06               	movwf	(___fleq@ff2+1)^0,c
  1149  007B12  0E33               	movlw	51
  1150  007B14  6E07               	movwf	(___fleq@ff2+2)^0,c
  1151  007B16  0E40               	movlw	64
  1152  007B18  6E08               	movwf	(___fleq@ff2+3)^0,c
  1153  007B1A  ECF3  F034         	call	___fleq	;wreg free
  1154  007B1E  A0D8               	btfss	status,0,c
  1155  007B20  EF94  F03D         	goto	u1871
  1156  007B24  EF96  F03D         	goto	u1870
  1157  007B28                     u1871:
  1158  007B28  EF9A  F03D         	goto	l1884
  1159  007B2C                     u1870:
  1160  007B2C                     
  1161                           ;newmain.c: 171:                 PORTB = 0b10000010;
  1162  007B2C  0E82               	movlw	130
  1163  007B2E  6E81               	movwf	129,c	;volatile
  1164                           
  1165                           ;newmain.c: 172:             }
  1166  007B30  EFFB  F03F         	goto	l1968
  1167  007B34                     l1884:
  1168  007B34  C045  F001         	movff	main@volt,___fleq@ff1
  1169  007B38  C046  F002         	movff	main@volt+1,___fleq@ff1+1
  1170  007B3C  C047  F003         	movff	main@volt+2,___fleq@ff1+2
  1171  007B40  C048  F004         	movff	main@volt+3,___fleq@ff1+3
  1172  007B44  0E00               	movlw	0
  1173  007B46  6E05               	movwf	___fleq@ff2^0,c
  1174  007B48  0E00               	movlw	0
  1175  007B4A  6E06               	movwf	(___fleq@ff2+1)^0,c
  1176  007B4C  0E40               	movlw	64
  1177  007B4E  6E07               	movwf	(___fleq@ff2+2)^0,c
  1178  007B50  0E40               	movlw	64
  1179  007B52  6E08               	movwf	(___fleq@ff2+3)^0,c
  1180  007B54  ECF3  F034         	call	___fleq	;wreg free
  1181  007B58  A0D8               	btfss	status,0,c
  1182  007B5A  EFB1  F03D         	goto	u1881
  1183  007B5E  EFB3  F03D         	goto	u1880
  1184  007B62                     u1881:
  1185  007B62  EFB7  F03D         	goto	l1888
  1186  007B66                     u1880:
  1187  007B66                     
  1188                           ;newmain.c: 175:                 PORTB = 0b00000011;
  1189  007B66  0E03               	movlw	3
  1190  007B68  6E81               	movwf	129,c	;volatile
  1191                           
  1192                           ;newmain.c: 176:             }
  1193  007B6A  EFFB  F03F         	goto	l1968
  1194  007B6E                     l1888:
  1195  007B6E  C045  F001         	movff	main@volt,___fleq@ff1
  1196  007B72  C046  F002         	movff	main@volt+1,___fleq@ff1+1
  1197  007B76  C047  F003         	movff	main@volt+2,___fleq@ff1+2
  1198  007B7A  C048  F004         	movff	main@volt+3,___fleq@ff1+3
  1199  007B7E  0E66               	movlw	102
  1200  007B80  6E05               	movwf	___fleq@ff2^0,c
  1201  007B82  0E66               	movlw	102
  1202  007B84  6E06               	movwf	(___fleq@ff2+1)^0,c
  1203  007B86  0E46               	movlw	70
  1204  007B88  6E07               	movwf	(___fleq@ff2+2)^0,c
  1205  007B8A  0E40               	movlw	64
  1206  007B8C  6E08               	movwf	(___fleq@ff2+3)^0,c
  1207  007B8E  ECF3  F034         	call	___fleq	;wreg free
  1208  007B92  A0D8               	btfss	status,0,c
  1209  007B94  EFCE  F03D         	goto	u1891
  1210  007B98  EFD0  F03D         	goto	u1890
  1211  007B9C                     u1891:
  1212  007B9C  EFD4  F03D         	goto	l1892
  1213  007BA0                     u1890:
  1214  007BA0                     
  1215                           ;newmain.c: 179:                 PORTB = 0b00010011;
  1216  007BA0  0E13               	movlw	19
  1217  007BA2  6E81               	movwf	129,c	;volatile
  1218                           
  1219                           ;newmain.c: 180:             }
  1220  007BA4  EFFB  F03F         	goto	l1968
  1221  007BA8                     l1892:
  1222  007BA8  C045  F001         	movff	main@volt,___fleq@ff1
  1223  007BAC  C046  F002         	movff	main@volt+1,___fleq@ff1+1
  1224  007BB0  C047  F003         	movff	main@volt+2,___fleq@ff1+2
  1225  007BB4  C048  F004         	movff	main@volt+3,___fleq@ff1+3
  1226  007BB8  0ECD               	movlw	205
  1227  007BBA  6E05               	movwf	___fleq@ff2^0,c
  1228  007BBC  0ECC               	movlw	204
  1229  007BBE  6E06               	movwf	(___fleq@ff2+1)^0,c
  1230  007BC0  0E4C               	movlw	76
  1231  007BC2  6E07               	movwf	(___fleq@ff2+2)^0,c
  1232  007BC4  0E40               	movlw	64
  1233  007BC6  6E08               	movwf	(___fleq@ff2+3)^0,c
  1234  007BC8  ECF3  F034         	call	___fleq	;wreg free
  1235  007BCC  A0D8               	btfss	status,0,c
  1236  007BCE  EFEB  F03D         	goto	u1901
  1237  007BD2  EFED  F03D         	goto	u1900
  1238  007BD6                     u1901:
  1239  007BD6  EFF1  F03D         	goto	l1896
  1240  007BDA                     u1900:
  1241  007BDA                     
  1242                           ;newmain.c: 183:                 PORTB = 0b00100011;
  1243  007BDA  0E23               	movlw	35
  1244  007BDC  6E81               	movwf	129,c	;volatile
  1245                           
  1246                           ;newmain.c: 184:             }
  1247  007BDE  EFFB  F03F         	goto	l1968
  1248  007BE2                     l1896:
  1249  007BE2  C045  F001         	movff	main@volt,___fleq@ff1
  1250  007BE6  C046  F002         	movff	main@volt+1,___fleq@ff1+1
  1251  007BEA  C047  F003         	movff	main@volt+2,___fleq@ff1+2
  1252  007BEE  C048  F004         	movff	main@volt+3,___fleq@ff1+3
  1253  007BF2  0E33               	movlw	51
  1254  007BF4  6E05               	movwf	___fleq@ff2^0,c
  1255  007BF6  0E33               	movlw	51
  1256  007BF8  6E06               	movwf	(___fleq@ff2+1)^0,c
  1257  007BFA  0E53               	movlw	83
  1258  007BFC  6E07               	movwf	(___fleq@ff2+2)^0,c
  1259  007BFE  0E40               	movlw	64
  1260  007C00  6E08               	movwf	(___fleq@ff2+3)^0,c
  1261  007C02  ECF3  F034         	call	___fleq	;wreg free
  1262  007C06  A0D8               	btfss	status,0,c
  1263  007C08  EF08  F03E         	goto	u1911
  1264  007C0C  EF0A  F03E         	goto	u1910
  1265  007C10                     u1911:
  1266  007C10  EF0E  F03E         	goto	l1900
  1267  007C14                     u1910:
  1268  007C14                     
  1269                           ;newmain.c: 187:                 PORTB = 0b00110011;
  1270  007C14  0E33               	movlw	51
  1271  007C16  6E81               	movwf	129,c	;volatile
  1272                           
  1273                           ;newmain.c: 188:             }
  1274  007C18  EFFB  F03F         	goto	l1968
  1275  007C1C                     l1900:
  1276  007C1C  C045  F001         	movff	main@volt,___fleq@ff1
  1277  007C20  C046  F002         	movff	main@volt+1,___fleq@ff1+1
  1278  007C24  C047  F003         	movff	main@volt+2,___fleq@ff1+2
  1279  007C28  C048  F004         	movff	main@volt+3,___fleq@ff1+3
  1280  007C2C  0E9A               	movlw	154
  1281  007C2E  6E05               	movwf	___fleq@ff2^0,c
  1282  007C30  0E99               	movlw	153
  1283  007C32  6E06               	movwf	(___fleq@ff2+1)^0,c
  1284  007C34  0E59               	movlw	89
  1285  007C36  6E07               	movwf	(___fleq@ff2+2)^0,c
  1286  007C38  0E40               	movlw	64
  1287  007C3A  6E08               	movwf	(___fleq@ff2+3)^0,c
  1288  007C3C  ECF3  F034         	call	___fleq	;wreg free
  1289  007C40  A0D8               	btfss	status,0,c
  1290  007C42  EF25  F03E         	goto	u1921
  1291  007C46  EF27  F03E         	goto	u1920
  1292  007C4A                     u1921:
  1293  007C4A  EF2B  F03E         	goto	l1904
  1294  007C4E                     u1920:
  1295  007C4E                     
  1296                           ;newmain.c: 191:                 PORTB = 0b01000011;
  1297  007C4E  0E43               	movlw	67
  1298  007C50  6E81               	movwf	129,c	;volatile
  1299                           
  1300                           ;newmain.c: 192:             }
  1301  007C52  EFFB  F03F         	goto	l1968
  1302  007C56                     l1904:
  1303  007C56  C045  F001         	movff	main@volt,___fleq@ff1
  1304  007C5A  C046  F002         	movff	main@volt+1,___fleq@ff1+1
  1305  007C5E  C047  F003         	movff	main@volt+2,___fleq@ff1+2
  1306  007C62  C048  F004         	movff	main@volt+3,___fleq@ff1+3
  1307  007C66  0E00               	movlw	0
  1308  007C68  6E05               	movwf	___fleq@ff2^0,c
  1309  007C6A  0E00               	movlw	0
  1310  007C6C  6E06               	movwf	(___fleq@ff2+1)^0,c
  1311  007C6E  0E60               	movlw	96
  1312  007C70  6E07               	movwf	(___fleq@ff2+2)^0,c
  1313  007C72  0E40               	movlw	64
  1314  007C74  6E08               	movwf	(___fleq@ff2+3)^0,c
  1315  007C76  ECF3  F034         	call	___fleq	;wreg free
  1316  007C7A  A0D8               	btfss	status,0,c
  1317  007C7C  EF42  F03E         	goto	u1931
  1318  007C80  EF44  F03E         	goto	u1930
  1319  007C84                     u1931:
  1320  007C84  EF48  F03E         	goto	l1908
  1321  007C88                     u1930:
  1322  007C88                     
  1323                           ;newmain.c: 195:                 PORTB = 0b01010011;
  1324  007C88  0E53               	movlw	83
  1325  007C8A  6E81               	movwf	129,c	;volatile
  1326                           
  1327                           ;newmain.c: 197:             }
  1328  007C8C  EFFB  F03F         	goto	l1968
  1329  007C90                     l1908:
  1330  007C90  C045  F001         	movff	main@volt,___fleq@ff1
  1331  007C94  C046  F002         	movff	main@volt+1,___fleq@ff1+1
  1332  007C98  C047  F003         	movff	main@volt+2,___fleq@ff1+2
  1333  007C9C  C048  F004         	movff	main@volt+3,___fleq@ff1+3
  1334  007CA0  0E66               	movlw	102
  1335  007CA2  6E05               	movwf	___fleq@ff2^0,c
  1336  007CA4  0E66               	movlw	102
  1337  007CA6  6E06               	movwf	(___fleq@ff2+1)^0,c
  1338  007CA8  0E66               	movlw	102
  1339  007CAA  6E07               	movwf	(___fleq@ff2+2)^0,c
  1340  007CAC  0E40               	movlw	64
  1341  007CAE  6E08               	movwf	(___fleq@ff2+3)^0,c
  1342  007CB0  ECF3  F034         	call	___fleq	;wreg free
  1343  007CB4  A0D8               	btfss	status,0,c
  1344  007CB6  EF5F  F03E         	goto	u1941
  1345  007CBA  EF61  F03E         	goto	u1940
  1346  007CBE                     u1941:
  1347  007CBE  EF65  F03E         	goto	l1912
  1348  007CC2                     u1940:
  1349  007CC2                     
  1350                           ;newmain.c: 200:                 PORTB = 0b01100011;
  1351  007CC2  0E63               	movlw	99
  1352  007CC4  6E81               	movwf	129,c	;volatile
  1353                           
  1354                           ;newmain.c: 201:             }
  1355  007CC6  EFFB  F03F         	goto	l1968
  1356  007CCA                     l1912:
  1357  007CCA  C045  F001         	movff	main@volt,___fleq@ff1
  1358  007CCE  C046  F002         	movff	main@volt+1,___fleq@ff1+1
  1359  007CD2  C047  F003         	movff	main@volt+2,___fleq@ff1+2
  1360  007CD6  C048  F004         	movff	main@volt+3,___fleq@ff1+3
  1361  007CDA  0ECD               	movlw	205
  1362  007CDC  6E05               	movwf	___fleq@ff2^0,c
  1363  007CDE  0ECC               	movlw	204
  1364  007CE0  6E06               	movwf	(___fleq@ff2+1)^0,c
  1365  007CE2  0E6C               	movlw	108
  1366  007CE4  6E07               	movwf	(___fleq@ff2+2)^0,c
  1367  007CE6  0E40               	movlw	64
  1368  007CE8  6E08               	movwf	(___fleq@ff2+3)^0,c
  1369  007CEA  ECF3  F034         	call	___fleq	;wreg free
  1370  007CEE  A0D8               	btfss	status,0,c
  1371  007CF0  EF7C  F03E         	goto	u1951
  1372  007CF4  EF7E  F03E         	goto	u1950
  1373  007CF8                     u1951:
  1374  007CF8  EF82  F03E         	goto	l1916
  1375  007CFC                     u1950:
  1376  007CFC                     
  1377                           ;newmain.c: 204:                 PORTB = 0b01110011;
  1378  007CFC  0E73               	movlw	115
  1379  007CFE  6E81               	movwf	129,c	;volatile
  1380                           
  1381                           ;newmain.c: 205:             }
  1382  007D00  EFFB  F03F         	goto	l1968
  1383  007D04                     l1916:
  1384  007D04  C045  F001         	movff	main@volt,___fleq@ff1
  1385  007D08  C046  F002         	movff	main@volt+1,___fleq@ff1+1
  1386  007D0C  C047  F003         	movff	main@volt+2,___fleq@ff1+2
  1387  007D10  C048  F004         	movff	main@volt+3,___fleq@ff1+3
  1388  007D14  0E33               	movlw	51
  1389  007D16  6E05               	movwf	___fleq@ff2^0,c
  1390  007D18  0E33               	movlw	51
  1391  007D1A  6E06               	movwf	(___fleq@ff2+1)^0,c
  1392  007D1C  0E73               	movlw	115
  1393  007D1E  6E07               	movwf	(___fleq@ff2+2)^0,c
  1394  007D20  0E40               	movlw	64
  1395  007D22  6E08               	movwf	(___fleq@ff2+3)^0,c
  1396  007D24  ECF3  F034         	call	___fleq	;wreg free
  1397  007D28  A0D8               	btfss	status,0,c
  1398  007D2A  EF99  F03E         	goto	u1961
  1399  007D2E  EF9B  F03E         	goto	u1960
  1400  007D32                     u1961:
  1401  007D32  EF9F  F03E         	goto	l1920
  1402  007D36                     u1960:
  1403  007D36                     
  1404                           ;newmain.c: 208:                 PORTB = 0b10000011;
  1405  007D36  0E83               	movlw	131
  1406  007D38  6E81               	movwf	129,c	;volatile
  1407                           
  1408                           ;newmain.c: 209:             }
  1409  007D3A  EFFB  F03F         	goto	l1968
  1410  007D3E                     l1920:
  1411  007D3E  C045  F001         	movff	main@volt,___fleq@ff1
  1412  007D42  C046  F002         	movff	main@volt+1,___fleq@ff1+1
  1413  007D46  C047  F003         	movff	main@volt+2,___fleq@ff1+2
  1414  007D4A  C048  F004         	movff	main@volt+3,___fleq@ff1+3
  1415  007D4E  0E9A               	movlw	154
  1416  007D50  6E05               	movwf	___fleq@ff2^0,c
  1417  007D52  0E99               	movlw	153
  1418  007D54  6E06               	movwf	(___fleq@ff2+1)^0,c
  1419  007D56  0E79               	movlw	121
  1420  007D58  6E07               	movwf	(___fleq@ff2+2)^0,c
  1421  007D5A  0E40               	movlw	64
  1422  007D5C  6E08               	movwf	(___fleq@ff2+3)^0,c
  1423  007D5E  ECF3  F034         	call	___fleq	;wreg free
  1424  007D62  A0D8               	btfss	status,0,c
  1425  007D64  EFB6  F03E         	goto	u1971
  1426  007D68  EFB8  F03E         	goto	u1970
  1427  007D6C                     u1971:
  1428  007D6C  EFBC  F03E         	goto	l1924
  1429  007D70                     u1970:
  1430  007D70                     
  1431                           ;newmain.c: 212:                 PORTB = 0b10010011;
  1432  007D70  0E93               	movlw	147
  1433  007D72  6E81               	movwf	129,c	;volatile
  1434                           
  1435                           ;newmain.c: 214:             }
  1436  007D74  EFFB  F03F         	goto	l1968
  1437  007D78                     l1924:
  1438  007D78  C045  F001         	movff	main@volt,___fleq@ff1
  1439  007D7C  C046  F002         	movff	main@volt+1,___fleq@ff1+1
  1440  007D80  C047  F003         	movff	main@volt+2,___fleq@ff1+2
  1441  007D84  C048  F004         	movff	main@volt+3,___fleq@ff1+3
  1442  007D88  0E00               	movlw	0
  1443  007D8A  6E05               	movwf	___fleq@ff2^0,c
  1444  007D8C  0E00               	movlw	0
  1445  007D8E  6E06               	movwf	(___fleq@ff2+1)^0,c
  1446  007D90  0E80               	movlw	128
  1447  007D92  6E07               	movwf	(___fleq@ff2+2)^0,c
  1448  007D94  0E40               	movlw	64
  1449  007D96  6E08               	movwf	(___fleq@ff2+3)^0,c
  1450  007D98  ECF3  F034         	call	___fleq	;wreg free
  1451  007D9C  A0D8               	btfss	status,0,c
  1452  007D9E  EFD3  F03E         	goto	u1981
  1453  007DA2  EFD5  F03E         	goto	u1980
  1454  007DA6                     u1981:
  1455  007DA6  EFD9  F03E         	goto	l1928
  1456  007DAA                     u1980:
  1457  007DAA                     
  1458                           ;newmain.c: 217:                 PORTB = 0b00000100;
  1459  007DAA  0E04               	movlw	4
  1460  007DAC  6E81               	movwf	129,c	;volatile
  1461                           
  1462                           ;newmain.c: 219:             }
  1463  007DAE  EFFB  F03F         	goto	l1968
  1464  007DB2                     l1928:
  1465  007DB2  C045  F001         	movff	main@volt,___fleq@ff1
  1466  007DB6  C046  F002         	movff	main@volt+1,___fleq@ff1+1
  1467  007DBA  C047  F003         	movff	main@volt+2,___fleq@ff1+2
  1468  007DBE  C048  F004         	movff	main@volt+3,___fleq@ff1+3
  1469  007DC2  0E33               	movlw	51
  1470  007DC4  6E05               	movwf	___fleq@ff2^0,c
  1471  007DC6  0E33               	movlw	51
  1472  007DC8  6E06               	movwf	(___fleq@ff2+1)^0,c
  1473  007DCA  0E83               	movlw	131
  1474  007DCC  6E07               	movwf	(___fleq@ff2+2)^0,c
  1475  007DCE  0E40               	movlw	64
  1476  007DD0  6E08               	movwf	(___fleq@ff2+3)^0,c
  1477  007DD2  ECF3  F034         	call	___fleq	;wreg free
  1478  007DD6  A0D8               	btfss	status,0,c
  1479  007DD8  EFF0  F03E         	goto	u1991
  1480  007DDC  EFF2  F03E         	goto	u1990
  1481  007DE0                     u1991:
  1482  007DE0  EFF6  F03E         	goto	l1932
  1483  007DE4                     u1990:
  1484  007DE4                     
  1485                           ;newmain.c: 222:                 PORTB = 0b00010100;
  1486  007DE4  0E14               	movlw	20
  1487  007DE6  6E81               	movwf	129,c	;volatile
  1488                           
  1489                           ;newmain.c: 223:             }
  1490  007DE8  EFFB  F03F         	goto	l1968
  1491  007DEC                     l1932:
  1492  007DEC  C045  F001         	movff	main@volt,___fleq@ff1
  1493  007DF0  C046  F002         	movff	main@volt+1,___fleq@ff1+1
  1494  007DF4  C047  F003         	movff	main@volt+2,___fleq@ff1+2
  1495  007DF8  C048  F004         	movff	main@volt+3,___fleq@ff1+3
  1496  007DFC  0E66               	movlw	102
  1497  007DFE  6E05               	movwf	___fleq@ff2^0,c
  1498  007E00  0E66               	movlw	102
  1499  007E02  6E06               	movwf	(___fleq@ff2+1)^0,c
  1500  007E04  0E86               	movlw	134
  1501  007E06  6E07               	movwf	(___fleq@ff2+2)^0,c
  1502  007E08  0E40               	movlw	64
  1503  007E0A  6E08               	movwf	(___fleq@ff2+3)^0,c
  1504  007E0C  ECF3  F034         	call	___fleq	;wreg free
  1505  007E10  A0D8               	btfss	status,0,c
  1506  007E12  EF0D  F03F         	goto	u2001
  1507  007E16  EF0F  F03F         	goto	u2000
  1508  007E1A                     u2001:
  1509  007E1A  EF13  F03F         	goto	l1936
  1510  007E1E                     u2000:
  1511  007E1E                     
  1512                           ;newmain.c: 226:                 PORTB = 0b00100100;
  1513  007E1E  0E24               	movlw	36
  1514  007E20  6E81               	movwf	129,c	;volatile
  1515                           
  1516                           ;newmain.c: 228:             }
  1517  007E22  EFFB  F03F         	goto	l1968
  1518  007E26                     l1936:
  1519  007E26  C045  F001         	movff	main@volt,___fleq@ff1
  1520  007E2A  C046  F002         	movff	main@volt+1,___fleq@ff1+1
  1521  007E2E  C047  F003         	movff	main@volt+2,___fleq@ff1+2
  1522  007E32  C048  F004         	movff	main@volt+3,___fleq@ff1+3
  1523  007E36  0E9A               	movlw	154
  1524  007E38  6E05               	movwf	___fleq@ff2^0,c
  1525  007E3A  0E99               	movlw	153
  1526  007E3C  6E06               	movwf	(___fleq@ff2+1)^0,c
  1527  007E3E  0E89               	movlw	137
  1528  007E40  6E07               	movwf	(___fleq@ff2+2)^0,c
  1529  007E42  0E40               	movlw	64
  1530  007E44  6E08               	movwf	(___fleq@ff2+3)^0,c
  1531  007E46  ECF3  F034         	call	___fleq	;wreg free
  1532  007E4A  A0D8               	btfss	status,0,c
  1533  007E4C  EF2A  F03F         	goto	u2011
  1534  007E50  EF2C  F03F         	goto	u2010
  1535  007E54                     u2011:
  1536  007E54  EF30  F03F         	goto	l1940
  1537  007E58                     u2010:
  1538  007E58                     
  1539                           ;newmain.c: 231:                 PORTB = 0b00110100;
  1540  007E58  0E34               	movlw	52
  1541  007E5A  6E81               	movwf	129,c	;volatile
  1542                           
  1543                           ;newmain.c: 232:             }
  1544  007E5C  EFFB  F03F         	goto	l1968
  1545  007E60                     l1940:
  1546  007E60  C045  F001         	movff	main@volt,___fleq@ff1
  1547  007E64  C046  F002         	movff	main@volt+1,___fleq@ff1+1
  1548  007E68  C047  F003         	movff	main@volt+2,___fleq@ff1+2
  1549  007E6C  C048  F004         	movff	main@volt+3,___fleq@ff1+3
  1550  007E70  0ECD               	movlw	205
  1551  007E72  6E05               	movwf	___fleq@ff2^0,c
  1552  007E74  0ECC               	movlw	204
  1553  007E76  6E06               	movwf	(___fleq@ff2+1)^0,c
  1554  007E78  0E8C               	movlw	140
  1555  007E7A  6E07               	movwf	(___fleq@ff2+2)^0,c
  1556  007E7C  0E40               	movlw	64
  1557  007E7E  6E08               	movwf	(___fleq@ff2+3)^0,c
  1558  007E80  ECF3  F034         	call	___fleq	;wreg free
  1559  007E84  A0D8               	btfss	status,0,c
  1560  007E86  EF47  F03F         	goto	u2021
  1561  007E8A  EF49  F03F         	goto	u2020
  1562  007E8E                     u2021:
  1563  007E8E  EF4D  F03F         	goto	l1944
  1564  007E92                     u2020:
  1565  007E92                     
  1566                           ;newmain.c: 235:                 PORTB = 0b01000100;
  1567  007E92  0E44               	movlw	68
  1568  007E94  6E81               	movwf	129,c	;volatile
  1569                           
  1570                           ;newmain.c: 236:             }
  1571  007E96  EFFB  F03F         	goto	l1968
  1572  007E9A                     l1944:
  1573  007E9A  C045  F001         	movff	main@volt,___fleq@ff1
  1574  007E9E  C046  F002         	movff	main@volt+1,___fleq@ff1+1
  1575  007EA2  C047  F003         	movff	main@volt+2,___fleq@ff1+2
  1576  007EA6  C048  F004         	movff	main@volt+3,___fleq@ff1+3
  1577  007EAA  0E00               	movlw	0
  1578  007EAC  6E05               	movwf	___fleq@ff2^0,c
  1579  007EAE  0E00               	movlw	0
  1580  007EB0  6E06               	movwf	(___fleq@ff2+1)^0,c
  1581  007EB2  0E90               	movlw	144
  1582  007EB4  6E07               	movwf	(___fleq@ff2+2)^0,c
  1583  007EB6  0E40               	movlw	64
  1584  007EB8  6E08               	movwf	(___fleq@ff2+3)^0,c
  1585  007EBA  ECF3  F034         	call	___fleq	;wreg free
  1586  007EBE  A0D8               	btfss	status,0,c
  1587  007EC0  EF64  F03F         	goto	u2031
  1588  007EC4  EF66  F03F         	goto	u2030
  1589  007EC8                     u2031:
  1590  007EC8  EF6A  F03F         	goto	l1948
  1591  007ECC                     u2030:
  1592  007ECC                     
  1593                           ;newmain.c: 239:                 PORTB = 0b01010100;
  1594  007ECC  0E54               	movlw	84
  1595  007ECE  6E81               	movwf	129,c	;volatile
  1596                           
  1597                           ;newmain.c: 240:             }
  1598  007ED0  EFFB  F03F         	goto	l1968
  1599  007ED4                     l1948:
  1600  007ED4  C045  F001         	movff	main@volt,___fleq@ff1
  1601  007ED8  C046  F002         	movff	main@volt+1,___fleq@ff1+1
  1602  007EDC  C047  F003         	movff	main@volt+2,___fleq@ff1+2
  1603  007EE0  C048  F004         	movff	main@volt+3,___fleq@ff1+3
  1604  007EE4  0E33               	movlw	51
  1605  007EE6  6E05               	movwf	___fleq@ff2^0,c
  1606  007EE8  0E33               	movlw	51
  1607  007EEA  6E06               	movwf	(___fleq@ff2+1)^0,c
  1608  007EEC  0E93               	movlw	147
  1609  007EEE  6E07               	movwf	(___fleq@ff2+2)^0,c
  1610  007EF0  0E40               	movlw	64
  1611  007EF2  6E08               	movwf	(___fleq@ff2+3)^0,c
  1612  007EF4  ECF3  F034         	call	___fleq	;wreg free
  1613  007EF8  A0D8               	btfss	status,0,c
  1614  007EFA  EF81  F03F         	goto	u2041
  1615  007EFE  EF83  F03F         	goto	u2040
  1616  007F02                     u2041:
  1617  007F02  EF87  F03F         	goto	l1952
  1618  007F06                     u2040:
  1619  007F06                     
  1620                           ;newmain.c: 243:                 PORTB = 0b01100100;
  1621  007F06  0E64               	movlw	100
  1622  007F08  6E81               	movwf	129,c	;volatile
  1623                           
  1624                           ;newmain.c: 244:             }
  1625  007F0A  EFFB  F03F         	goto	l1968
  1626  007F0E                     l1952:
  1627  007F0E  C045  F001         	movff	main@volt,___fleq@ff1
  1628  007F12  C046  F002         	movff	main@volt+1,___fleq@ff1+1
  1629  007F16  C047  F003         	movff	main@volt+2,___fleq@ff1+2
  1630  007F1A  C048  F004         	movff	main@volt+3,___fleq@ff1+3
  1631  007F1E  0E66               	movlw	102
  1632  007F20  6E05               	movwf	___fleq@ff2^0,c
  1633  007F22  0E66               	movlw	102
  1634  007F24  6E06               	movwf	(___fleq@ff2+1)^0,c
  1635  007F26  0E96               	movlw	150
  1636  007F28  6E07               	movwf	(___fleq@ff2+2)^0,c
  1637  007F2A  0E40               	movlw	64
  1638  007F2C  6E08               	movwf	(___fleq@ff2+3)^0,c
  1639  007F2E  ECF3  F034         	call	___fleq	;wreg free
  1640  007F32  A0D8               	btfss	status,0,c
  1641  007F34  EF9E  F03F         	goto	u2051
  1642  007F38  EFA0  F03F         	goto	u2050
  1643  007F3C                     u2051:
  1644  007F3C  EFA4  F03F         	goto	l1956
  1645  007F40                     u2050:
  1646  007F40                     
  1647                           ;newmain.c: 247:                 PORTB = 0b01110100;
  1648  007F40  0E74               	movlw	116
  1649  007F42  6E81               	movwf	129,c	;volatile
  1650                           
  1651                           ;newmain.c: 248:             }
  1652  007F44  EFFB  F03F         	goto	l1968
  1653  007F48                     l1956:
  1654  007F48  C045  F001         	movff	main@volt,___fleq@ff1
  1655  007F4C  C046  F002         	movff	main@volt+1,___fleq@ff1+1
  1656  007F50  C047  F003         	movff	main@volt+2,___fleq@ff1+2
  1657  007F54  C048  F004         	movff	main@volt+3,___fleq@ff1+3
  1658  007F58  0E9A               	movlw	154
  1659  007F5A  6E05               	movwf	___fleq@ff2^0,c
  1660  007F5C  0E99               	movlw	153
  1661  007F5E  6E06               	movwf	(___fleq@ff2+1)^0,c
  1662  007F60  0E99               	movlw	153
  1663  007F62  6E07               	movwf	(___fleq@ff2+2)^0,c
  1664  007F64  0E40               	movlw	64
  1665  007F66  6E08               	movwf	(___fleq@ff2+3)^0,c
  1666  007F68  ECF3  F034         	call	___fleq	;wreg free
  1667  007F6C  A0D8               	btfss	status,0,c
  1668  007F6E  EFBB  F03F         	goto	u2061
  1669  007F72  EFBD  F03F         	goto	u2060
  1670  007F76                     u2061:
  1671  007F76  EFC1  F03F         	goto	l1960
  1672  007F7A                     u2060:
  1673  007F7A                     
  1674                           ;newmain.c: 251:                 PORTB = 0b10000100;
  1675  007F7A  0E84               	movlw	132
  1676  007F7C  6E81               	movwf	129,c	;volatile
  1677                           
  1678                           ;newmain.c: 252:             }
  1679  007F7E  EFFB  F03F         	goto	l1968
  1680  007F82                     l1960:
  1681  007F82  C045  F001         	movff	main@volt,___fleq@ff1
  1682  007F86  C046  F002         	movff	main@volt+1,___fleq@ff1+1
  1683  007F8A  C047  F003         	movff	main@volt+2,___fleq@ff1+2
  1684  007F8E  C048  F004         	movff	main@volt+3,___fleq@ff1+3
  1685  007F92  0ECD               	movlw	205
  1686  007F94  6E05               	movwf	___fleq@ff2^0,c
  1687  007F96  0ECC               	movlw	204
  1688  007F98  6E06               	movwf	(___fleq@ff2+1)^0,c
  1689  007F9A  0E9C               	movlw	156
  1690  007F9C  6E07               	movwf	(___fleq@ff2+2)^0,c
  1691  007F9E  0E40               	movlw	64
  1692  007FA0  6E08               	movwf	(___fleq@ff2+3)^0,c
  1693  007FA2  ECF3  F034         	call	___fleq	;wreg free
  1694  007FA6  A0D8               	btfss	status,0,c
  1695  007FA8  EFD8  F03F         	goto	u2071
  1696  007FAC  EFDA  F03F         	goto	u2070
  1697  007FB0                     u2071:
  1698  007FB0  EFDE  F03F         	goto	l1964
  1699  007FB4                     u2070:
  1700  007FB4                     
  1701                           ;newmain.c: 255:                 PORTB = 0b10010100;
  1702  007FB4  0E94               	movlw	148
  1703  007FB6  6E81               	movwf	129,c	;volatile
  1704                           
  1705                           ;newmain.c: 256:             }
  1706  007FB8  EFFB  F03F         	goto	l1968
  1707  007FBC                     l1964:
  1708  007FBC  C045  F001         	movff	main@volt,___fleq@ff1
  1709  007FC0  C046  F002         	movff	main@volt+1,___fleq@ff1+1
  1710  007FC4  C047  F003         	movff	main@volt+2,___fleq@ff1+2
  1711  007FC8  C048  F004         	movff	main@volt+3,___fleq@ff1+3
  1712  007FCC  0E00               	movlw	0
  1713  007FCE  6E05               	movwf	___fleq@ff2^0,c
  1714  007FD0  0E00               	movlw	0
  1715  007FD2  6E06               	movwf	(___fleq@ff2+1)^0,c
  1716  007FD4  0EA0               	movlw	160
  1717  007FD6  6E07               	movwf	(___fleq@ff2+2)^0,c
  1718  007FD8  0E40               	movlw	64
  1719  007FDA  6E08               	movwf	(___fleq@ff2+3)^0,c
  1720  007FDC  ECF3  F034         	call	___fleq	;wreg free
  1721  007FE0  A0D8               	btfss	status,0,c
  1722  007FE2  EFF5  F03F         	goto	u2081
  1723  007FE6  EFF7  F03F         	goto	u2080
  1724  007FEA                     u2081:
  1725  007FEA  EFFB  F03F         	goto	l125
  1726  007FEE                     u2080:
  1727  007FEE                     
  1728                           ;newmain.c: 259:                 PORTB = 0b00000101;
  1729  007FEE  0E05               	movlw	5
  1730  007FF0  6E81               	movwf	129,c	;volatile
  1731  007FF2  EFFB  F03F         	goto	l1968
  1732  007FF6                     l125:
  1733  007FF6                     l1968:
  1734                           
  1735                           ;newmain.c: 50:         while(ADCON0bits.GO_DONE =1){
  1736  007FF6  82C2               	bsf	194,1,c	;volatile
  1737  007FF8  EF24  F03A         	goto	l33
  1738  007FFC  EF00  F000         	goto	start
  1739  008000                     __end_of_main:
  1740                           	callstack 0
  1741                           
  1742 ;; *************** function ___xxtofl *****************
  1743 ;; Defined at:
  1744 ;;		line 10 in file "C:\Program Files\Microchip\xc8\v2.20\pic\sources\c99\common\xxtofl.c"
  1745 ;; Parameters:    Size  Location     Type
  1746 ;;  sign            1    wreg     unsigned char 
  1747 ;;  val             4    0[COMRAM] long 
  1748 ;; Auto vars:     Size  Location     Type
  1749 ;;  sign            1    8[COMRAM] unsigned char 
  1750 ;;  arg             4   10[COMRAM] unsigned long 
  1751 ;;  exp             1    9[COMRAM] unsigned char 
  1752 ;; Return value:  Size  Location     Type
  1753 ;;                  4    0[COMRAM] unsigned char 
  1754 ;; Registers used:
  1755 ;;		wreg, status,2, status,0
  1756 ;; Tracked objects:
  1757 ;;		On entry : 0/0
  1758 ;;		On exit  : 0/0
  1759 ;;		Unchanged: 0/0
  1760 ;; Data sizes:     COMRAM   BANK0   BANK1   BANK2   BANK3   BANK4   BANK5   BANK6   BANK7
  1761 ;;      Params:         4       0       0       0       0       0       0       0       0
  1762 ;;      Locals:         6       0       0       0       0       0       0       0       0
  1763 ;;      Temps:          4       0       0       0       0       0       0       0       0
  1764 ;;      Totals:        14       0       0       0       0       0       0       0       0
  1765 ;;Total ram usage:       14 bytes
  1766 ;; Hardware stack levels used:    1
  1767 ;; This function calls:
  1768 ;;		Nothing
  1769 ;; This function is called by:
  1770 ;;		_main
  1771 ;; This function uses a non-reentrant model
  1772 ;;
  1773                           
  1774                           	psect	text1
  1775  006A90                     __ptext1:
  1776                           	callstack 0
  1777  006A90                     ___xxtofl:
  1778                           	callstack 30
  1779                           
  1780                           ;incstack = 0
  1781                           ;___xxtofl@sign stored from wreg
  1782  006A90  6E09               	movwf	___xxtofl@sign^0,c
  1783  006A92  5009               	movf	___xxtofl@sign^0,w,c
  1784  006A94  B4D8               	btfsc	status,2,c
  1785  006A96  EF4F  F035         	goto	u1501
  1786  006A9A  EF51  F035         	goto	u1500
  1787  006A9E                     u1501:
  1788  006A9E  EF73  F035         	goto	l792
  1789  006AA2                     u1500:
  1790  006AA2  BE04               	btfsc	(___xxtofl@val+3)^0,7,c
  1791  006AA4  EF58  F035         	goto	u1510
  1792  006AA8  EF56  F035         	goto	u1511
  1793  006AAC                     u1511:
  1794  006AAC  EF73  F035         	goto	l792
  1795  006AB0                     u1510:
  1796  006AB0  C001  F005         	movff	___xxtofl@val,??___xxtofl
  1797  006AB4  C002  F006         	movff	___xxtofl@val+1,??___xxtofl+1
  1798  006AB8  C003  F007         	movff	___xxtofl@val+2,??___xxtofl+2
  1799  006ABC  C004  F008         	movff	___xxtofl@val+3,??___xxtofl+3
  1800  006AC0  1E05               	comf	??___xxtofl^0,f,c
  1801  006AC2  1E06               	comf	(??___xxtofl+1)^0,f,c
  1802  006AC4  1E07               	comf	(??___xxtofl+2)^0,f,c
  1803  006AC6  1E08               	comf	(??___xxtofl+3)^0,f,c
  1804  006AC8  2A05               	incf	??___xxtofl^0,f,c
  1805  006ACA  0E00               	movlw	0
  1806  006ACC  2206               	addwfc	(??___xxtofl+1)^0,f,c
  1807  006ACE  2207               	addwfc	(??___xxtofl+2)^0,f,c
  1808  006AD0  2208               	addwfc	(??___xxtofl+3)^0,f,c
  1809  006AD2  C005  F00B         	movff	??___xxtofl,___xxtofl@arg
  1810  006AD6  C006  F00C         	movff	??___xxtofl+1,___xxtofl@arg+1
  1811  006ADA  C007  F00D         	movff	??___xxtofl+2,___xxtofl@arg+2
  1812  006ADE  C008  F00E         	movff	??___xxtofl+3,___xxtofl@arg+3
  1813  006AE2  EF7B  F035         	goto	l1680
  1814  006AE6                     l792:
  1815  006AE6  C001  F00B         	movff	___xxtofl@val,___xxtofl@arg
  1816  006AEA  C002  F00C         	movff	___xxtofl@val+1,___xxtofl@arg+1
  1817  006AEE  C003  F00D         	movff	___xxtofl@val+2,___xxtofl@arg+2
  1818  006AF2  C004  F00E         	movff	___xxtofl@val+3,___xxtofl@arg+3
  1819  006AF6                     l1680:
  1820  006AF6  5001               	movf	___xxtofl@val^0,w,c
  1821  006AF8  1002               	iorwf	(___xxtofl@val+1)^0,w,c
  1822  006AFA  1003               	iorwf	(___xxtofl@val+2)^0,w,c
  1823  006AFC  1004               	iorwf	(___xxtofl@val+3)^0,w,c
  1824  006AFE  A4D8               	btfss	status,2,c
  1825  006B00  EF84  F035         	goto	u1521
  1826  006B04  EF86  F035         	goto	u1520
  1827  006B08                     u1521:
  1828  006B08  EF90  F035         	goto	l1686
  1829  006B0C                     u1520:
  1830  006B0C  0E00               	movlw	0
  1831  006B0E  6E01               	movwf	?___xxtofl^0,c
  1832  006B10  0E00               	movlw	0
  1833  006B12  6E02               	movwf	(?___xxtofl+1)^0,c
  1834  006B14  0E00               	movlw	0
  1835  006B16  6E03               	movwf	(?___xxtofl+2)^0,c
  1836  006B18  0E00               	movlw	0
  1837  006B1A  6E04               	movwf	(?___xxtofl+3)^0,c
  1838  006B1C  EF21  F036         	goto	l795
  1839  006B20                     l1686:
  1840  006B20  0E96               	movlw	150
  1841  006B22  6E0A               	movwf	___xxtofl@exp^0,c
  1842  006B24  EF9A  F035         	goto	l1690
  1843  006B28                     l1688:
  1844  006B28  2A0A               	incf	___xxtofl@exp^0,f,c
  1845  006B2A  90D8               	bcf	status,0,c
  1846  006B2C  320E               	rrcf	(___xxtofl@arg+3)^0,f,c
  1847  006B2E  320D               	rrcf	(___xxtofl@arg+2)^0,f,c
  1848  006B30  320C               	rrcf	(___xxtofl@arg+1)^0,f,c
  1849  006B32  320B               	rrcf	___xxtofl@arg^0,f,c
  1850  006B34                     l1690:
  1851  006B34  0E00               	movlw	0
  1852  006B36  140B               	andwf	___xxtofl@arg^0,w,c
  1853  006B38  6E05               	movwf	??___xxtofl^0,c
  1854  006B3A  0E00               	movlw	0
  1855  006B3C  140C               	andwf	(___xxtofl@arg+1)^0,w,c
  1856  006B3E  6E06               	movwf	(??___xxtofl+1)^0,c
  1857  006B40  0E00               	movlw	0
  1858  006B42  140D               	andwf	(___xxtofl@arg+2)^0,w,c
  1859  006B44  6E07               	movwf	(??___xxtofl+2)^0,c
  1860  006B46  0EFE               	movlw	254
  1861  006B48  140E               	andwf	(___xxtofl@arg+3)^0,w,c
  1862  006B4A  6E08               	movwf	(??___xxtofl+3)^0,c
  1863  006B4C  5005               	movf	??___xxtofl^0,w,c
  1864  006B4E  1006               	iorwf	(??___xxtofl+1)^0,w,c
  1865  006B50  1007               	iorwf	(??___xxtofl+2)^0,w,c
  1866  006B52  1008               	iorwf	(??___xxtofl+3)^0,w,c
  1867  006B54  A4D8               	btfss	status,2,c
  1868  006B56  EFAF  F035         	goto	u1531
  1869  006B5A  EFB1  F035         	goto	u1530
  1870  006B5E                     u1531:
  1871  006B5E  EF94  F035         	goto	l1688
  1872  006B62                     u1530:
  1873  006B62  EFBF  F035         	goto	l799
  1874  006B66                     l1692:
  1875  006B66  2A0A               	incf	___xxtofl@exp^0,f,c
  1876  006B68  0E01               	movlw	1
  1877  006B6A  260B               	addwf	___xxtofl@arg^0,f,c
  1878  006B6C  0E00               	movlw	0
  1879  006B6E  220C               	addwfc	(___xxtofl@arg+1)^0,f,c
  1880  006B70  220D               	addwfc	(___xxtofl@arg+2)^0,f,c
  1881  006B72  220E               	addwfc	(___xxtofl@arg+3)^0,f,c
  1882  006B74  90D8               	bcf	status,0,c
  1883  006B76  320E               	rrcf	(___xxtofl@arg+3)^0,f,c
  1884  006B78  320D               	rrcf	(___xxtofl@arg+2)^0,f,c
  1885  006B7A  320C               	rrcf	(___xxtofl@arg+1)^0,f,c
  1886  006B7C  320B               	rrcf	___xxtofl@arg^0,f,c
  1887  006B7E                     l799:
  1888  006B7E  0E00               	movlw	0
  1889  006B80  140B               	andwf	___xxtofl@arg^0,w,c
  1890  006B82  6E05               	movwf	??___xxtofl^0,c
  1891  006B84  0E00               	movlw	0
  1892  006B86  140C               	andwf	(___xxtofl@arg+1)^0,w,c
  1893  006B88  6E06               	movwf	(??___xxtofl+1)^0,c
  1894  006B8A  0E00               	movlw	0
  1895  006B8C  140D               	andwf	(___xxtofl@arg+2)^0,w,c
  1896  006B8E  6E07               	movwf	(??___xxtofl+2)^0,c
  1897  006B90  0EFF               	movlw	255
  1898  006B92  140E               	andwf	(___xxtofl@arg+3)^0,w,c
  1899  006B94  6E08               	movwf	(??___xxtofl+3)^0,c
  1900  006B96  5005               	movf	??___xxtofl^0,w,c
  1901  006B98  1006               	iorwf	(??___xxtofl+1)^0,w,c
  1902  006B9A  1007               	iorwf	(??___xxtofl+2)^0,w,c
  1903  006B9C  1008               	iorwf	(??___xxtofl+3)^0,w,c
  1904  006B9E  A4D8               	btfss	status,2,c
  1905  006BA0  EFD4  F035         	goto	u1541
  1906  006BA4  EFD6  F035         	goto	u1540
  1907  006BA8                     u1541:
  1908  006BA8  EFB3  F035         	goto	l1692
  1909  006BAC                     u1540:
  1910  006BAC  EFDE  F035         	goto	l1700
  1911  006BB0                     l1698:
  1912  006BB0  060A               	decf	___xxtofl@exp^0,f,c
  1913  006BB2  90D8               	bcf	status,0,c
  1914  006BB4  360B               	rlcf	___xxtofl@arg^0,f,c
  1915  006BB6  360C               	rlcf	(___xxtofl@arg+1)^0,f,c
  1916  006BB8  360D               	rlcf	(___xxtofl@arg+2)^0,f,c
  1917  006BBA  360E               	rlcf	(___xxtofl@arg+3)^0,f,c
  1918  006BBC                     l1700:
  1919  006BBC  BE0D               	btfsc	(___xxtofl@arg+2)^0,7,c
  1920  006BBE  EFE3  F035         	goto	u1551
  1921  006BC2  EFE5  F035         	goto	u1550
  1922  006BC6                     u1551:
  1923  006BC6  EFED  F035         	goto	l806
  1924  006BCA                     u1550:
  1925  006BCA  0E02               	movlw	2
  1926  006BCC  600A               	cpfslt	___xxtofl@exp^0,c
  1927  006BCE  EFEB  F035         	goto	u1561
  1928  006BD2  EFED  F035         	goto	u1560
  1929  006BD6                     u1561:
  1930  006BD6  EFD8  F035         	goto	l1698
  1931  006BDA                     u1560:
  1932  006BDA                     l806:
  1933  006BDA  B00A               	btfsc	___xxtofl@exp^0,0,c
  1934  006BDC  EFF2  F035         	goto	u1571
  1935  006BE0  EFF4  F035         	goto	u1570
  1936  006BE4                     u1571:
  1937  006BE4  EFF5  F035         	goto	l1706
  1938  006BE8                     u1570:
  1939  006BE8  9E0D               	bcf	(___xxtofl@arg+2)^0,7,c
  1940  006BEA                     l1706:
  1941  006BEA  90D8               	bcf	status,0,c
  1942  006BEC  320A               	rrcf	___xxtofl@exp^0,f,c
  1943  006BEE  C00A  F005         	movff	___xxtofl@exp,??___xxtofl
  1944  006BF2  6A06               	clrf	(??___xxtofl+1)^0,c
  1945  006BF4  6A07               	clrf	(??___xxtofl+2)^0,c
  1946  006BF6  6A08               	clrf	(??___xxtofl+3)^0,c
  1947  006BF8  C005  F008         	movff	??___xxtofl,??___xxtofl+3
  1948  006BFC  6A07               	clrf	(??___xxtofl+2)^0,c
  1949  006BFE  6A06               	clrf	(??___xxtofl+1)^0,c
  1950  006C00  6A05               	clrf	??___xxtofl^0,c
  1951  006C02  5005               	movf	??___xxtofl^0,w,c
  1952  006C04  120B               	iorwf	___xxtofl@arg^0,f,c
  1953  006C06  5006               	movf	(??___xxtofl+1)^0,w,c
  1954  006C08  120C               	iorwf	(___xxtofl@arg+1)^0,f,c
  1955  006C0A  5007               	movf	(??___xxtofl+2)^0,w,c
  1956  006C0C  120D               	iorwf	(___xxtofl@arg+2)^0,f,c
  1957  006C0E  5008               	movf	(??___xxtofl+3)^0,w,c
  1958  006C10  120E               	iorwf	(___xxtofl@arg+3)^0,f,c
  1959  006C12  5009               	movf	___xxtofl@sign^0,w,c
  1960  006C14  B4D8               	btfsc	status,2,c
  1961  006C16  EF0F  F036         	goto	u1581
  1962  006C1A  EF11  F036         	goto	u1580
  1963  006C1E                     u1581:
  1964  006C1E  EF19  F036         	goto	l1716
  1965  006C22                     u1580:
  1966  006C22  BE04               	btfsc	(___xxtofl@val+3)^0,7,c
  1967  006C24  EF18  F036         	goto	u1590
  1968  006C28  EF16  F036         	goto	u1591
  1969  006C2C                     u1591:
  1970  006C2C  EF19  F036         	goto	l1716
  1971  006C30                     u1590:
  1972  006C30  8E0E               	bsf	(___xxtofl@arg+3)^0,7,c
  1973  006C32                     l1716:
  1974  006C32  C00B  F001         	movff	___xxtofl@arg,?___xxtofl
  1975  006C36  C00C  F002         	movff	___xxtofl@arg+1,?___xxtofl+1
  1976  006C3A  C00D  F003         	movff	___xxtofl@arg+2,?___xxtofl+2
  1977  006C3E  C00E  F004         	movff	___xxtofl@arg+3,?___xxtofl+3
  1978  006C42                     l795:
  1979  006C42  0012               	return		;funcret
  1980  006C44                     __end_of___xxtofl:
  1981                           	callstack 0
  1982                           
  1983 ;; *************** function ___flmul *****************
  1984 ;; Defined at:
  1985 ;;		line 8 in file "C:\Program Files\Microchip\xc8\v2.20\pic\sources\c99\common\sprcmul.c"
  1986 ;; Parameters:    Size  Location     Type
  1987 ;;  b               4   14[COMRAM] unsigned char 
  1988 ;;  a               4   18[COMRAM] unsigned char 
  1989 ;; Auto vars:     Size  Location     Type
  1990 ;;  prod            4   33[COMRAM] struct .
  1991 ;;  grs             4   27[COMRAM] unsigned long 
  1992 ;;  temp            2   37[COMRAM] struct .
  1993 ;;  bexp            1   32[COMRAM] unsigned char 
  1994 ;;  aexp            1   31[COMRAM] unsigned char 
  1995 ;;  sign            1   26[COMRAM] unsigned char 
  1996 ;; Return value:  Size  Location     Type
  1997 ;;                  4   14[COMRAM] unsigned char 
  1998 ;; Registers used:
  1999 ;;		wreg, status,2, status,0, prodl, prodh
  2000 ;; Tracked objects:
  2001 ;;		On entry : 0/0
  2002 ;;		On exit  : 0/0
  2003 ;;		Unchanged: 0/0
  2004 ;; Data sizes:     COMRAM   BANK0   BANK1   BANK2   BANK3   BANK4   BANK5   BANK6   BANK7
  2005 ;;      Params:         8       0       0       0       0       0       0       0       0
  2006 ;;      Locals:        13       0       0       0       0       0       0       0       0
  2007 ;;      Temps:          4       0       0       0       0       0       0       0       0
  2008 ;;      Totals:        25       0       0       0       0       0       0       0       0
  2009 ;;Total ram usage:       25 bytes
  2010 ;; Hardware stack levels used:    1
  2011 ;; This function calls:
  2012 ;;		Nothing
  2013 ;; This function is called by:
  2014 ;;		_main
  2015 ;; This function uses a non-reentrant model
  2016 ;;
  2017                           
  2018                           	psect	text2
  2019  006FDE                     __ptext2:
  2020                           	callstack 0
  2021  006FDE                     ___flmul:
  2022                           	callstack 30
  2023  006FDE  5012               	movf	(___flmul@b+3)^0,w,c
  2024  006FE0  0B80               	andlw	128
  2025  006FE2  6E1B               	movwf	___flmul@sign^0,c
  2026  006FE4  5012               	movf	(___flmul@b+3)^0,w,c
  2027  006FE6  2412               	addwf	(___flmul@b+3)^0,w,c
  2028  006FE8  6E21               	movwf	___flmul@bexp^0,c
  2029  006FEA  AE11               	btfss	(___flmul@b+2)^0,7,c
  2030  006FEC  EFFA  F037         	goto	u1281
  2031  006FF0  EFFC  F037         	goto	u1280
  2032  006FF4                     u1281:
  2033  006FF4  EFFD  F037         	goto	l1534
  2034  006FF8                     u1280:
  2035  006FF8  8021               	bsf	___flmul@bexp^0,0,c
  2036  006FFA                     l1534:
  2037  006FFA  5021               	movf	___flmul@bexp^0,w,c
  2038  006FFC  B4D8               	btfsc	status,2,c
  2039  006FFE  EF03  F038         	goto	u1291
  2040  007002  EF05  F038         	goto	u1290
  2041  007006                     u1291:
  2042  007006  EF18  F038         	goto	l1542
  2043  00700A                     u1290:
  2044  00700A  2821               	incf	___flmul@bexp^0,w,c
  2045  00700C  A4D8               	btfss	status,2,c
  2046  00700E  EF0B  F038         	goto	u1301
  2047  007012  EF0D  F038         	goto	u1300
  2048  007016                     u1301:
  2049  007016  EF15  F038         	goto	l1540
  2050  00701A                     u1300:
  2051  00701A  0E00               	movlw	0
  2052  00701C  6E0F               	movwf	___flmul@b^0,c
  2053  00701E  0E00               	movlw	0
  2054  007020  6E10               	movwf	(___flmul@b+1)^0,c
  2055  007022  0E00               	movlw	0
  2056  007024  6E11               	movwf	(___flmul@b+2)^0,c
  2057  007026  0E00               	movlw	0
  2058  007028  6E12               	movwf	(___flmul@b+3)^0,c
  2059  00702A                     l1540:
  2060  00702A  8E11               	bsf	(___flmul@b+2)^0,7,c
  2061  00702C  EF20  F038         	goto	l1544
  2062  007030                     l1542:
  2063  007030  0E00               	movlw	0
  2064  007032  6E0F               	movwf	___flmul@b^0,c
  2065  007034  0E00               	movlw	0
  2066  007036  6E10               	movwf	(___flmul@b+1)^0,c
  2067  007038  0E00               	movlw	0
  2068  00703A  6E11               	movwf	(___flmul@b+2)^0,c
  2069  00703C  0E00               	movlw	0
  2070  00703E  6E12               	movwf	(___flmul@b+3)^0,c
  2071  007040                     l1544:
  2072  007040  5016               	movf	(___flmul@a+3)^0,w,c
  2073  007042  0B80               	andlw	128
  2074  007044  1A1B               	xorwf	___flmul@sign^0,f,c
  2075  007046  5016               	movf	(___flmul@a+3)^0,w,c
  2076  007048  2416               	addwf	(___flmul@a+3)^0,w,c
  2077  00704A  6E20               	movwf	___flmul@aexp^0,c
  2078  00704C  AE15               	btfss	(___flmul@a+2)^0,7,c
  2079  00704E  EF2B  F038         	goto	u1311
  2080  007052  EF2D  F038         	goto	u1310
  2081  007056                     u1311:
  2082  007056  EF2E  F038         	goto	l1552
  2083  00705A                     u1310:
  2084  00705A  8020               	bsf	___flmul@aexp^0,0,c
  2085  00705C                     l1552:
  2086  00705C  5020               	movf	___flmul@aexp^0,w,c
  2087  00705E  B4D8               	btfsc	status,2,c
  2088  007060  EF34  F038         	goto	u1321
  2089  007064  EF36  F038         	goto	u1320
  2090  007068                     u1321:
  2091  007068  EF49  F038         	goto	l1560
  2092  00706C                     u1320:
  2093  00706C  2820               	incf	___flmul@aexp^0,w,c
  2094  00706E  A4D8               	btfss	status,2,c
  2095  007070  EF3C  F038         	goto	u1331
  2096  007074  EF3E  F038         	goto	u1330
  2097  007078                     u1331:
  2098  007078  EF46  F038         	goto	l1558
  2099  00707C                     u1330:
  2100  00707C  0E00               	movlw	0
  2101  00707E  6E13               	movwf	___flmul@a^0,c
  2102  007080  0E00               	movlw	0
  2103  007082  6E14               	movwf	(___flmul@a+1)^0,c
  2104  007084  0E00               	movlw	0
  2105  007086  6E15               	movwf	(___flmul@a+2)^0,c
  2106  007088  0E00               	movlw	0
  2107  00708A  6E16               	movwf	(___flmul@a+3)^0,c
  2108  00708C                     l1558:
  2109  00708C  8E15               	bsf	(___flmul@a+2)^0,7,c
  2110  00708E  EF51  F038         	goto	l751
  2111  007092                     l1560:
  2112  007092  0E00               	movlw	0
  2113  007094  6E13               	movwf	___flmul@a^0,c
  2114  007096  0E00               	movlw	0
  2115  007098  6E14               	movwf	(___flmul@a+1)^0,c
  2116  00709A  0E00               	movlw	0
  2117  00709C  6E15               	movwf	(___flmul@a+2)^0,c
  2118  00709E  0E00               	movlw	0
  2119  0070A0  6E16               	movwf	(___flmul@a+3)^0,c
  2120  0070A2                     l751:
  2121  0070A2  5020               	movf	___flmul@aexp^0,w,c
  2122  0070A4  B4D8               	btfsc	status,2,c
  2123  0070A6  EF57  F038         	goto	u1341
  2124  0070AA  EF59  F038         	goto	u1340
  2125  0070AE                     u1341:
  2126  0070AE  EF61  F038         	goto	l1564
  2127  0070B2                     u1340:
  2128  0070B2  5021               	movf	___flmul@bexp^0,w,c
  2129  0070B4  A4D8               	btfss	status,2,c
  2130  0070B6  EF5F  F038         	goto	u1351
  2131  0070BA  EF61  F038         	goto	u1350
  2132  0070BE                     u1351:
  2133  0070BE  EF6B  F038         	goto	l1568
  2134  0070C2                     u1350:
  2135  0070C2                     l1564:
  2136  0070C2  0E00               	movlw	0
  2137  0070C4  6E0F               	movwf	?___flmul^0,c
  2138  0070C6  0E00               	movlw	0
  2139  0070C8  6E10               	movwf	(?___flmul+1)^0,c
  2140  0070CA  0E00               	movlw	0
  2141  0070CC  6E11               	movwf	(?___flmul+2)^0,c
  2142  0070CE  0E00               	movlw	0
  2143  0070D0  6E12               	movwf	(?___flmul+3)^0,c
  2144  0070D2  EF03  F03A         	goto	l755
  2145  0070D6                     l1568:
  2146  0070D6  5015               	movf	(___flmul@a+2)^0,w,c
  2147  0070D8  020F               	mulwf	___flmul@b^0,c
  2148  0070DA  CFF3 F026          	movff	prodl,___flmul@temp
  2149  0070DE  CFF4 F027          	movff	prodh,___flmul@temp+1
  2150  0070E2  5026               	movf	___flmul@temp^0,w,c
  2151  0070E4  6E1C               	movwf	___flmul@grs^0,c
  2152  0070E6  6A1D               	clrf	(___flmul@grs+1)^0,c
  2153  0070E8  6A1E               	clrf	(___flmul@grs+2)^0,c
  2154  0070EA  6A1F               	clrf	(___flmul@grs+3)^0,c
  2155  0070EC  5027               	movf	(___flmul@temp+1)^0,w,c
  2156  0070EE  6E22               	movwf	___flmul@prod^0,c
  2157  0070F0  6A23               	clrf	(___flmul@prod+1)^0,c
  2158  0070F2  6A24               	clrf	(___flmul@prod+2)^0,c
  2159  0070F4  6A25               	clrf	(___flmul@prod+3)^0,c
  2160  0070F6  5014               	movf	(___flmul@a+1)^0,w,c
  2161  0070F8  0210               	mulwf	(___flmul@b+1)^0,c
  2162  0070FA  CFF3 F026          	movff	prodl,___flmul@temp
  2163  0070FE  CFF4 F027          	movff	prodh,___flmul@temp+1
  2164  007102  5026               	movf	___flmul@temp^0,w,c
  2165  007104  261C               	addwf	___flmul@grs^0,f,c
  2166  007106  0E00               	movlw	0
  2167  007108  221D               	addwfc	(___flmul@grs+1)^0,f,c
  2168  00710A  221E               	addwfc	(___flmul@grs+2)^0,f,c
  2169  00710C  221F               	addwfc	(___flmul@grs+3)^0,f,c
  2170  00710E  5027               	movf	(___flmul@temp+1)^0,w,c
  2171  007110  2622               	addwf	___flmul@prod^0,f,c
  2172  007112  0E00               	movlw	0
  2173  007114  2223               	addwfc	(___flmul@prod+1)^0,f,c
  2174  007116  2224               	addwfc	(___flmul@prod+2)^0,f,c
  2175  007118  2225               	addwfc	(___flmul@prod+3)^0,f,c
  2176  00711A  5013               	movf	___flmul@a^0,w,c
  2177  00711C  0211               	mulwf	(___flmul@b+2)^0,c
  2178  00711E  CFF3 F026          	movff	prodl,___flmul@temp
  2179  007122  CFF4 F027          	movff	prodh,___flmul@temp+1
  2180  007126  5026               	movf	___flmul@temp^0,w,c
  2181  007128  261C               	addwf	___flmul@grs^0,f,c
  2182  00712A  0E00               	movlw	0
  2183  00712C  221D               	addwfc	(___flmul@grs+1)^0,f,c
  2184  00712E  221E               	addwfc	(___flmul@grs+2)^0,f,c
  2185  007130  221F               	addwfc	(___flmul@grs+3)^0,f,c
  2186  007132  5027               	movf	(___flmul@temp+1)^0,w,c
  2187  007134  2622               	addwf	___flmul@prod^0,f,c
  2188  007136  0E00               	movlw	0
  2189  007138  2223               	addwfc	(___flmul@prod+1)^0,f,c
  2190  00713A  2224               	addwfc	(___flmul@prod+2)^0,f,c
  2191  00713C  2225               	addwfc	(___flmul@prod+3)^0,f,c
  2192  00713E  C01E  F01F         	movff	___flmul@grs+2,___flmul@grs+3
  2193  007142  C01D  F01E         	movff	___flmul@grs+1,___flmul@grs+2
  2194  007146  C01C  F01D         	movff	___flmul@grs,___flmul@grs+1
  2195  00714A  6A1C               	clrf	___flmul@grs^0,c
  2196  00714C  5013               	movf	___flmul@a^0,w,c
  2197  00714E  0210               	mulwf	(___flmul@b+1)^0,c
  2198  007150  CFF3 F026          	movff	prodl,___flmul@temp
  2199  007154  CFF4 F027          	movff	prodh,___flmul@temp+1
  2200  007158  5026               	movf	___flmul@temp^0,w,c
  2201  00715A  261C               	addwf	___flmul@grs^0,f,c
  2202  00715C  5027               	movf	(___flmul@temp+1)^0,w,c
  2203  00715E  221D               	addwfc	(___flmul@grs+1)^0,f,c
  2204  007160  0E00               	movlw	0
  2205  007162  221E               	addwfc	(___flmul@grs+2)^0,f,c
  2206  007164  0E00               	movlw	0
  2207  007166  221F               	addwfc	(___flmul@grs+3)^0,f,c
  2208  007168  5014               	movf	(___flmul@a+1)^0,w,c
  2209  00716A  020F               	mulwf	___flmul@b^0,c
  2210  00716C  CFF3 F026          	movff	prodl,___flmul@temp
  2211  007170  CFF4 F027          	movff	prodh,___flmul@temp+1
  2212  007174  5026               	movf	___flmul@temp^0,w,c
  2213  007176  261C               	addwf	___flmul@grs^0,f,c
  2214  007178  5027               	movf	(___flmul@temp+1)^0,w,c
  2215  00717A  221D               	addwfc	(___flmul@grs+1)^0,f,c
  2216  00717C  0E00               	movlw	0
  2217  00717E  221E               	addwfc	(___flmul@grs+2)^0,f,c
  2218  007180  0E00               	movlw	0
  2219  007182  221F               	addwfc	(___flmul@grs+3)^0,f,c
  2220  007184  C01E  F01F         	movff	___flmul@grs+2,___flmul@grs+3
  2221  007188  C01D  F01E         	movff	___flmul@grs+1,___flmul@grs+2
  2222  00718C  C01C  F01D         	movff	___flmul@grs,___flmul@grs+1
  2223  007190  6A1C               	clrf	___flmul@grs^0,c
  2224  007192  5013               	movf	___flmul@a^0,w,c
  2225  007194  020F               	mulwf	___flmul@b^0,c
  2226  007196  CFF3 F026          	movff	prodl,___flmul@temp
  2227  00719A  CFF4 F027          	movff	prodh,___flmul@temp+1
  2228  00719E  5026               	movf	___flmul@temp^0,w,c
  2229  0071A0  261C               	addwf	___flmul@grs^0,f,c
  2230  0071A2  5027               	movf	(___flmul@temp+1)^0,w,c
  2231  0071A4  221D               	addwfc	(___flmul@grs+1)^0,f,c
  2232  0071A6  0E00               	movlw	0
  2233  0071A8  221E               	addwfc	(___flmul@grs+2)^0,f,c
  2234  0071AA  0E00               	movlw	0
  2235  0071AC  221F               	addwfc	(___flmul@grs+3)^0,f,c
  2236  0071AE  5015               	movf	(___flmul@a+2)^0,w,c
  2237  0071B0  0210               	mulwf	(___flmul@b+1)^0,c
  2238  0071B2  CFF3 F026          	movff	prodl,___flmul@temp
  2239  0071B6  CFF4 F027          	movff	prodh,___flmul@temp+1
  2240  0071BA  5026               	movf	___flmul@temp^0,w,c
  2241  0071BC  2622               	addwf	___flmul@prod^0,f,c
  2242  0071BE  5027               	movf	(___flmul@temp+1)^0,w,c
  2243  0071C0  2223               	addwfc	(___flmul@prod+1)^0,f,c
  2244  0071C2  0E00               	movlw	0
  2245  0071C4  2224               	addwfc	(___flmul@prod+2)^0,f,c
  2246  0071C6  0E00               	movlw	0
  2247  0071C8  2225               	addwfc	(___flmul@prod+3)^0,f,c
  2248  0071CA  5014               	movf	(___flmul@a+1)^0,w,c
  2249  0071CC  0211               	mulwf	(___flmul@b+2)^0,c
  2250  0071CE  CFF3 F026          	movff	prodl,___flmul@temp
  2251  0071D2  CFF4 F027          	movff	prodh,___flmul@temp+1
  2252  0071D6  5026               	movf	___flmul@temp^0,w,c
  2253  0071D8  2622               	addwf	___flmul@prod^0,f,c
  2254  0071DA  5027               	movf	(___flmul@temp+1)^0,w,c
  2255  0071DC  2223               	addwfc	(___flmul@prod+1)^0,f,c
  2256  0071DE  0E00               	movlw	0
  2257  0071E0  2224               	addwfc	(___flmul@prod+2)^0,f,c
  2258  0071E2  0E00               	movlw	0
  2259  0071E4  2225               	addwfc	(___flmul@prod+3)^0,f,c
  2260  0071E6  5015               	movf	(___flmul@a+2)^0,w,c
  2261  0071E8  0211               	mulwf	(___flmul@b+2)^0,c
  2262  0071EA  CFF3 F026          	movff	prodl,___flmul@temp
  2263  0071EE  CFF4 F027          	movff	prodh,___flmul@temp+1
  2264  0071F2  5026               	movf	___flmul@temp^0,w,c
  2265  0071F4  6E17               	movwf	??___flmul^0,c
  2266  0071F6  5027               	movf	(___flmul@temp+1)^0,w,c
  2267  0071F8  6E18               	movwf	(??___flmul+1)^0,c
  2268  0071FA  6A19               	clrf	(??___flmul+2)^0,c
  2269  0071FC  6A1A               	clrf	(??___flmul+3)^0,c
  2270  0071FE  C019  F01A         	movff	??___flmul+2,??___flmul+3
  2271  007202  C018  F019         	movff	??___flmul+1,??___flmul+2
  2272  007206  C017  F018         	movff	??___flmul,??___flmul+1
  2273  00720A  6A17               	clrf	??___flmul^0,c
  2274  00720C  5017               	movf	??___flmul^0,w,c
  2275  00720E  2622               	addwf	___flmul@prod^0,f,c
  2276  007210  5018               	movf	(??___flmul+1)^0,w,c
  2277  007212  2223               	addwfc	(___flmul@prod+1)^0,f,c
  2278  007214  5019               	movf	(??___flmul+2)^0,w,c
  2279  007216  2224               	addwfc	(___flmul@prod+2)^0,f,c
  2280  007218  501A               	movf	(??___flmul+3)^0,w,c
  2281  00721A  2225               	addwfc	(___flmul@prod+3)^0,f,c
  2282  00721C  C01C  F017         	movff	___flmul@grs,??___flmul
  2283  007220  C01D  F018         	movff	___flmul@grs+1,??___flmul+1
  2284  007224  C01E  F019         	movff	___flmul@grs+2,??___flmul+2
  2285  007228  C01F  F01A         	movff	___flmul@grs+3,??___flmul+3
  2286  00722C  0E19               	movlw	25
  2287  00722E  EF1E  F039         	goto	u1360
  2288  007232                     u1365:
  2289  007232  90D8               	bcf	status,0,c
  2290  007234  321A               	rrcf	(??___flmul+3)^0,f,c
  2291  007236  3219               	rrcf	(??___flmul+2)^0,f,c
  2292  007238  3218               	rrcf	(??___flmul+1)^0,f,c
  2293  00723A  3217               	rrcf	??___flmul^0,f,c
  2294  00723C                     u1360:
  2295  00723C  2EE8               	decfsz	wreg,f,c
  2296  00723E  EF19  F039         	goto	u1365
  2297  007242  5017               	movf	??___flmul^0,w,c
  2298  007244  2622               	addwf	___flmul@prod^0,f,c
  2299  007246  5018               	movf	(??___flmul+1)^0,w,c
  2300  007248  2223               	addwfc	(___flmul@prod+1)^0,f,c
  2301  00724A  5019               	movf	(??___flmul+2)^0,w,c
  2302  00724C  2224               	addwfc	(___flmul@prod+2)^0,f,c
  2303  00724E  501A               	movf	(??___flmul+3)^0,w,c
  2304  007250  2225               	addwfc	(___flmul@prod+3)^0,f,c
  2305  007252  C01E  F01F         	movff	___flmul@grs+2,___flmul@grs+3
  2306  007256  C01D  F01E         	movff	___flmul@grs+1,___flmul@grs+2
  2307  00725A  C01C  F01D         	movff	___flmul@grs,___flmul@grs+1
  2308  00725E  6A1C               	clrf	___flmul@grs^0,c
  2309  007260  5020               	movf	___flmul@aexp^0,w,c
  2310  007262  C021  F017         	movff	___flmul@bexp,??___flmul
  2311  007266  6A18               	clrf	(??___flmul+1)^0,c
  2312  007268  2617               	addwf	??___flmul^0,f,c
  2313  00726A  0E00               	movlw	0
  2314  00726C  2218               	addwfc	(??___flmul+1)^0,f,c
  2315  00726E  0E82               	movlw	130
  2316  007270  2417               	addwf	??___flmul^0,w,c
  2317  007272  6E26               	movwf	___flmul@temp^0,c
  2318  007274  0EFF               	movlw	255
  2319  007276  2018               	addwfc	(??___flmul+1)^0,w,c
  2320  007278  6E27               	movwf	(___flmul@temp+1)^0,c
  2321  00727A  EF54  F039         	goto	l1616
  2322  00727E                     l1610:
  2323  00727E  90D8               	bcf	status,0,c
  2324  007280  3622               	rlcf	___flmul@prod^0,f,c
  2325  007282  3623               	rlcf	(___flmul@prod+1)^0,f,c
  2326  007284  3624               	rlcf	(___flmul@prod+2)^0,f,c
  2327  007286  3625               	rlcf	(___flmul@prod+3)^0,f,c
  2328  007288  AE1F               	btfss	(___flmul@grs+3)^0,7,c
  2329  00728A  EF49  F039         	goto	u1371
  2330  00728E  EF4B  F039         	goto	u1370
  2331  007292                     u1371:
  2332  007292  EF4C  F039         	goto	l758
  2333  007296                     u1370:
  2334  007296  8022               	bsf	___flmul@prod^0,0,c
  2335  007298                     l758:
  2336  007298  90D8               	bcf	status,0,c
  2337  00729A  361C               	rlcf	___flmul@grs^0,f,c
  2338  00729C  361D               	rlcf	(___flmul@grs+1)^0,f,c
  2339  00729E  361E               	rlcf	(___flmul@grs+2)^0,f,c
  2340  0072A0  361F               	rlcf	(___flmul@grs+3)^0,f,c
  2341  0072A2  0626               	decf	___flmul@temp^0,f,c
  2342  0072A4  A0D8               	btfss	status,0,c
  2343  0072A6  0627               	decf	(___flmul@temp+1)^0,f,c
  2344  0072A8                     l1616:
  2345  0072A8  AE24               	btfss	(___flmul@prod+2)^0,7,c
  2346  0072AA  EF59  F039         	goto	u1381
  2347  0072AE  EF5B  F039         	goto	u1380
  2348  0072B2                     u1381:
  2349  0072B2  EF3F  F039         	goto	l1610
  2350  0072B6                     u1380:
  2351  0072B6  0E00               	movlw	0
  2352  0072B8  6E20               	movwf	___flmul@aexp^0,c
  2353  0072BA  AE1F               	btfss	(___flmul@grs+3)^0,7,c
  2354  0072BC  EF62  F039         	goto	u1391
  2355  0072C0  EF64  F039         	goto	u1390
  2356  0072C4                     u1391:
  2357  0072C4  EF88  F039         	goto	l760
  2358  0072C8                     u1390:
  2359  0072C8  0EFF               	movlw	255
  2360  0072CA  141C               	andwf	___flmul@grs^0,w,c
  2361  0072CC  6E17               	movwf	??___flmul^0,c
  2362  0072CE  0EFF               	movlw	255
  2363  0072D0  141D               	andwf	(___flmul@grs+1)^0,w,c
  2364  0072D2  6E18               	movwf	(??___flmul+1)^0,c
  2365  0072D4  0EFF               	movlw	255
  2366  0072D6  141E               	andwf	(___flmul@grs+2)^0,w,c
  2367  0072D8  6E19               	movwf	(??___flmul+2)^0,c
  2368  0072DA  0E7F               	movlw	127
  2369  0072DC  141F               	andwf	(___flmul@grs+3)^0,w,c
  2370  0072DE  6E1A               	movwf	(??___flmul+3)^0,c
  2371  0072E0  5017               	movf	??___flmul^0,w,c
  2372  0072E2  1018               	iorwf	(??___flmul+1)^0,w,c
  2373  0072E4  1019               	iorwf	(??___flmul+2)^0,w,c
  2374  0072E6  101A               	iorwf	(??___flmul+3)^0,w,c
  2375  0072E8  B4D8               	btfsc	status,2,c
  2376  0072EA  EF79  F039         	goto	u1401
  2377  0072EE  EF7B  F039         	goto	u1400
  2378  0072F2                     u1401:
  2379  0072F2  EF7F  F039         	goto	l761
  2380  0072F6                     u1400:
  2381  0072F6                     l1624:
  2382  0072F6  0E01               	movlw	1
  2383  0072F8  6E20               	movwf	___flmul@aexp^0,c
  2384  0072FA  EF88  F039         	goto	l760
  2385  0072FE                     l761:
  2386  0072FE  A022               	btfss	___flmul@prod^0,0,c
  2387  007300  EF84  F039         	goto	u1411
  2388  007304  EF86  F039         	goto	u1410
  2389  007308                     u1411:
  2390  007308  EF88  F039         	goto	l760
  2391  00730C                     u1410:
  2392  00730C  EF7B  F039         	goto	l1624
  2393  007310                     l760:
  2394  007310  5020               	movf	___flmul@aexp^0,w,c
  2395  007312  B4D8               	btfsc	status,2,c
  2396  007314  EF8E  F039         	goto	u1421
  2397  007318  EF90  F039         	goto	u1420
  2398  00731C                     u1421:
  2399  00731C  EFB4  F039         	goto	l1636
  2400  007320                     u1420:
  2401  007320  0E01               	movlw	1
  2402  007322  2622               	addwf	___flmul@prod^0,f,c
  2403  007324  0E00               	movlw	0
  2404  007326  2223               	addwfc	(___flmul@prod+1)^0,f,c
  2405  007328  2224               	addwfc	(___flmul@prod+2)^0,f,c
  2406  00732A  2225               	addwfc	(___flmul@prod+3)^0,f,c
  2407  00732C  A025               	btfss	(___flmul@prod+3)^0,0,c
  2408  00732E  EF9B  F039         	goto	u1431
  2409  007332  EF9D  F039         	goto	u1430
  2410  007336                     u1431:
  2411  007336  EFB4  F039         	goto	l1636
  2412  00733A                     u1430:
  2413  00733A  C022  F017         	movff	___flmul@prod,??___flmul
  2414  00733E  C023  F018         	movff	___flmul@prod+1,??___flmul+1
  2415  007342  C024  F019         	movff	___flmul@prod+2,??___flmul+2
  2416  007346  C025  F01A         	movff	___flmul@prod+3,??___flmul+3
  2417  00734A  341A               	rlcf	(??___flmul+3)^0,w,c
  2418  00734C  321A               	rrcf	(??___flmul+3)^0,f,c
  2419  00734E  3219               	rrcf	(??___flmul+2)^0,f,c
  2420  007350  3218               	rrcf	(??___flmul+1)^0,f,c
  2421  007352  3217               	rrcf	??___flmul^0,f,c
  2422  007354  C017  F022         	movff	??___flmul,___flmul@prod
  2423  007358  C018  F023         	movff	??___flmul+1,___flmul@prod+1
  2424  00735C  C019  F024         	movff	??___flmul+2,___flmul@prod+2
  2425  007360  C01A  F025         	movff	??___flmul+3,___flmul@prod+3
  2426  007364  4A26               	infsnz	___flmul@temp^0,f,c
  2427  007366  2A27               	incf	(___flmul@temp+1)^0,f,c
  2428  007368                     l1636:
  2429  007368  BE27               	btfsc	(___flmul@temp+1)^0,7,c
  2430  00736A  EFBF  F039         	goto	u1441
  2431  00736E  5027               	movf	(___flmul@temp+1)^0,w,c
  2432  007370  E108               	bnz	u1440
  2433  007372  2826               	incf	___flmul@temp^0,w,c
  2434  007374  A0D8               	btfss	status,0,c
  2435  007376  EFBF  F039         	goto	u1441
  2436  00737A  EFC1  F039         	goto	u1440
  2437  00737E                     u1441:
  2438  00737E  EFCB  F039         	goto	l1640
  2439  007382                     u1440:
  2440  007382  0E00               	movlw	0
  2441  007384  6E22               	movwf	___flmul@prod^0,c
  2442  007386  0E00               	movlw	0
  2443  007388  6E23               	movwf	(___flmul@prod+1)^0,c
  2444  00738A  0E80               	movlw	128
  2445  00738C  6E24               	movwf	(___flmul@prod+2)^0,c
  2446  00738E  0E7F               	movlw	127
  2447  007390  6E25               	movwf	(___flmul@prod+3)^0,c
  2448  007392  EFF9  F039         	goto	l1652
  2449  007396                     l1640:
  2450  007396  BE27               	btfsc	(___flmul@temp+1)^0,7,c
  2451  007398  EFD8  F039         	goto	u1450
  2452  00739C  5027               	movf	(___flmul@temp+1)^0,w,c
  2453  00739E  E106               	bnz	u1451
  2454  0073A0  0426               	decf	___flmul@temp^0,w,c
  2455  0073A2  B0D8               	btfsc	status,0,c
  2456  0073A4  EFD6  F039         	goto	u1451
  2457  0073A8  EFD8  F039         	goto	u1450
  2458  0073AC                     u1451:
  2459  0073AC  EFE4  F039         	goto	l768
  2460  0073B0                     u1450:
  2461  0073B0  0E00               	movlw	0
  2462  0073B2  6E22               	movwf	___flmul@prod^0,c
  2463  0073B4  0E00               	movlw	0
  2464  0073B6  6E23               	movwf	(___flmul@prod+1)^0,c
  2465  0073B8  0E00               	movlw	0
  2466  0073BA  6E24               	movwf	(___flmul@prod+2)^0,c
  2467  0073BC  0E00               	movlw	0
  2468  0073BE  6E25               	movwf	(___flmul@prod+3)^0,c
  2469  0073C0  0E00               	movlw	0
  2470  0073C2  6E1B               	movwf	___flmul@sign^0,c
  2471  0073C4  EFF9  F039         	goto	l1652
  2472  0073C8                     l768:
  2473  0073C8  C026  F021         	movff	___flmul@temp,___flmul@bexp
  2474  0073CC  0EFF               	movlw	255
  2475  0073CE  1622               	andwf	___flmul@prod^0,f,c
  2476  0073D0  0EFF               	movlw	255
  2477  0073D2  1623               	andwf	(___flmul@prod+1)^0,f,c
  2478  0073D4  0E7F               	movlw	127
  2479  0073D6  1624               	andwf	(___flmul@prod+2)^0,f,c
  2480  0073D8  0E00               	movlw	0
  2481  0073DA  1625               	andwf	(___flmul@prod+3)^0,f,c
  2482  0073DC  A021               	btfss	___flmul@bexp^0,0,c
  2483  0073DE  EFF3  F039         	goto	u1461
  2484  0073E2  EFF5  F039         	goto	u1460
  2485  0073E6                     u1461:
  2486  0073E6  EFF6  F039         	goto	l1650
  2487  0073EA                     u1460:
  2488  0073EA  8E24               	bsf	(___flmul@prod+2)^0,7,c
  2489  0073EC                     l1650:
  2490  0073EC  90D8               	bcf	status,0,c
  2491  0073EE  3021               	rrcf	___flmul@bexp^0,w,c
  2492  0073F0  6E25               	movwf	(___flmul@prod+3)^0,c
  2493  0073F2                     l1652:
  2494  0073F2  501B               	movf	___flmul@sign^0,w,c
  2495  0073F4  1225               	iorwf	(___flmul@prod+3)^0,f,c
  2496  0073F6  C022  F00F         	movff	___flmul@prod,?___flmul
  2497  0073FA  C023  F010         	movff	___flmul@prod+1,?___flmul+1
  2498  0073FE  C024  F011         	movff	___flmul@prod+2,?___flmul+2
  2499  007402  C025  F012         	movff	___flmul@prod+3,?___flmul+3
  2500  007406                     l755:
  2501  007406  0012               	return		;funcret
  2502  007408                     __end_of___flmul:
  2503                           	callstack 0
  2504                           
  2505 ;; *************** function ___fleq *****************
  2506 ;; Defined at:
  2507 ;;		line 4 in file "C:\Program Files\Microchip\xc8\v2.20\pic\sources\c99\common\fleq.c"
  2508 ;; Parameters:    Size  Location     Type
  2509 ;;  ff1             4    0[COMRAM] unsigned char 
  2510 ;;  ff2             4    4[COMRAM] unsigned char 
  2511 ;; Auto vars:     Size  Location     Type
  2512 ;;		None
  2513 ;; Return value:  Size  Location     Type
  2514 ;;		None               void
  2515 ;; Registers used:
  2516 ;;		wreg, status,2, status,0
  2517 ;; Tracked objects:
  2518 ;;		On entry : 0/0
  2519 ;;		On exit  : 0/0
  2520 ;;		Unchanged: 0/0
  2521 ;; Data sizes:     COMRAM   BANK0   BANK1   BANK2   BANK3   BANK4   BANK5   BANK6   BANK7
  2522 ;;      Params:         8       0       0       0       0       0       0       0       0
  2523 ;;      Locals:         0       0       0       0       0       0       0       0       0
  2524 ;;      Temps:          4       0       0       0       0       0       0       0       0
  2525 ;;      Totals:        12       0       0       0       0       0       0       0       0
  2526 ;;Total ram usage:       12 bytes
  2527 ;; Hardware stack levels used:    1
  2528 ;; This function calls:
  2529 ;;		Nothing
  2530 ;; This function is called by:
  2531 ;;		_main
  2532 ;; This function uses a non-reentrant model
  2533 ;;
  2534                           
  2535                           	psect	text3
  2536  0069E6                     __ptext3:
  2537                           	callstack 0
  2538  0069E6                     ___fleq:
  2539                           	callstack 30
  2540  0069E6  0E00               	movlw	0
  2541  0069E8  1401               	andwf	___fleq@ff1^0,w,c
  2542  0069EA  6E09               	movwf	??___fleq^0,c
  2543  0069EC  0E00               	movlw	0
  2544  0069EE  1402               	andwf	(___fleq@ff1+1)^0,w,c
  2545  0069F0  6E0A               	movwf	(??___fleq+1)^0,c
  2546  0069F2  0E80               	movlw	128
  2547  0069F4  1403               	andwf	(___fleq@ff1+2)^0,w,c
  2548  0069F6  6E0B               	movwf	(??___fleq+2)^0,c
  2549  0069F8  0E7F               	movlw	127
  2550  0069FA  1404               	andwf	(___fleq@ff1+3)^0,w,c
  2551  0069FC  6E0C               	movwf	(??___fleq+3)^0,c
  2552  0069FE  5009               	movf	??___fleq^0,w,c
  2553  006A00  100A               	iorwf	(??___fleq+1)^0,w,c
  2554  006A02  100B               	iorwf	(??___fleq+2)^0,w,c
  2555  006A04  100C               	iorwf	(??___fleq+3)^0,w,c
  2556  006A06  A4D8               	btfss	status,2,c
  2557  006A08  EF08  F035         	goto	u1471
  2558  006A0C  EF0A  F035         	goto	u1470
  2559  006A10                     u1471:
  2560  006A10  EF12  F035         	goto	l1662
  2561  006A14                     u1470:
  2562  006A14  0E00               	movlw	0
  2563  006A16  6E01               	movwf	___fleq@ff1^0,c
  2564  006A18  0E00               	movlw	0
  2565  006A1A  6E02               	movwf	(___fleq@ff1+1)^0,c
  2566  006A1C  0E00               	movlw	0
  2567  006A1E  6E03               	movwf	(___fleq@ff1+2)^0,c
  2568  006A20  0E00               	movlw	0
  2569  006A22  6E04               	movwf	(___fleq@ff1+3)^0,c
  2570  006A24                     l1662:
  2571  006A24  0E00               	movlw	0
  2572  006A26  1405               	andwf	___fleq@ff2^0,w,c
  2573  006A28  6E09               	movwf	??___fleq^0,c
  2574  006A2A  0E00               	movlw	0
  2575  006A2C  1406               	andwf	(___fleq@ff2+1)^0,w,c
  2576  006A2E  6E0A               	movwf	(??___fleq+1)^0,c
  2577  006A30  0E80               	movlw	128
  2578  006A32  1407               	andwf	(___fleq@ff2+2)^0,w,c
  2579  006A34  6E0B               	movwf	(??___fleq+2)^0,c
  2580  006A36  0E7F               	movlw	127
  2581  006A38  1408               	andwf	(___fleq@ff2+3)^0,w,c
  2582  006A3A  6E0C               	movwf	(??___fleq+3)^0,c
  2583  006A3C  5009               	movf	??___fleq^0,w,c
  2584  006A3E  100A               	iorwf	(??___fleq+1)^0,w,c
  2585  006A40  100B               	iorwf	(??___fleq+2)^0,w,c
  2586  006A42  100C               	iorwf	(??___fleq+3)^0,w,c
  2587  006A44  A4D8               	btfss	status,2,c
  2588  006A46  EF27  F035         	goto	u1481
  2589  006A4A  EF29  F035         	goto	u1480
  2590  006A4E                     u1481:
  2591  006A4E  EF31  F035         	goto	l1666
  2592  006A52                     u1480:
  2593  006A52  0E00               	movlw	0
  2594  006A54  6E05               	movwf	___fleq@ff2^0,c
  2595  006A56  0E00               	movlw	0
  2596  006A58  6E06               	movwf	(___fleq@ff2+1)^0,c
  2597  006A5A  0E00               	movlw	0
  2598  006A5C  6E07               	movwf	(___fleq@ff2+2)^0,c
  2599  006A5E  0E00               	movlw	0
  2600  006A60  6E08               	movwf	(___fleq@ff2+3)^0,c
  2601  006A62                     l1666:
  2602  006A62  5005               	movf	___fleq@ff2^0,w,c
  2603  006A64  1801               	xorwf	___fleq@ff1^0,w,c
  2604  006A66  E10F               	bnz	u1490
  2605  006A68  5006               	movf	(___fleq@ff2+1)^0,w,c
  2606  006A6A  1802               	xorwf	(___fleq@ff1+1)^0,w,c
  2607  006A6C  E10C               	bnz	u1490
  2608  006A6E  5007               	movf	(___fleq@ff2+2)^0,w,c
  2609  006A70  1803               	xorwf	(___fleq@ff1+2)^0,w,c
  2610  006A72  E109               	bnz	u1490
  2611  006A74  5008               	movf	(___fleq@ff2+3)^0,w,c
  2612  006A76  1804               	xorwf	(___fleq@ff1+3)^0,w,c
  2613  006A78  B4D8               	btfsc	status,2,c
  2614  006A7A  EF41  F035         	goto	u1491
  2615  006A7E  EF43  F035         	goto	u1490
  2616  006A82                     u1491:
  2617  006A82  EF46  F035         	goto	l1670
  2618  006A86                     u1490:
  2619  006A86  90D8               	bcf	status,0,c
  2620  006A88  EF47  F035         	goto	l396
  2621  006A8C                     l1670:
  2622  006A8C  80D8               	bsf	status,0,c
  2623  006A8E                     l396:
  2624  006A8E  0012               	return		;funcret
  2625  006A90                     __end_of___fleq:
  2626                           	callstack 0
  2627                           
  2628 ;; *************** function ___fldiv *****************
  2629 ;; Defined at:
  2630 ;;		line 11 in file "C:\Program Files\Microchip\xc8\v2.20\pic\sources\c99\common\sprcdiv.c"
  2631 ;; Parameters:    Size  Location     Type
  2632 ;;  b               4   39[COMRAM] unsigned char 
  2633 ;;  a               4   43[COMRAM] unsigned char 
  2634 ;; Auto vars:     Size  Location     Type
  2635 ;;  grs             4   58[COMRAM] unsigned long 
  2636 ;;  rem             4   51[COMRAM] unsigned long 
  2637 ;;  new_exp         2   56[COMRAM] short 
  2638 ;;  aexp            1   63[COMRAM] unsigned char 
  2639 ;;  bexp            1   62[COMRAM] unsigned char 
  2640 ;;  sign            1   55[COMRAM] unsigned char 
  2641 ;; Return value:  Size  Location     Type
  2642 ;;                  4   39[COMRAM] unsigned char 
  2643 ;; Registers used:
  2644 ;;		wreg, status,2, status,0
  2645 ;; Tracked objects:
  2646 ;;		On entry : 0/0
  2647 ;;		On exit  : 0/0
  2648 ;;		Unchanged: 0/0
  2649 ;; Data sizes:     COMRAM   BANK0   BANK1   BANK2   BANK3   BANK4   BANK5   BANK6   BANK7
  2650 ;;      Params:         8       0       0       0       0       0       0       0       0
  2651 ;;      Locals:        13       0       0       0       0       0       0       0       0
  2652 ;;      Temps:          4       0       0       0       0       0       0       0       0
  2653 ;;      Totals:        25       0       0       0       0       0       0       0       0
  2654 ;;Total ram usage:       25 bytes
  2655 ;; Hardware stack levels used:    1
  2656 ;; This function calls:
  2657 ;;		Nothing
  2658 ;; This function is called by:
  2659 ;;		_main
  2660 ;; This function uses a non-reentrant model
  2661 ;;
  2662                           
  2663                           	psect	text4
  2664  006C44                     __ptext4:
  2665                           	callstack 0
  2666  006C44                     ___fldiv:
  2667                           	callstack 30
  2668  006C44  502B               	movf	(___fldiv@b+3)^0,w,c
  2669  006C46  0B80               	andlw	128
  2670  006C48  6E38               	movwf	___fldiv@sign^0,c
  2671  006C4A  502B               	movf	(___fldiv@b+3)^0,w,c
  2672  006C4C  242B               	addwf	(___fldiv@b+3)^0,w,c
  2673  006C4E  6E3F               	movwf	___fldiv@bexp^0,c
  2674  006C50  AE2A               	btfss	(___fldiv@b+2)^0,7,c
  2675  006C52  EF2D  F036         	goto	u1051
  2676  006C56  EF2F  F036         	goto	u1050
  2677  006C5A                     u1051:
  2678  006C5A  EF30  F036         	goto	l1396
  2679  006C5E                     u1050:
  2680  006C5E  803F               	bsf	___fldiv@bexp^0,0,c
  2681  006C60                     l1396:
  2682  006C60  503F               	movf	___fldiv@bexp^0,w,c
  2683  006C62  B4D8               	btfsc	status,2,c
  2684  006C64  EF36  F036         	goto	u1061
  2685  006C68  EF38  F036         	goto	u1060
  2686  006C6C                     u1061:
  2687  006C6C  EF4D  F036         	goto	l1406
  2688  006C70                     u1060:
  2689  006C70  283F               	incf	___fldiv@bexp^0,w,c
  2690  006C72  A4D8               	btfss	status,2,c
  2691  006C74  EF3E  F036         	goto	u1071
  2692  006C78  EF40  F036         	goto	u1070
  2693  006C7C                     u1071:
  2694  006C7C  EF48  F036         	goto	l1402
  2695  006C80                     u1070:
  2696  006C80  0E00               	movlw	0
  2697  006C82  6E28               	movwf	___fldiv@b^0,c
  2698  006C84  0E00               	movlw	0
  2699  006C86  6E29               	movwf	(___fldiv@b+1)^0,c
  2700  006C88  0E00               	movlw	0
  2701  006C8A  6E2A               	movwf	(___fldiv@b+2)^0,c
  2702  006C8C  0E00               	movlw	0
  2703  006C8E  6E2B               	movwf	(___fldiv@b+3)^0,c
  2704  006C90                     l1402:
  2705  006C90  8E2A               	bsf	(___fldiv@b+2)^0,7,c
  2706  006C92  0E00               	movlw	0
  2707  006C94  6E2B               	movwf	(___fldiv@b+3)^0,c
  2708  006C96  EF55  F036         	goto	l1408
  2709  006C9A                     l1406:
  2710  006C9A  0E00               	movlw	0
  2711  006C9C  6E28               	movwf	___fldiv@b^0,c
  2712  006C9E  0E00               	movlw	0
  2713  006CA0  6E29               	movwf	(___fldiv@b+1)^0,c
  2714  006CA2  0E00               	movlw	0
  2715  006CA4  6E2A               	movwf	(___fldiv@b+2)^0,c
  2716  006CA6  0E00               	movlw	0
  2717  006CA8  6E2B               	movwf	(___fldiv@b+3)^0,c
  2718  006CAA                     l1408:
  2719  006CAA  502F               	movf	(___fldiv@a+3)^0,w,c
  2720  006CAC  0B80               	andlw	128
  2721  006CAE  1A38               	xorwf	___fldiv@sign^0,f,c
  2722  006CB0  502F               	movf	(___fldiv@a+3)^0,w,c
  2723  006CB2  242F               	addwf	(___fldiv@a+3)^0,w,c
  2724  006CB4  6E40               	movwf	___fldiv@aexp^0,c
  2725  006CB6  AE2E               	btfss	(___fldiv@a+2)^0,7,c
  2726  006CB8  EF60  F036         	goto	u1081
  2727  006CBC  EF62  F036         	goto	u1080
  2728  006CC0                     u1081:
  2729  006CC0  EF63  F036         	goto	l1416
  2730  006CC4                     u1080:
  2731  006CC4  8040               	bsf	___fldiv@aexp^0,0,c
  2732  006CC6                     l1416:
  2733  006CC6  5040               	movf	___fldiv@aexp^0,w,c
  2734  006CC8  B4D8               	btfsc	status,2,c
  2735  006CCA  EF69  F036         	goto	u1091
  2736  006CCE  EF6B  F036         	goto	u1090
  2737  006CD2                     u1091:
  2738  006CD2  EF80  F036         	goto	l1426
  2739  006CD6                     u1090:
  2740  006CD6  2840               	incf	___fldiv@aexp^0,w,c
  2741  006CD8  A4D8               	btfss	status,2,c
  2742  006CDA  EF71  F036         	goto	u1101
  2743  006CDE  EF73  F036         	goto	u1100
  2744  006CE2                     u1101:
  2745  006CE2  EF7B  F036         	goto	l1422
  2746  006CE6                     u1100:
  2747  006CE6  0E00               	movlw	0
  2748  006CE8  6E2C               	movwf	___fldiv@a^0,c
  2749  006CEA  0E00               	movlw	0
  2750  006CEC  6E2D               	movwf	(___fldiv@a+1)^0,c
  2751  006CEE  0E00               	movlw	0
  2752  006CF0  6E2E               	movwf	(___fldiv@a+2)^0,c
  2753  006CF2  0E00               	movlw	0
  2754  006CF4  6E2F               	movwf	(___fldiv@a+3)^0,c
  2755  006CF6                     l1422:
  2756  006CF6  8E2E               	bsf	(___fldiv@a+2)^0,7,c
  2757  006CF8  0E00               	movlw	0
  2758  006CFA  6E2F               	movwf	(___fldiv@a+3)^0,c
  2759  006CFC  EF88  F036         	goto	l1428
  2760  006D00                     l1426:
  2761  006D00  0E00               	movlw	0
  2762  006D02  6E2C               	movwf	___fldiv@a^0,c
  2763  006D04  0E00               	movlw	0
  2764  006D06  6E2D               	movwf	(___fldiv@a+1)^0,c
  2765  006D08  0E00               	movlw	0
  2766  006D0A  6E2E               	movwf	(___fldiv@a+2)^0,c
  2767  006D0C  0E00               	movlw	0
  2768  006D0E  6E2F               	movwf	(___fldiv@a+3)^0,c
  2769  006D10                     l1428:
  2770  006D10  502C               	movf	___fldiv@a^0,w,c
  2771  006D12  102D               	iorwf	(___fldiv@a+1)^0,w,c
  2772  006D14  102E               	iorwf	(___fldiv@a+2)^0,w,c
  2773  006D16  102F               	iorwf	(___fldiv@a+3)^0,w,c
  2774  006D18  A4D8               	btfss	status,2,c
  2775  006D1A  EF91  F036         	goto	u1111
  2776  006D1E  EF93  F036         	goto	u1110
  2777  006D22                     u1111:
  2778  006D22  EFAB  F036         	goto	l1440
  2779  006D26                     u1110:
  2780  006D26  0E00               	movlw	0
  2781  006D28  6E28               	movwf	___fldiv@b^0,c
  2782  006D2A  0E00               	movlw	0
  2783  006D2C  6E29               	movwf	(___fldiv@b+1)^0,c
  2784  006D2E  0E00               	movlw	0
  2785  006D30  6E2A               	movwf	(___fldiv@b+2)^0,c
  2786  006D32  0E00               	movlw	0
  2787  006D34  6E2B               	movwf	(___fldiv@b+3)^0,c
  2788  006D36  0E80               	movlw	128
  2789  006D38  122A               	iorwf	(___fldiv@b+2)^0,f,c
  2790  006D3A  0E7F               	movlw	127
  2791  006D3C  122B               	iorwf	(___fldiv@b+3)^0,f,c
  2792  006D3E                     l1434:
  2793  006D3E  5038               	movf	___fldiv@sign^0,w,c
  2794  006D40  122B               	iorwf	(___fldiv@b+3)^0,f,c
  2795  006D42  C028  F028         	movff	___fldiv@b,?___fldiv
  2796  006D46  C029  F029         	movff	___fldiv@b+1,?___fldiv+1
  2797  006D4A  C02A  F02A         	movff	___fldiv@b+2,?___fldiv+2
  2798  006D4E  C02B  F02B         	movff	___fldiv@b+3,?___fldiv+3
  2799  006D52  EFEE  F037         	goto	l719
  2800  006D56                     l1440:
  2801  006D56  503F               	movf	___fldiv@bexp^0,w,c
  2802  006D58  A4D8               	btfss	status,2,c
  2803  006D5A  EFB1  F036         	goto	u1121
  2804  006D5E  EFB3  F036         	goto	u1120
  2805  006D62                     u1121:
  2806  006D62  EFBD  F036         	goto	l1448
  2807  006D66                     u1120:
  2808  006D66  0E00               	movlw	0
  2809  006D68  6E28               	movwf	?___fldiv^0,c
  2810  006D6A  0E00               	movlw	0
  2811  006D6C  6E29               	movwf	(?___fldiv+1)^0,c
  2812  006D6E  0E00               	movlw	0
  2813  006D70  6E2A               	movwf	(?___fldiv+2)^0,c
  2814  006D72  0E00               	movlw	0
  2815  006D74  6E2B               	movwf	(?___fldiv+3)^0,c
  2816  006D76  EFEE  F037         	goto	l719
  2817  006D7A                     l1448:
  2818  006D7A  5040               	movf	___fldiv@aexp^0,w,c
  2819  006D7C  C03F  F030         	movff	___fldiv@bexp,??___fldiv
  2820  006D80  6A31               	clrf	(??___fldiv+1)^0,c
  2821  006D82  5E30               	subwf	??___fldiv^0,f,c
  2822  006D84  0E00               	movlw	0
  2823  006D86  5A31               	subwfb	(??___fldiv+1)^0,f,c
  2824  006D88  0E7F               	movlw	127
  2825  006D8A  2430               	addwf	??___fldiv^0,w,c
  2826  006D8C  6E39               	movwf	___fldiv@new_exp^0,c
  2827  006D8E  0E00               	movlw	0
  2828  006D90  2031               	addwfc	(??___fldiv+1)^0,w,c
  2829  006D92  6E3A               	movwf	(___fldiv@new_exp+1)^0,c
  2830  006D94  C028  F034         	movff	___fldiv@b,___fldiv@rem
  2831  006D98  C029  F035         	movff	___fldiv@b+1,___fldiv@rem+1
  2832  006D9C  C02A  F036         	movff	___fldiv@b+2,___fldiv@rem+2
  2833  006DA0  C02B  F037         	movff	___fldiv@b+3,___fldiv@rem+3
  2834  006DA4  0E00               	movlw	0
  2835  006DA6  6E28               	movwf	___fldiv@b^0,c
  2836  006DA8  0E00               	movlw	0
  2837  006DAA  6E29               	movwf	(___fldiv@b+1)^0,c
  2838  006DAC  0E00               	movlw	0
  2839  006DAE  6E2A               	movwf	(___fldiv@b+2)^0,c
  2840  006DB0  0E00               	movlw	0
  2841  006DB2  6E2B               	movwf	(___fldiv@b+3)^0,c
  2842  006DB4  0E00               	movlw	0
  2843  006DB6  6E3B               	movwf	___fldiv@grs^0,c
  2844  006DB8  0E00               	movlw	0
  2845  006DBA  6E3C               	movwf	(___fldiv@grs+1)^0,c
  2846  006DBC  0E00               	movlw	0
  2847  006DBE  6E3D               	movwf	(___fldiv@grs+2)^0,c
  2848  006DC0  0E00               	movlw	0
  2849  006DC2  6E3E               	movwf	(___fldiv@grs+3)^0,c
  2850  006DC4  0E00               	movlw	0
  2851  006DC6  6E40               	movwf	___fldiv@aexp^0,c
  2852  006DC8  EF1E  F037         	goto	l721
  2853  006DCC                     l1458:
  2854  006DCC  5040               	movf	___fldiv@aexp^0,w,c
  2855  006DCE  B4D8               	btfsc	status,2,c
  2856  006DD0  EFEC  F036         	goto	u1131
  2857  006DD4  EFEE  F036         	goto	u1130
  2858  006DD8                     u1131:
  2859  006DD8  EF05  F037         	goto	l1466
  2860  006DDC                     u1130:
  2861  006DDC  90D8               	bcf	status,0,c
  2862  006DDE  3634               	rlcf	___fldiv@rem^0,f,c
  2863  006DE0  3635               	rlcf	(___fldiv@rem+1)^0,f,c
  2864  006DE2  3636               	rlcf	(___fldiv@rem+2)^0,f,c
  2865  006DE4  3637               	rlcf	(___fldiv@rem+3)^0,f,c
  2866  006DE6  90D8               	bcf	status,0,c
  2867  006DE8  3628               	rlcf	___fldiv@b^0,f,c
  2868  006DEA  3629               	rlcf	(___fldiv@b+1)^0,f,c
  2869  006DEC  362A               	rlcf	(___fldiv@b+2)^0,f,c
  2870  006DEE  362B               	rlcf	(___fldiv@b+3)^0,f,c
  2871  006DF0  AE3E               	btfss	(___fldiv@grs+3)^0,7,c
  2872  006DF2  EFFD  F036         	goto	u1141
  2873  006DF6  EFFF  F036         	goto	u1140
  2874  006DFA                     u1141:
  2875  006DFA  EF00  F037         	goto	l724
  2876  006DFE                     u1140:
  2877  006DFE  8028               	bsf	___fldiv@b^0,0,c
  2878  006E00                     l724:
  2879  006E00  90D8               	bcf	status,0,c
  2880  006E02  363B               	rlcf	___fldiv@grs^0,f,c
  2881  006E04  363C               	rlcf	(___fldiv@grs+1)^0,f,c
  2882  006E06  363D               	rlcf	(___fldiv@grs+2)^0,f,c
  2883  006E08  363E               	rlcf	(___fldiv@grs+3)^0,f,c
  2884  006E0A                     l1466:
  2885  006E0A  502C               	movf	___fldiv@a^0,w,c
  2886  006E0C  5C34               	subwf	___fldiv@rem^0,w,c
  2887  006E0E  502D               	movf	(___fldiv@a+1)^0,w,c
  2888  006E10  5835               	subwfb	(___fldiv@rem+1)^0,w,c
  2889  006E12  502E               	movf	(___fldiv@a+2)^0,w,c
  2890  006E14  5836               	subwfb	(___fldiv@rem+2)^0,w,c
  2891  006E16  502F               	movf	(___fldiv@a+3)^0,w,c
  2892  006E18  5837               	subwfb	(___fldiv@rem+3)^0,w,c
  2893  006E1A  A0D8               	btfss	status,0,c
  2894  006E1C  EF12  F037         	goto	u1151
  2895  006E20  EF14  F037         	goto	u1150
  2896  006E24                     u1151:
  2897  006E24  EF1D  F037         	goto	l1472
  2898  006E28                     u1150:
  2899  006E28  8C3E               	bsf	(___fldiv@grs+3)^0,6,c
  2900  006E2A  502C               	movf	___fldiv@a^0,w,c
  2901  006E2C  5E34               	subwf	___fldiv@rem^0,f,c
  2902  006E2E  502D               	movf	(___fldiv@a+1)^0,w,c
  2903  006E30  5A35               	subwfb	(___fldiv@rem+1)^0,f,c
  2904  006E32  502E               	movf	(___fldiv@a+2)^0,w,c
  2905  006E34  5A36               	subwfb	(___fldiv@rem+2)^0,f,c
  2906  006E36  502F               	movf	(___fldiv@a+3)^0,w,c
  2907  006E38  5A37               	subwfb	(___fldiv@rem+3)^0,f,c
  2908  006E3A                     l1472:
  2909  006E3A  2A40               	incf	___fldiv@aexp^0,f,c
  2910  006E3C                     l721:
  2911  006E3C  0E19               	movlw	25
  2912  006E3E  6440               	cpfsgt	___fldiv@aexp^0,c
  2913  006E40  EF24  F037         	goto	u1161
  2914  006E44  EF26  F037         	goto	u1160
  2915  006E48                     u1161:
  2916  006E48  EFE6  F036         	goto	l1458
  2917  006E4C                     u1160:
  2918  006E4C  5034               	movf	___fldiv@rem^0,w,c
  2919  006E4E  1035               	iorwf	(___fldiv@rem+1)^0,w,c
  2920  006E50  1036               	iorwf	(___fldiv@rem+2)^0,w,c
  2921  006E52  1037               	iorwf	(___fldiv@rem+3)^0,w,c
  2922  006E54  B4D8               	btfsc	status,2,c
  2923  006E56  EF2F  F037         	goto	u1171
  2924  006E5A  EF31  F037         	goto	u1170
  2925  006E5E                     u1171:
  2926  006E5E  EF49  F037         	goto	l1484
  2927  006E62                     u1170:
  2928  006E62  803B               	bsf	___fldiv@grs^0,0,c
  2929  006E64  EF49  F037         	goto	l1484
  2930  006E68                     l1478:
  2931  006E68  90D8               	bcf	status,0,c
  2932  006E6A  3628               	rlcf	___fldiv@b^0,f,c
  2933  006E6C  3629               	rlcf	(___fldiv@b+1)^0,f,c
  2934  006E6E  362A               	rlcf	(___fldiv@b+2)^0,f,c
  2935  006E70  362B               	rlcf	(___fldiv@b+3)^0,f,c
  2936  006E72  AE3E               	btfss	(___fldiv@grs+3)^0,7,c
  2937  006E74  EF3E  F037         	goto	u1181
  2938  006E78  EF40  F037         	goto	u1180
  2939  006E7C                     u1181:
  2940  006E7C  EF41  F037         	goto	l730
  2941  006E80                     u1180:
  2942  006E80  8028               	bsf	___fldiv@b^0,0,c
  2943  006E82                     l730:
  2944  006E82  90D8               	bcf	status,0,c
  2945  006E84  363B               	rlcf	___fldiv@grs^0,f,c
  2946  006E86  363C               	rlcf	(___fldiv@grs+1)^0,f,c
  2947  006E88  363D               	rlcf	(___fldiv@grs+2)^0,f,c
  2948  006E8A  363E               	rlcf	(___fldiv@grs+3)^0,f,c
  2949  006E8C  0639               	decf	___fldiv@new_exp^0,f,c
  2950  006E8E  A0D8               	btfss	status,0,c
  2951  006E90  063A               	decf	(___fldiv@new_exp+1)^0,f,c
  2952  006E92                     l1484:
  2953  006E92  AE2A               	btfss	(___fldiv@b+2)^0,7,c
  2954  006E94  EF4E  F037         	goto	u1191
  2955  006E98  EF50  F037         	goto	u1190
  2956  006E9C                     u1191:
  2957  006E9C  EF34  F037         	goto	l1478
  2958  006EA0                     u1190:
  2959  006EA0  0E00               	movlw	0
  2960  006EA2  6E40               	movwf	___fldiv@aexp^0,c
  2961  006EA4  AE3E               	btfss	(___fldiv@grs+3)^0,7,c
  2962  006EA6  EF57  F037         	goto	u1201
  2963  006EAA  EF59  F037         	goto	u1200
  2964  006EAE                     u1201:
  2965  006EAE  EF7D  F037         	goto	l732
  2966  006EB2                     u1200:
  2967  006EB2  0EFF               	movlw	255
  2968  006EB4  143B               	andwf	___fldiv@grs^0,w,c
  2969  006EB6  6E30               	movwf	??___fldiv^0,c
  2970  006EB8  0EFF               	movlw	255
  2971  006EBA  143C               	andwf	(___fldiv@grs+1)^0,w,c
  2972  006EBC  6E31               	movwf	(??___fldiv+1)^0,c
  2973  006EBE  0EFF               	movlw	255
  2974  006EC0  143D               	andwf	(___fldiv@grs+2)^0,w,c
  2975  006EC2  6E32               	movwf	(??___fldiv+2)^0,c
  2976  006EC4  0E7F               	movlw	127
  2977  006EC6  143E               	andwf	(___fldiv@grs+3)^0,w,c
  2978  006EC8  6E33               	movwf	(??___fldiv+3)^0,c
  2979  006ECA  5030               	movf	??___fldiv^0,w,c
  2980  006ECC  1031               	iorwf	(??___fldiv+1)^0,w,c
  2981  006ECE  1032               	iorwf	(??___fldiv+2)^0,w,c
  2982  006ED0  1033               	iorwf	(??___fldiv+3)^0,w,c
  2983  006ED2  B4D8               	btfsc	status,2,c
  2984  006ED4  EF6E  F037         	goto	u1211
  2985  006ED8  EF70  F037         	goto	u1210
  2986  006EDC                     u1211:
  2987  006EDC  EF74  F037         	goto	l733
  2988  006EE0                     u1210:
  2989  006EE0                     l1492:
  2990  006EE0  0E01               	movlw	1
  2991  006EE2  6E40               	movwf	___fldiv@aexp^0,c
  2992  006EE4  EF7D  F037         	goto	l732
  2993  006EE8                     l733:
  2994  006EE8  A028               	btfss	___fldiv@b^0,0,c
  2995  006EEA  EF79  F037         	goto	u1221
  2996  006EEE  EF7B  F037         	goto	u1220
  2997  006EF2                     u1221:
  2998  006EF2  EF7D  F037         	goto	l732
  2999  006EF6                     u1220:
  3000  006EF6  EF70  F037         	goto	l1492
  3001  006EFA                     l732:
  3002  006EFA  5040               	movf	___fldiv@aexp^0,w,c
  3003  006EFC  B4D8               	btfsc	status,2,c
  3004  006EFE  EF83  F037         	goto	u1231
  3005  006F02  EF85  F037         	goto	u1230
  3006  006F06                     u1231:
  3007  006F06  EFA9  F037         	goto	l1504
  3008  006F0A                     u1230:
  3009  006F0A  0E01               	movlw	1
  3010  006F0C  2628               	addwf	___fldiv@b^0,f,c
  3011  006F0E  0E00               	movlw	0
  3012  006F10  2229               	addwfc	(___fldiv@b+1)^0,f,c
  3013  006F12  222A               	addwfc	(___fldiv@b+2)^0,f,c
  3014  006F14  222B               	addwfc	(___fldiv@b+3)^0,f,c
  3015  006F16  A02B               	btfss	(___fldiv@b+3)^0,0,c
  3016  006F18  EF90  F037         	goto	u1241
  3017  006F1C  EF92  F037         	goto	u1240
  3018  006F20                     u1241:
  3019  006F20  EFA9  F037         	goto	l1504
  3020  006F24                     u1240:
  3021  006F24  C028  F030         	movff	___fldiv@b,??___fldiv
  3022  006F28  C029  F031         	movff	___fldiv@b+1,??___fldiv+1
  3023  006F2C  C02A  F032         	movff	___fldiv@b+2,??___fldiv+2
  3024  006F30  C02B  F033         	movff	___fldiv@b+3,??___fldiv+3
  3025  006F34  3433               	rlcf	(??___fldiv+3)^0,w,c
  3026  006F36  3233               	rrcf	(??___fldiv+3)^0,f,c
  3027  006F38  3232               	rrcf	(??___fldiv+2)^0,f,c
  3028  006F3A  3231               	rrcf	(??___fldiv+1)^0,f,c
  3029  006F3C  3230               	rrcf	??___fldiv^0,f,c
  3030  006F3E  C030  F028         	movff	??___fldiv,___fldiv@b
  3031  006F42  C031  F029         	movff	??___fldiv+1,___fldiv@b+1
  3032  006F46  C032  F02A         	movff	??___fldiv+2,___fldiv@b+2
  3033  006F4A  C033  F02B         	movff	??___fldiv+3,___fldiv@b+3
  3034  006F4E  4A39               	infsnz	___fldiv@new_exp^0,f,c
  3035  006F50  2A3A               	incf	(___fldiv@new_exp+1)^0,f,c
  3036  006F52                     l1504:
  3037  006F52  BE3A               	btfsc	(___fldiv@new_exp+1)^0,7,c
  3038  006F54  EFB4  F037         	goto	u1251
  3039  006F58  503A               	movf	(___fldiv@new_exp+1)^0,w,c
  3040  006F5A  E108               	bnz	u1250
  3041  006F5C  2839               	incf	___fldiv@new_exp^0,w,c
  3042  006F5E  A0D8               	btfss	status,0,c
  3043  006F60  EFB4  F037         	goto	u1251
  3044  006F64  EFB6  F037         	goto	u1250
  3045  006F68                     u1251:
  3046  006F68  EFC1  F037         	goto	l1508
  3047  006F6C                     u1250:
  3048  006F6C  0E00               	movlw	0
  3049  006F6E  6E3A               	movwf	(___fldiv@new_exp+1)^0,c
  3050  006F70  6839               	setf	___fldiv@new_exp^0,c
  3051  006F72  0E00               	movlw	0
  3052  006F74  6E28               	movwf	___fldiv@b^0,c
  3053  006F76  0E00               	movlw	0
  3054  006F78  6E29               	movwf	(___fldiv@b+1)^0,c
  3055  006F7A  0E00               	movlw	0
  3056  006F7C  6E2A               	movwf	(___fldiv@b+2)^0,c
  3057  006F7E  0E00               	movlw	0
  3058  006F80  6E2B               	movwf	(___fldiv@b+3)^0,c
  3059  006F82                     l1508:
  3060  006F82  BE3A               	btfsc	(___fldiv@new_exp+1)^0,7,c
  3061  006F84  EFCE  F037         	goto	u1260
  3062  006F88  503A               	movf	(___fldiv@new_exp+1)^0,w,c
  3063  006F8A  E106               	bnz	u1261
  3064  006F8C  0439               	decf	___fldiv@new_exp^0,w,c
  3065  006F8E  B0D8               	btfsc	status,0,c
  3066  006F90  EFCC  F037         	goto	u1261
  3067  006F94  EFCE  F037         	goto	u1260
  3068  006F98                     u1261:
  3069  006F98  EFDC  F037         	goto	l1512
  3070  006F9C                     u1260:
  3071  006F9C  0E00               	movlw	0
  3072  006F9E  6E3A               	movwf	(___fldiv@new_exp+1)^0,c
  3073  006FA0  0E00               	movlw	0
  3074  006FA2  6E39               	movwf	___fldiv@new_exp^0,c
  3075  006FA4  0E00               	movlw	0
  3076  006FA6  6E28               	movwf	___fldiv@b^0,c
  3077  006FA8  0E00               	movlw	0
  3078  006FAA  6E29               	movwf	(___fldiv@b+1)^0,c
  3079  006FAC  0E00               	movlw	0
  3080  006FAE  6E2A               	movwf	(___fldiv@b+2)^0,c
  3081  006FB0  0E00               	movlw	0
  3082  006FB2  6E2B               	movwf	(___fldiv@b+3)^0,c
  3083  006FB4  0E00               	movlw	0
  3084  006FB6  6E38               	movwf	___fldiv@sign^0,c
  3085  006FB8                     l1512:
  3086  006FB8  C039  F03F         	movff	___fldiv@new_exp,___fldiv@bexp
  3087  006FBC  A03F               	btfss	___fldiv@bexp^0,0,c
  3088  006FBE  EFE3  F037         	goto	u1271
  3089  006FC2  EFE5  F037         	goto	u1270
  3090  006FC6                     u1271:
  3091  006FC6  EFE8  F037         	goto	l1518
  3092  006FCA                     u1270:
  3093  006FCA  8E2A               	bsf	(___fldiv@b+2)^0,7,c
  3094  006FCC  EFE9  F037         	goto	l1520
  3095  006FD0                     l1518:
  3096  006FD0  9E2A               	bcf	(___fldiv@b+2)^0,7,c
  3097  006FD2                     l1520:
  3098  006FD2  90D8               	bcf	status,0,c
  3099  006FD4  303F               	rrcf	___fldiv@bexp^0,w,c
  3100  006FD6  6E2B               	movwf	(___fldiv@b+3)^0,c
  3101  006FD8  EF9F  F036         	goto	l1434
  3102  006FDC                     l719:
  3103  006FDC  0012               	return		;funcret
  3104  006FDE                     __end_of___fldiv:
  3105                           	callstack 0
  3106  0000                     
  3107                           	psect	rparam
  3108  0000                     
  3109                           	psect	idloc
  3110                           
  3111                           ;Config register IDLOC0 @ 0x200000
  3112                           ;	unspecified, using default values
  3113  200000                     	org	2097152
  3114  200000  FF                 	db	255
  3115                           
  3116                           ;Config register IDLOC1 @ 0x200001
  3117                           ;	unspecified, using default values
  3118  200001                     	org	2097153
  3119  200001  FF                 	db	255
  3120                           
  3121                           ;Config register IDLOC2 @ 0x200002
  3122                           ;	unspecified, using default values
  3123  200002                     	org	2097154
  3124  200002  FF                 	db	255
  3125                           
  3126                           ;Config register IDLOC3 @ 0x200003
  3127                           ;	unspecified, using default values
  3128  200003                     	org	2097155
  3129  200003  FF                 	db	255
  3130                           
  3131                           ;Config register IDLOC4 @ 0x200004
  3132                           ;	unspecified, using default values
  3133  200004                     	org	2097156
  3134  200004  FF                 	db	255
  3135                           
  3136                           ;Config register IDLOC5 @ 0x200005
  3137                           ;	unspecified, using default values
  3138  200005                     	org	2097157
  3139  200005  FF                 	db	255
  3140                           
  3141                           ;Config register IDLOC6 @ 0x200006
  3142                           ;	unspecified, using default values
  3143  200006                     	org	2097158
  3144  200006  FF                 	db	255
  3145                           
  3146                           ;Config register IDLOC7 @ 0x200007
  3147                           ;	unspecified, using default values
  3148  200007                     	org	2097159
  3149  200007  FF                 	db	255
  3150                           
  3151                           	psect	config
  3152                           
  3153                           ;Config register CONFIG1L @ 0x300000
  3154                           ;	unspecified, using default values
  3155                           ;	PLL Prescaler Selection bits
  3156                           ;	PLLDIV = 0x0, unprogrammed default
  3157                           ;	System Clock Postscaler Selection bits
  3158                           ;	CPUDIV = 0x0, unprogrammed default
  3159                           ;	USB Clock Selection bit (used in Full-Speed USB mode only; UCFG:FSEN = 1)
  3160                           ;	USBDIV = 0x0, unprogrammed default
  3161  300000                     	org	3145728
  3162  300000  00                 	db	0
  3163                           
  3164                           ;Config register CONFIG1H @ 0x300001
  3165                           ;	unspecified, using default values
  3166                           ;	Oscillator Selection bits
  3167                           ;	FOSC = 0x5, unprogrammed default
  3168                           ;	Fail-Safe Clock Monitor Enable bit
  3169                           ;	FCMEN = 0x0, unprogrammed default
  3170                           ;	Internal/External Oscillator Switchover bit
  3171                           ;	IESO = 0x0, unprogrammed default
  3172  300001                     	org	3145729
  3173  300001  05                 	db	5
  3174                           
  3175                           ;Config register CONFIG2L @ 0x300002
  3176                           ;	unspecified, using default values
  3177                           ;	Power-up Timer Enable bit
  3178                           ;	PWRT = 0x1, unprogrammed default
  3179                           ;	Brown-out Reset Enable bits
  3180                           ;	BOR = 0x3, unprogrammed default
  3181                           ;	Brown-out Reset Voltage bits
  3182                           ;	BORV = 0x3, unprogrammed default
  3183                           ;	USB Voltage Regulator Enable bit
  3184                           ;	VREGEN = 0x0, unprogrammed default
  3185  300002                     	org	3145730
  3186  300002  1F                 	db	31
  3187                           
  3188                           ;Config register CONFIG2H @ 0x300003
  3189                           ;	unspecified, using default values
  3190                           ;	Watchdog Timer Enable bit
  3191                           ;	WDT = 0x1, unprogrammed default
  3192                           ;	Watchdog Timer Postscale Select bits
  3193                           ;	WDTPS = 0xF, unprogrammed default
  3194  300003                     	org	3145731
  3195  300003  1F                 	db	31
  3196                           
  3197                           ; Padding undefined space
  3198  300004                     	org	3145732
  3199  300004  FF                 	db	255
  3200                           
  3201                           ;Config register CONFIG3H @ 0x300005
  3202                           ;	unspecified, using default values
  3203                           ;	CCP2 MUX bit
  3204                           ;	CCP2MX = 0x1, unprogrammed default
  3205                           ;	PORTB A/D Enable bit
  3206                           ;	PBADEN = 0x1, unprogrammed default
  3207                           ;	Low-Power Timer 1 Oscillator Enable bit
  3208                           ;	LPT1OSC = 0x0, unprogrammed default
  3209                           ;	MCLR Pin Enable bit
  3210                           ;	MCLRE = 0x1, unprogrammed default
  3211  300005                     	org	3145733
  3212  300005  83                 	db	131
  3213                           
  3214                           ;Config register CONFIG4L @ 0x300006
  3215                           ;	unspecified, using default values
  3216                           ;	Stack Full/Underflow Reset Enable bit
  3217                           ;	STVREN = 0x1, unprogrammed default
  3218                           ;	Single-Supply ICSP Enable bit
  3219                           ;	LVP = 0x1, unprogrammed default
  3220                           ;	Dedicated In-Circuit Debug/Programming Port (ICPORT) Enable bit
  3221                           ;	ICPRT = 0x0, unprogrammed default
  3222                           ;	Extended Instruction Set Enable bit
  3223                           ;	XINST = 0x0, unprogrammed default
  3224                           ;	Background Debugger Enable bit
  3225                           ;	DEBUG = 0x1, unprogrammed default
  3226  300006                     	org	3145734
  3227  300006  85                 	db	133
  3228                           
  3229                           ; Padding undefined space
  3230  300007                     	org	3145735
  3231  300007  FF                 	db	255
  3232                           
  3233                           ;Config register CONFIG5L @ 0x300008
  3234                           ;	unspecified, using default values
  3235                           ;	Code Protection bit
  3236                           ;	CP0 = 0x1, unprogrammed default
  3237                           ;	Code Protection bit
  3238                           ;	CP1 = 0x1, unprogrammed default
  3239                           ;	Code Protection bit
  3240                           ;	CP2 = 0x1, unprogrammed default
  3241                           ;	Code Protection bit
  3242                           ;	CP3 = 0x1, unprogrammed default
  3243  300008                     	org	3145736
  3244  300008  0F                 	db	15
  3245                           
  3246                           ;Config register CONFIG5H @ 0x300009
  3247                           ;	unspecified, using default values
  3248                           ;	Boot Block Code Protection bit
  3249                           ;	CPB = 0x1, unprogrammed default
  3250                           ;	Data EEPROM Code Protection bit
  3251                           ;	CPD = 0x1, unprogrammed default
  3252  300009                     	org	3145737
  3253  300009  C0                 	db	192
  3254                           
  3255                           ;Config register CONFIG6L @ 0x30000A
  3256                           ;	unspecified, using default values
  3257                           ;	Write Protection bit
  3258                           ;	WRT0 = 0x1, unprogrammed default
  3259                           ;	Write Protection bit
  3260                           ;	WRT1 = 0x1, unprogrammed default
  3261                           ;	Write Protection bit
  3262                           ;	WRT2 = 0x1, unprogrammed default
  3263                           ;	Write Protection bit
  3264                           ;	WRT3 = 0x1, unprogrammed default
  3265  30000A                     	org	3145738
  3266  30000A  0F                 	db	15
  3267                           
  3268                           ;Config register CONFIG6H @ 0x30000B
  3269                           ;	unspecified, using default values
  3270                           ;	Configuration Register Write Protection bit
  3271                           ;	WRTC = 0x1, unprogrammed default
  3272                           ;	Boot Block Write Protection bit
  3273                           ;	WRTB = 0x1, unprogrammed default
  3274                           ;	Data EEPROM Write Protection bit
  3275                           ;	WRTD = 0x1, unprogrammed default
  3276  30000B                     	org	3145739
  3277  30000B  E0                 	db	224
  3278                           
  3279                           ;Config register CONFIG7L @ 0x30000C
  3280                           ;	unspecified, using default values
  3281                           ;	Table Read Protection bit
  3282                           ;	EBTR0 = 0x1, unprogrammed default
  3283                           ;	Table Read Protection bit
  3284                           ;	EBTR1 = 0x1, unprogrammed default
  3285                           ;	Table Read Protection bit
  3286                           ;	EBTR2 = 0x1, unprogrammed default
  3287                           ;	Table Read Protection bit
  3288                           ;	EBTR3 = 0x1, unprogrammed default
  3289  30000C                     	org	3145740
  3290  30000C  0F                 	db	15
  3291                           
  3292                           ;Config register CONFIG7H @ 0x30000D
  3293                           ;	unspecified, using default values
  3294                           ;	Boot Block Table Read Protection bit
  3295                           ;	EBTRB = 0x1, unprogrammed default
  3296  30000D                     	org	3145741
  3297  30000D  40                 	db	64
  3298                           tosu	equ	0xFFF
  3299                           tosh	equ	0xFFE
  3300                           tosl	equ	0xFFD
  3301                           stkptr	equ	0xFFC
  3302                           pclatu	equ	0xFFB
  3303                           pclath	equ	0xFFA
  3304                           pcl	equ	0xFF9
  3305                           tblptru	equ	0xFF8
  3306                           tblptrh	equ	0xFF7
  3307                           tblptrl	equ	0xFF6
  3308                           tablat	equ	0xFF5
  3309                           prodh	equ	0xFF4
  3310                           prodl	equ	0xFF3
  3311                           indf0	equ	0xFEF
  3312                           postinc0	equ	0xFEE
  3313                           postdec0	equ	0xFED
  3314                           preinc0	equ	0xFEC
  3315                           plusw0	equ	0xFEB
  3316                           fsr0h	equ	0xFEA
  3317                           fsr0l	equ	0xFE9
  3318                           wreg	equ	0xFE8
  3319                           indf1	equ	0xFE7
  3320                           postinc1	equ	0xFE6
  3321                           postdec1	equ	0xFE5
  3322                           preinc1	equ	0xFE4
  3323                           plusw1	equ	0xFE3
  3324                           fsr1h	equ	0xFE2
  3325                           fsr1l	equ	0xFE1
  3326                           bsr	equ	0xFE0
  3327                           indf2	equ	0xFDF
  3328                           postinc2	equ	0xFDE
  3329                           postdec2	equ	0xFDD
  3330                           preinc2	equ	0xFDC
  3331                           plusw2	equ	0xFDB
  3332                           fsr2h	equ	0xFDA
  3333                           fsr2l	equ	0xFD9
  3334                           status	equ	0xFD8

Data Sizes:
    Strings     0
    Constant    0
    Data        0
    BSS         0
    Persistent  0
    Stack       0

Auto Spaces:
    Space          Size  Autos    Used
    COMRAM           95     72      72
    BANK0           160      0       0
    BANK1           256      0       0
    BANK2           256      0       0
    BANK3           256      0       0
    BANK4           256      0       0
    BANK5           256      0       0
    BANK6           256      0       0
    BANK7           256      0       0

Pointer List with Targets:

    None.

Critical Paths under _main in COMRAM

    _main->___fldiv
    ___flmul->___xxtofl
    ___fldiv->___flmul

Critical Paths under _main in BANK0

    None.

Critical Paths under _main in BANK1

    None.

Critical Paths under _main in BANK2

    None.

Critical Paths under _main in BANK3

    None.

Critical Paths under _main in BANK4

    None.

Critical Paths under _main in BANK5

    None.

Critical Paths under _main in BANK6

    None.

Critical Paths under _main in BANK7

    None.

Call Graph Tables:

 ---------------------------------------------------------------------------------
 (Depth) Function   	        Calls       Base Space   Used Autos Params    Refs
 ---------------------------------------------------------------------------------
 (0) _main                                                 8     8      0   12479
                                             64 COMRAM     8     8      0
                            ___fldiv
                             ___fleq
                            ___flmul
                           ___xxtofl
 ---------------------------------------------------------------------------------
 (1) ___xxtofl                                            14    10      4     398
                                              0 COMRAM    14    10      4
 ---------------------------------------------------------------------------------
 (1) ___flmul                                             25    17      8    1744
                                             14 COMRAM    25    17      8
                           ___xxtofl (ARG)
 ---------------------------------------------------------------------------------
 (1) ___fleq                                              12     4      8    7790
                                              0 COMRAM    12     4      8
 ---------------------------------------------------------------------------------
 (1) ___fldiv                                             25    17      8    1399
                                             39 COMRAM    25    17      8
                            ___flmul (ARG)
                           ___xxtofl (ARG)
 ---------------------------------------------------------------------------------
 Estimated maximum stack depth 1
 ---------------------------------------------------------------------------------

 Call Graph Graphs:

 _main (ROOT)
   ___fldiv
     ___flmul (ARG)
       ___xxtofl (ARG)
     ___xxtofl (ARG)
   ___fleq
   ___flmul
     ___xxtofl (ARG)
   ___xxtofl

 Address spaces:
Name               Size   Autos  Total    Cost      Usage
BITCOMRAM           5F      0       0       0        0.0%
EEDATA             100      0       0       0        0.0%
NULL                 0      0       0       0        0.0%
CODE                 0      0       0       0        0.0%
COMRAM              5F     48      48       1       75.8%
STACK                0      0       0       2        0.0%
DATA                 0      0       0       3        0.0%
BITBANK0            A0      0       0       4        0.0%
BANK0               A0      0       0       5        0.0%
BITBANK1           100      0       0       6        0.0%
BANK1              100      0       0       7        0.0%
BITBANK2           100      0       0       8        0.0%
BANK2              100      0       0       9        0.0%
BITBANK3           100      0       0      10        0.0%
BANK3              100      0       0      11        0.0%
BITBANK4           100      0       0      12        0.0%
BANK4              100      0       0      13        0.0%
BITBANK5           100      0       0      14        0.0%
BANK5              100      0       0      15        0.0%
BITBANK6           100      0       0      16        0.0%
BANK6              100      0       0      17        0.0%
BITBANK7           100      0       0      18        0.0%
BANK7              100      0       0      19        0.0%
ABS                  0      0       0      20        0.0%
BIGRAM             7FF      0       0      21        0.0%
BITSFR               0      0       0     200        0.0%
SFR                  0      0       0     200        0.0%


Microchip Technology PIC18 Macro Assembler V2.20 build 20200408173844 
Symbol Table                                                                                   Wed Aug 19 21:18:59 2020

           ___fldiv@aexp 0040             ___fldiv@bexp 003F             ___fldiv@sign 0038  
                     l33 7448                      l125 7FF6                      l721 6E3C  
                    l730 6E82                      l732 6EFA                      l724 6E00  
                    l396 6A8E                      l733 6EE8                      l806 6BDA  
                    l719 6FDC                      l751 70A2                      l760 7310  
                    l761 72FE                      l755 7406                      l758 7298  
                    l768 73C8                      l792 6AE6                      l795 6C42  
                    l799 6B7E                      wreg 000FE8             ___flmul@aexp 0020  
           ___flmul@bexp 0021             ___flmul@sign 001B             ___flmul@temp 0026  
           ___flmul@prod 0022                     l1400 6C80                     l1410 6CB0  
                   l1402 6C90                     l1500 6F24                     l1420 6CE6  
                   l1412 6CB6                     l1404 6C92                     l1510 6F9C  
                   l1502 6F4E                     l1430 6D26                     l1422 6CF6  
                   l1414 6CC4                     l1406 6C9A                     l1520 6FD2  
                   l1512 6FB8                     l1504 6F52                     l1432 6D36  
                   l1440 6D56                     l1424 6CF8                     l1416 6CC6  
                   l1408 6CAA                     l1600 71D6                     l1514 6FBC  
                   l1506 6F6C                     l1450 6D94                     l1442 6D66  
                   l1434 6D3E                     l1418 6CD6                     l1426 6D00  
                   l1610 727E                     l1602 71F2                     l1530 6FEA  
                   l1516 6FCA                     l1508 6F82                     l1460 6DDC  
                   l1452 6DA4                     l1444 6D66                     l1436 6D42  
                   l1428 6D10                     l1620 72BA                     l1612 7288  
                   l1604 721C                     l1540 702A                     l1532 6FF8  
                   l1700 6BBC                     l1518 6FD0                     l1470 6E2A  
                   l1462 6DF0                     l1454 6DB4                     l1390 6C44  
                   l1630 732C                     l1622 72C8                     l1614 7296  
                   l1606 7252                     l1550 705A                     l1542 7030  
                   l1534 6FFA                     l1710 6C12                     l1702 6BCA  
                   l1480 6E72                     l1472 6E3A                     l1464 6DFE  
                   l1456 6DC4                     l1448 6D7A                     l1392 6C50  
                   l1640 7396                     l1632 733A                     l1624 72F6  
                   l1616 72A8                     l1608 7260                     l1560 7092  
                   l1552 705C                     l1544 7040                     l1536 700A  
                   l1528 6FDE                     l1712 6C22                     l1704 6BE8  
                   l1800 7672                     l1720 7408                     l1490 6EB2  
                   l1482 6E80                     l1474 6E4C                     l1466 6E0A  
                   l1458 6DCC                     l1394 6C5E                     l1650 73EC  
                   l1642 73B0                     l1634 7364                     l1618 72B6  
                   l1570 70E2                     l1562 70B2                     l1554 706C  
                   l1546 7046                     l1538 701A                     l1714 6C30  
                   l1706 6BEA                     l1810 7718                     l1802 76A4  
                   l1730 7420                     l1722 7410                     l1492 6EE0  
                   l1476 6E62                     l1484 6E92                     l1468 6E28  
                   l1396 6C60                     l1660 6A14                     l1644 73CC  
                   l1652 73F2                     l1628 7320                     l1636 7368  
                   l1580 7132                     l1572 70EC                     l1564 70C2  
                   l1556 707C                     l1548 704C                     l1716 6C32  
                   l1708 6BEE                     l1900 7C1C                     l1820 7794  
                   l1812 7720                     l1804 76AC                     l1740 742A  
                   l1732 7422                     l1724 741A                     l1486 6EA0  
                   l1478 6E68                     l1398 6C70                     l1670 6A8C  
                   l1662 6A24                     l1654 73F6                     l1646 73DC  
                   l1638 7382                     l1590 7174                     l1582 713E  
                   l1574 7102                     l1558 708C                     l1910 7CC2  
                   l1902 7C4E                     l1830 783A                     l1822 77C6  
                   l1814 7752                     l1806 76DE                     l1750 7434  
                   l1742 742C                     l1734 7424                     l1726 741C  
                   l1496 6F0A                     l1488 6EA4                     l1664 6A52  
                   l1648 73EA                     l1592 7184                     l1584 714C  
                   l1576 710E                     l1568 70D6                     l1680 6AF6  
                   l1920 7D3E                     l1912 7CCA                     l1904 7C56  
                   l1840 78B6                     l1832 7842                     l1824 77CE  
                   l1816 775A                     l1808 76E6                     l1760 743E  
                   l1752 7436                     l1744 742E                     l1736 7426  
                   l1728 741E                     l1498 6F16                     l1666 6A62  
                   l1658 69E6                     l1594 719E                     l1586 7158  
                   l1578 7126                     l1690 6B34                     l1682 6B0C  
                   l1674 6A92                     l1930 7DE4                     l1922 7D70  
                   l1914 7CFC                     l1906 7C88                     l1850 795C  
                   l1842 78E8                     l1834 7874                     l1826 7800  
                   l1818 778C                     l1770 746C                     l1762 7440  
                   l1754 7438                     l1746 7430                     l1738 7428  
                   l1668 6A86                     l1596 71AE                     l1588 7168  
                   l1692 6B66                     l1676 6AA2                     l1940 7E60  
                   l1932 7DEC                     l1924 7D78                     l1916 7D04  
                   l1908 7C90                     l1860 79D8                     l1852 7964  
                   l1844 78F0                     l1836 787C                     l1828 7808  
                   l1780 7550                     l1772 74DC                     l1764 7442  
                   l1756 743A                     l1748 7432                     l1598 71CA  
                   l1694 6B68                     l1686 6B20                     l1678 6AB0  
                   l1950 7F06                     l1942 7E92                     l1934 7E1E  
                   l1926 7DAA                     l1918 7D36                     l1870 7A7E  
                   l1862 7A0A                     l1854 7996                     l1846 7922  
                   l1838 78AE                     l1790 75F6                     l1782 7582  
                   l1774 750E                     l1766 744E                     l1758 743C  
                   l1696 6B74                     l1688 6B28                     l1960 7F82  
                   l1952 7F0E                     l1944 7E9A                     l1936 7E26  
                   l1928 7DB2                     l1880 7AFA                     l1872 7A86  
                   l1864 7A12                     l1856 799E                     l1848 792A  
                   l1792 75FE                     l1784 758A                     l1776 7516  
                   l1768 7460                     l1698 6BB0                     l1962 7FB4  
                   l1954 7F40                     l1946 7ECC                     l1938 7E58  
                   l1890 7BA0                     l1882 7B2C                     l1874 7AB8  
                   l1866 7A44                     l1858 79D0                     l1794 7630  
                   l1786 75BC                     l1778 7548                     l1964 7FBC  
                   l1956 7F48                     l1948 7ED4                     l1892 7BA8  
                   l1884 7B34                     l1876 7AC0                     l1868 7A4C  
                   l1796 7638                     l1788 75C4                     l1966 7FEE  
                   l1958 7F7A                     l1894 7BDA                     l1886 7B66  
                   l1878 7AF2                     l1798 766A                     l1896 7BE2  
                   l1888 7B6E                     l1968 7FF6                     l1898 7C14  
                   u1100 6CE6                     u1101 6CE2                     u1110 6D26  
                   u1111 6D22                     u1200 6EB2                     u1120 6D66  
                   u2000 7E1E                     u1201 6EAE                     u1121 6D62  
                   u2001 7E1A                     u1210 6EE0                     u1130 6DDC  
                   u1050 6C5E                     u2010 7E58                     u1211 6EDC  
                   u1131 6DD8                     u1051 6C5A                     u2011 7E54  
                   u1220 6EF6                     u1140 6DFE                     u1060 6C70  
                   u1300 701A                     u2020 7E92                     u1221 6EF2  
                   u1141 6DFA                     u1061 6C6C                     u1301 7016  
                   u2021 7E8E                     u1230 6F0A                     u1150 6E28  
                   u1070 6C80                     u1310 705A                     u2030 7ECC  
                   u1231 6F06                     u1151 6E24                     u1071 6C7C  
                   u1311 7056                     u2031 7EC8                     u1240 6F24  
                   u1160 6E4C                     u1080 6CC4                     u1400 72F6  
                   u1320 706C                     u2040 7F06                     u1241 6F20  
                   u1161 6E48                     u1081 6CC0                     u1401 72F2  
                   u1321 7068                     u2041 7F02                     u1250 6F6C  
                   u1170 6E62                     u1090 6CD6                     u1410 730C  
                   u1330 707C                     u2050 7F40                     u1251 6F68  
                   u1171 6E5E                     u1091 6CD2                     u1411 7308  
                   u1331 7078                     u2051 7F3C                     u1260 6F9C  
                   u1180 6E80                     u1420 7320                     u1340 70B2  
                   u1500 6AA2                     u2060 7F7A                     u1261 6F98  
                   u1181 6E7C                     u1421 731C                     u1341 70AE  
                   u1501 6A9E                     u2061 7F76                     u1270 6FCA  
                   u1190 6EA0                     u1430 733A                     u1350 70C2  
                   u1510 6AB0                     u2070 7FB4                     u1271 6FC6  
                   u1191 6E9C                     u1431 7336                     u1351 70BE  
                   u1511 6AAC                     u2071 7FB0                     u1440 7382  
                   u1360 723C                     u1280 6FF8                     u1520 6B0C  
                   u2080 7FEE                     u1600 750E                     u1441 737E  
                   u1281 6FF4                     u1521 6B08                     u2081 7FEA  
                   u1601 750A                     u1450 73B0                     u1370 7296  
                   u1290 700A                     u1530 6B62                     u1610 7548  
                   u1451 73AC                     u1371 7292                     u1291 7006  
                   u1531 6B5E                     u1611 7544                     u1460 73EA  
                   u1380 72B6                     u1540 6BAC                     u1700 7752  
                   u1620 7582                     u1461 73E6                     u1381 72B2  
                   u1365 7232                     u1541 6BA8                     u1701 774E  
                   u1621 757E                     u1470 6A14                     u1390 72C8  
                   u1550 6BCA                     u1710 778C                     u1630 75BC  
                   u1471 6A10                     u1391 72C4                     u1551 6BC6  
                   u1711 7788                     u1631 75B8                     u1480 6A52  
                   u1560 6BDA                     u1800 7996                     u1720 77C6  
                   u1640 75F6                     u1481 6A4E                     u1561 6BD6  
                   u1801 7992                     u1721 77C2                     u1641 75F2  
                   u1490 6A86                     u1570 6BE8                     u1810 79D0  
                   u1730 7800                     u1650 7630                     u1491 6A82  
                   u1571 6BE4                     u1811 79CC                     u1731 77FC  
                   u1651 762C                     u1580 6C22                     u1900 7BDA  
                   u1820 7A0A                     u1740 783A                     u1660 766A  
                   u1581 6C1E                     u1901 7BD6                     u1821 7A06  
                   u1741 7836                     u1661 7666                     u1590 6C30  
                   u1910 7C14                     u1830 7A44                     u1750 7874  
                   u1670 76A4                     u1591 6C2C                     u1911 7C10  
                   u1831 7A40                     u1751 7870                     u1671 76A0  
                   u1920 7C4E                     u1840 7A7E                     u1760 78AE  
                   u1680 76DE                     u1921 7C4A                     u1841 7A7A  
                   u1761 78AA                     u1681 76DA                     u1930 7C88  
                   u1850 7AB8                     u1770 78E8                     u1690 7718  
                   u1931 7C84                     u1851 7AB4                     u1771 78E4  
                   u1691 7714                     u1940 7CC2                     u1860 7AF2  
                   u1780 7922                     u1941 7CBE                     u1861 7AEE  
                   u1781 791E                     u1950 7CFC                     u1870 7B2C  
                   u1790 795C                     u1951 7CF8                     u1871 7B28  
                   u1791 7958                     u1960 7D36                     u1880 7B66  
                   u1961 7D32                     u1881 7B62                     u1970 7D70  
                   u1890 7BA0                     u1971 7D6C                     u1891 7B9C  
                   u1980 7DAA                     u1981 7DA6                     u1990 7DE4  
                   u1991 7DE0                     _main 7408                     prodh 000FF4  
                   prodl 000FF3                     start 0000          ___fldiv@new_exp 0039  
           ___param_bank 000000                    ?_main 0001          __end_of___fldiv 6FDE  
        __end_of___flmul 7408                    _PORTB 000F81                    _PORTC 000F82  
                  _PORTD 000F83                    _TRISA 000F92                    _TRISB 000F93  
                  _TRISC 000F94                    status 000FD8          __initialization 69E0  
           __end_of_main 8000                   ??_main 0041            __activetblptr 000000  
                 _ADRESH 000FC4                   _ADRESL 000FC3         __end_of___xxtofl 6C44  
                 ___fleq 69E6                ??___fldiv 0030                ??___flmul 0017  
           ___xxtofl@arg 000B             ___xxtofl@exp 000A             ___xxtofl@val 0001  
             ___fleq@ff1 0001               ___fleq@ff2 0005               __accesstop 0060  
__end_of__initialization 69E0            ___rparam_used 000001           __pcstackCOMRAM 0001  
                ?___fleq 0001                ?___xxtofl 0001                  __Hparam 0000  
                __Lparam 0000          __size_of___fleq 00AA                  ___fldiv 6C44  
                ___flmul 6FDE                  __pcinit 69E0                  __ramtop 0800  
                __ptext0 7408                  __ptext1 6A90                  __ptext2 6FDE  
                __ptext3 69E6                  __ptext4 6C44               ??___xxtofl 0005  
                main@adc 0043     end_of_initialization 69E0                _PORTAbits 000F80  
          ___xxtofl@sign 0009                _TRISAbits 000F92              ___fldiv@grs 003B  
            ___fldiv@rem 0034              ___flmul@grs 001C           __end_of___fleq 6A90  
    start_initialization 69E0                 ??___fleq 0009                ___fldiv@a 002C  
              ___fldiv@b 0028                ___flmul@a 0013                ___flmul@b 000F  
      __size_of___xxtofl 01B4                 ?___fldiv 0028                 ?___flmul 000F  
             _ADCON0bits 000FC2               _ADCON1bits 000FC1               _ADCON2bits 000FC0  
               __Hrparam 0000                 __Lrparam 0000         __size_of___fldiv 039A  
       __size_of___flmul 042A                 ___xxtofl 6A90            __size_of_main 0BF8  
               main@volt 0045  
